---
triple:          'arm64-apple-darwin'
binary-path:     '/Users/james.malcolm/PycharmProjects/dejavu/target/debug/deps/lib_core.dylib'
relocations:
  - { offset: 0x1E, size: 0x8, addend: 0x0, symName: __ZN4pyo33err5PyErr10from_state17hacb04ede00865f71E, symObjAddr: 0x0, symBinAddr: 0x888, symSize: 0x30 }
  - { offset: 0x1D0C, size: 0x8, addend: 0x0, symName: __ZN4pyo33err5PyErr10from_state17hacb04ede00865f71E, symObjAddr: 0x0, symBinAddr: 0x888, symSize: 0x30 }
  - { offset: 0x1D57, size: 0x8, addend: 0x0, symName: __ZN4pyo33err5PyErr16write_unraisable17h22890c8a7a832ac9E, symObjAddr: 0x30, symBinAddr: 0x8B8, symSize: 0x58 }
  - { offset: 0x1DA5, size: 0x8, addend: 0x0, symName: __ZN4pyo33err5PyErr7restore17hbac5f7afb6049850E, symObjAddr: 0x88, symBinAddr: 0x910, symSize: 0x38 }
  - { offset: 0x1E02, size: 0x8, addend: 0x0, symName: '__ZN87_$LT$$BP$mut$u20$pyo3_ffi..object..PyObject$u20$as$u20$pyo3..ffi_ptr_ext..FfiPtrExt$GT$12assume_owned17hf6acfe08893a4e3eE', symObjAddr: 0x0, symBinAddr: 0x948, symSize: 0x24 }
  - { offset: 0x1E55, size: 0x8, addend: 0x0, symName: __ZN8pyo3_ffi6object10Py_IS_TYPE17h804b8cd9036a85f4E, symObjAddr: 0x6C, symBinAddr: 0x9B4, symSize: 0x38 }
  - { offset: 0x1E8F, size: 0x8, addend: 0x0, symName: __ZN8pyo3_ffi6object18PyObject_TypeCheck17h85bc1850687579a5E, symObjAddr: 0xA4, symBinAddr: 0x9EC, symSize: 0x70 }
  - { offset: 0x1ECC, size: 0x8, addend: 0x0, symName: __ZN8pyo3_ffi6object7Py_None17h37462978160b2d3aE, symObjAddr: 0x114, symBinAddr: 0xA5C, symSize: 0xC }
  - { offset: 0x30CC, size: 0x8, addend: 0x0, symName: '__ZN87_$LT$$BP$mut$u20$pyo3_ffi..object..PyObject$u20$as$u20$pyo3..ffi_ptr_ext..FfiPtrExt$GT$12assume_owned17hf6acfe08893a4e3eE', symObjAddr: 0x0, symBinAddr: 0x948, symSize: 0x24 }
  - { offset: 0x3111, size: 0x8, addend: 0x0, symName: '__ZN87_$LT$$BP$mut$u20$pyo3_ffi..object..PyObject$u20$as$u20$pyo3..ffi_ptr_ext..FfiPtrExt$GT$22assume_borrowed_or_opt17h5ce37231b192913bE', symObjAddr: 0x24, symBinAddr: 0x96C, symSize: 0x24 }
  - { offset: 0x3156, size: 0x8, addend: 0x0, symName: '__ZN87_$LT$$BP$mut$u20$pyo3_ffi..object..PyObject$u20$as$u20$pyo3..ffi_ptr_ext..FfiPtrExt$GT$25assume_borrowed_unchecked17h844e8d8862f5433aE', symObjAddr: 0x48, symBinAddr: 0x990, symSize: 0x24 }
  - { offset: 0x3782, size: 0x8, addend: 0x0, symName: '__ZN73_$LT$pyo3..types..any..PyAny$u20$as$u20$pyo3..type_object..PyTypeInfo$GT$15type_object_raw17hf5a9e59083fe4432E', symObjAddr: 0x0, symBinAddr: 0xA68, symSize: 0x24 }
  - { offset: 0x48BF, size: 0x8, addend: 0x0, symName: '__ZN73_$LT$pyo3..types..any..PyAny$u20$as$u20$pyo3..type_object..PyTypeInfo$GT$15type_object_raw17hf5a9e59083fe4432E', symObjAddr: 0x0, symBinAddr: 0xA68, symSize: 0x24 }
  - { offset: 0x4E13, size: 0x8, addend: 0x0, symName: __ZN3std9panicking12catch_unwind7do_call17h1176a69a993b62ceE, symObjAddr: 0x0, symBinAddr: 0xA8C, symSize: 0x78 }
  - { offset: 0x6E6D, size: 0x8, addend: 0x0, symName: __ZN3std9panicking12catch_unwind7do_call17h1176a69a993b62ceE, symObjAddr: 0x0, symBinAddr: 0xA8C, symSize: 0x78 }
  - { offset: 0x6F54, size: 0x8, addend: 0x0, symName: __ZN3std9panicking12catch_unwind7do_call17h4a27e4c8b54b4a2aE, symObjAddr: 0x78, symBinAddr: 0xB04, symSize: 0x6C }
  - { offset: 0x703B, size: 0x8, addend: 0x0, symName: __ZN3std9panicking12catch_unwind7do_call17h7667017efda53748E, symObjAddr: 0xE4, symBinAddr: 0xB70, symSize: 0x7C }
  - { offset: 0x7122, size: 0x8, addend: 0x0, symName: __ZN3std9panicking12catch_unwind7do_call17hb9b5251f2a8af325E, symObjAddr: 0x160, symBinAddr: 0xBEC, symSize: 0x78 }
  - { offset: 0x7209, size: 0x8, addend: 0x0, symName: __ZN3std9panicking12catch_unwind8do_catch17h25c1d7d10e24b6c9E, symObjAddr: 0x1D8, symBinAddr: 0xC64, symSize: 0x70 }
  - { offset: 0x729E, size: 0x8, addend: 0x0, symName: __ZN3std9panicking12catch_unwind8do_catch17ha3db440dcc54fa4bE, symObjAddr: 0x248, symBinAddr: 0xCD4, symSize: 0x70 }
  - { offset: 0x7333, size: 0x8, addend: 0x0, symName: __ZN3std9panicking12catch_unwind8do_catch17hd9172432da5fd57dE, symObjAddr: 0x2B8, symBinAddr: 0xD44, symSize: 0x70 }
  - { offset: 0x73C8, size: 0x8, addend: 0x0, symName: __ZN3std9panicking12catch_unwind8do_catch17hda167392efe0eb5cE, symObjAddr: 0x328, symBinAddr: 0xDB4, symSize: 0x70 }
  - { offset: 0x7875, size: 0x8, addend: 0x0, symName: __ZN4pyo35impl_9pymethods11tp_new_impl17he73d552c20311620E, symObjAddr: 0x0, symBinAddr: 0xE24, symSize: 0x6C }
  - { offset: 0x80A0, size: 0x8, addend: 0x0, symName: '__ZN50_$LT$T$u20$as$u20$core..convert..Into$LT$U$GT$$GT$4into17h65f7a21a61fa0038E', symObjAddr: 0x6C, symBinAddr: 0xE90, symSize: 0x24 }
  - { offset: 0x80E0, size: 0x8, addend: 0x0, symName: '__ZN50_$LT$T$u20$as$u20$core..convert..Into$LT$U$GT$$GT$4into17h717f6781eddd06dfE', symObjAddr: 0x90, symBinAddr: 0xEB4, symSize: 0x24 }
  - { offset: 0x8E85, size: 0x8, addend: 0x0, symName: __ZN4pyo35impl_9pymethods11tp_new_impl17he73d552c20311620E, symObjAddr: 0x0, symBinAddr: 0xE24, symSize: 0x6C }
  - { offset: 0x9E23, size: 0x8, addend: 0x0, symName: '__ZN3std11collections4hash3map18Entry$LT$K$C$V$GT$9or_insert17h4d71e2ae4c4e61c9E', symObjAddr: 0x0, symBinAddr: 0xED8, symSize: 0x198 }
  - { offset: 0xABD9, size: 0x8, addend: 0x0, symName: '__ZN3std11collections4hash3map18Entry$LT$K$C$V$GT$9or_insert17h4d71e2ae4c4e61c9E', symObjAddr: 0x0, symBinAddr: 0xED8, symSize: 0x198 }
  - { offset: 0xAE7D, size: 0x8, addend: 0x0, symName: '__ZN3std11collections4hash3map20HashMap$LT$K$C$V$GT$3new17h0ad009de9c66848aE', symObjAddr: 0x198, symBinAddr: 0x1070, symSize: 0x7C }
  - { offset: 0xAF92, size: 0x8, addend: 0x0, symName: '__ZN3std11collections4hash3map20HashMap$LT$K$C$V$GT$3new17hdfd9f706e3c19467E', symObjAddr: 0x214, symBinAddr: 0x10EC, symSize: 0x7C }
  - { offset: 0xB0AC, size: 0x8, addend: 0x0, symName: '__ZN3std11collections4hash3map24HashMap$LT$K$C$V$C$S$GT$3len17ha2f45903ff3c24a1E', symObjAddr: 0x290, symBinAddr: 0x1168, symSize: 0x18 }
  - { offset: 0xB122, size: 0x8, addend: 0x0, symName: '__ZN3std11collections4hash3map24HashMap$LT$K$C$V$C$S$GT$5entry17he9273e988bcabd11E', symObjAddr: 0x2A8, symBinAddr: 0x1180, symSize: 0xB0 }
  - { offset: 0xB1D0, size: 0x8, addend: 0x0, symName: '__ZN3std11collections4hash3map24HashMap$LT$K$C$V$C$S$GT$6insert17hc51ae7f30706542dE', symObjAddr: 0x358, symBinAddr: 0x1230, symSize: 0x28 }
  - { offset: 0xB23A, size: 0x8, addend: 0x0, symName: '__ZN3std11collections4hash3map24HashMap$LT$K$C$V$C$S$GT$6remove17h31f582e35260ff10E', symObjAddr: 0x380, symBinAddr: 0x1258, symSize: 0x2C }
  - { offset: 0xB2AE, size: 0x8, addend: 0x0, symName: '__ZN4core3ptr8non_null16NonNull$LT$T$GT$4cast17h2e249e638973d748E', symObjAddr: 0x0, symBinAddr: 0x1284, symSize: 0x14 }
  - { offset: 0xBD4A, size: 0x8, addend: 0x0, symName: '__ZN90_$LT$core..ptr..non_null..NonNull$LT$T$GT$$u20$as$u20$core..convert..From$LT$$RF$T$GT$$GT$4from17ha733245636ce44ddE', symObjAddr: 0xA0, symBinAddr: 0x1324, symSize: 0x14 }
  - { offset: 0xBD81, size: 0x8, addend: 0x0, symName: '__ZN90_$LT$core..ptr..non_null..NonNull$LT$T$GT$$u20$as$u20$core..convert..From$LT$$RF$T$GT$$GT$4from17hdfb5bebe5076a04aE', symObjAddr: 0xB4, symBinAddr: 0x1338, symSize: 0x14 }
  - { offset: 0xD59C, size: 0x8, addend: 0x0, symName: '__ZN4core3ptr8non_null16NonNull$LT$T$GT$4cast17h2e249e638973d748E', symObjAddr: 0x0, symBinAddr: 0x1284, symSize: 0x14 }
  - { offset: 0xD605, size: 0x8, addend: 0x0, symName: '__ZN4core3ptr8non_null16NonNull$LT$T$GT$4cast17h38f6e63ab3914722E', symObjAddr: 0x14, symBinAddr: 0x1298, symSize: 0x14 }
  - { offset: 0xD647, size: 0x8, addend: 0x0, symName: '__ZN4core3ptr8non_null16NonNull$LT$T$GT$4cast17h39c68544d5cee50dE', symObjAddr: 0x28, symBinAddr: 0x12AC, symSize: 0x14 }
  - { offset: 0xD689, size: 0x8, addend: 0x0, symName: '__ZN4core3ptr8non_null16NonNull$LT$T$GT$4cast17h5aaeda3331eeaed0E', symObjAddr: 0x3C, symBinAddr: 0x12C0, symSize: 0x14 }
  - { offset: 0xD6CB, size: 0x8, addend: 0x0, symName: '__ZN4core3ptr8non_null16NonNull$LT$T$GT$4cast17h6b1d823ee550d444E', symObjAddr: 0x50, symBinAddr: 0x12D4, symSize: 0x14 }
  - { offset: 0xD70D, size: 0x8, addend: 0x0, symName: '__ZN4core3ptr8non_null16NonNull$LT$T$GT$4cast17h7e47482feda71a68E', symObjAddr: 0x64, symBinAddr: 0x12E8, symSize: 0x14 }
  - { offset: 0xD742, size: 0x8, addend: 0x0, symName: '__ZN4core3ptr8non_null16NonNull$LT$T$GT$4cast17ha229c02780957ebcE', symObjAddr: 0x78, symBinAddr: 0x12FC, symSize: 0x14 }
  - { offset: 0xD777, size: 0x8, addend: 0x0, symName: '__ZN4core3ptr8non_null16NonNull$LT$T$GT$4cast17hf49d91ee8057bb98E', symObjAddr: 0x8C, symBinAddr: 0x1310, symSize: 0x14 }
  - { offset: 0xD7E4, size: 0x8, addend: 0x0, symName: __ZN4pyo35types4none6PyNone3get17hc640d61ccf28a784E, symObjAddr: 0x0, symBinAddr: 0x134C, symSize: 0x24 }
  - { offset: 0xEF51, size: 0x8, addend: 0x0, symName: __ZN4pyo35types4none6PyNone3get17hc640d61ccf28a784E, symObjAddr: 0x0, symBinAddr: 0x134C, symSize: 0x24 }
  - { offset: 0xEF9C, size: 0x8, addend: 0x0, symName: __ZN4core4hash11BuildHasher8hash_one17h9aada758e3b19cdfE, symObjAddr: 0x0, symBinAddr: 0x1370, symSize: 0x84 }
  - { offset: 0xEFB8, size: 0x8, addend: 0x0, symName: __ZN4core4hash11BuildHasher8hash_one17h9aada758e3b19cdfE, symObjAddr: 0x0, symBinAddr: 0x1370, symSize: 0x84 }
  - { offset: 0xF300, size: 0x8, addend: 0x0, symName: __ZN4pyo35types10typeobject6PyType22from_borrowed_type_ptr17heec86d38c9fe3a3eE, symObjAddr: 0x0, symBinAddr: 0x13F4, symSize: 0x34 }
  - { offset: 0x10A71, size: 0x8, addend: 0x0, symName: __ZN4pyo35types10typeobject6PyType22from_borrowed_type_ptr17heec86d38c9fe3a3eE, symObjAddr: 0x0, symBinAddr: 0x13F4, symSize: 0x34 }
  - { offset: 0x10ACA, size: 0x8, addend: 0x0, symName: '__ZN4core3mem13manually_drop21ManuallyDrop$LT$T$GT$4drop17h8a2fd7b70c37739cE', symObjAddr: 0x0, symBinAddr: 0x1428, symSize: 0x24 }
  - { offset: 0x1119E, size: 0x8, addend: 0x0, symName: '__ZN4core3mem13manually_drop21ManuallyDrop$LT$T$GT$4drop17h8a2fd7b70c37739cE', symObjAddr: 0x0, symBinAddr: 0x1428, symSize: 0x24 }
  - { offset: 0x111D6, size: 0x8, addend: 0x0, symName: '__ZN4core3mem13manually_drop21ManuallyDrop$LT$T$GT$4drop17hfe526610bbc2258aE', symObjAddr: 0x24, symBinAddr: 0x144C, symSize: 0x24 }
  - { offset: 0x1121F, size: 0x8, addend: 0x0, symName: '__ZN128_$LT$pyo3..impl_..pyclass_init..PyNativeTypeInitializer$LT$T$GT$$u20$as$u20$pyo3..impl_..pyclass_init..PyObjectInit$LT$T$GT$$GT$15into_new_object17h4d2a9a0b0de64aa3E', symObjAddr: 0x0, symBinAddr: 0x1470, symSize: 0x3C }
  - { offset: 0x1266D, size: 0x8, addend: 0x0, symName: '__ZN128_$LT$pyo3..impl_..pyclass_init..PyNativeTypeInitializer$LT$T$GT$$u20$as$u20$pyo3..impl_..pyclass_init..PyObjectInit$LT$T$GT$$GT$15into_new_object17h4d2a9a0b0de64aa3E', symObjAddr: 0x0, symBinAddr: 0x1470, symSize: 0x3C }
  - { offset: 0x126F1, size: 0x8, addend: 0x0, symName: '__ZN128_$LT$pyo3..impl_..pyclass_init..PyNativeTypeInitializer$LT$T$GT$$u20$as$u20$pyo3..impl_..pyclass_init..PyObjectInit$LT$T$GT$$GT$17can_be_subclassed17h32b25285037848dcE', symObjAddr: 0x3C, symBinAddr: 0x14AC, symSize: 0x18 }
  - { offset: 0x12FA0, size: 0x8, addend: 0x0, symName: __ZN4core3fmt9Arguments17from_str_nonconst17h5ceaa2fa3be5509cE, symObjAddr: 0x0, symBinAddr: 0x14C4, symSize: 0x28 }
  - { offset: 0x132EC, size: 0x8, addend: 0x0, symName: __ZN4core3fmt9Arguments17from_str_nonconst17h5ceaa2fa3be5509cE, symObjAddr: 0x0, symBinAddr: 0x14C4, symSize: 0x28 }
  - { offset: 0x1330F, size: 0x8, addend: 0x0, symName: __ZN4core3fmt9Arguments8from_str17h51b6117f65b99987E, symObjAddr: 0x28, symBinAddr: 0x14EC, symSize: 0x20 }
  - { offset: 0x13350, size: 0x8, addend: 0x0, symName: '__ZN106_$LT$pyo3..impl_..extract_argument..NoVarargs$u20$as$u20$pyo3..impl_..extract_argument..VarargsHandler$GT$20handle_varargs_tuple17hf1eca86c39862a57E', symObjAddr: 0x0, symBinAddr: 0x150C, symSize: 0xA0 }
  - { offset: 0x14C47, size: 0x8, addend: 0x0, symName: '__ZN106_$LT$pyo3..impl_..extract_argument..NoVarargs$u20$as$u20$pyo3..impl_..extract_argument..VarargsHandler$GT$20handle_varargs_tuple17hf1eca86c39862a57E', symObjAddr: 0x0, symBinAddr: 0x150C, symSize: 0xA0 }
  - { offset: 0x14CC0, size: 0x8, addend: 0x0, symName: '__ZN106_$LT$pyo3..impl_..extract_argument..NoVarargs$u20$as$u20$pyo3..impl_..extract_argument..VarargsHandler$GT$23handle_varargs_fastcall17h389bdb9325285ac3E', symObjAddr: 0xA0, symBinAddr: 0x15AC, symSize: 0xB4 }
  - { offset: 0x14D34, size: 0x8, addend: 0x0, symName: '__ZN114_$LT$pyo3..impl_..extract_argument..NoVarkeywords$u20$as$u20$pyo3..impl_..extract_argument..VarkeywordsHandler$GT$17handle_varkeyword17h1f265764e2ded6bfE', symObjAddr: 0x154, symBinAddr: 0x1660, symSize: 0x6C }
  - { offset: 0x14E73, size: 0x8, addend: 0x0, symName: __ZN4pyo35impl_16extract_argument24unwrap_required_argument17h9cac6bcc31080d84E, symObjAddr: 0x574, symBinAddr: 0x1A80, symSize: 0x58 }
  - { offset: 0x151F4, size: 0x8, addend: 0x0, symName: __ZN4pyo35impl_16extract_argument19FunctionDescription36find_keyword_parameter_in_positional17he8927170c4916a55E, symObjAddr: 0x1C0, symBinAddr: 0x16CC, symSize: 0x5C }
  - { offset: 0x15226, size: 0x8, addend: 0x0, symName: __ZN4pyo35impl_16extract_argument19FunctionDescription38find_keyword_parameter_in_keyword_only17h02dcc70b7aa347f6E, symObjAddr: 0x21C, symBinAddr: 0x1728, symSize: 0x5C }
  - { offset: 0x158E4, size: 0x8, addend: 0x0, symName: __ZN4pyo35impl_16extract_argument19FunctionDescription44ensure_no_missing_required_keyword_arguments17h9631599c15ff6f7cE, symObjAddr: 0x278, symBinAddr: 0x1784, symSize: 0x160 }
  - { offset: 0x159B0, size: 0x8, addend: 0x0, symName: __ZN4pyo35impl_16extract_argument19FunctionDescription47ensure_no_missing_required_positional_arguments17h6313fed778f97581E, symObjAddr: 0x3D8, symBinAddr: 0x18E4, symSize: 0x19C }
  - { offset: 0x15B45, size: 0x8, addend: 0x0, symName: '__ZN9hashbrown11rustc_entry62_$LT$impl$u20$hashbrown..map..HashMap$LT$K$C$V$C$S$C$A$GT$$GT$11rustc_entry17hf56cfbec519a5649E', symObjAddr: 0x0, symBinAddr: 0x1AD8, symSize: 0x14C }
  - { offset: 0x15D21, size: 0x8, addend: 0x0, symName: '__ZN9hashbrown3map11make_hasher28_$u7b$$u7b$closure$u7d$$u7d$17h575743ca2b35bc28E', symObjAddr: 0x14C, symBinAddr: 0x1C24, symSize: 0x3C }
  - { offset: 0x15D9D, size: 0x8, addend: 0x0, symName: '__ZN9hashbrown3map11make_hasher28_$u7b$$u7b$closure$u7d$$u7d$17hd15a5782cdedaea1E', symObjAddr: 0x188, symBinAddr: 0x1C60, symSize: 0x3C }
  - { offset: 0x15E58, size: 0x8, addend: 0x0, symName: '__ZN9hashbrown3map14equivalent_key28_$u7b$$u7b$closure$u7d$$u7d$17h12add474d5f4bb96E', symObjAddr: 0x1C4, symBinAddr: 0x1C9C, symSize: 0x30 }
  - { offset: 0x15EAF, size: 0x8, addend: 0x0, symName: '__ZN9hashbrown3map14equivalent_key28_$u7b$$u7b$closure$u7d$$u7d$17h25d16941d33f5134E', symObjAddr: 0x1F4, symBinAddr: 0x1CCC, symSize: 0x30 }
  - { offset: 0x168B3, size: 0x8, addend: 0x0, symName: '__ZN9hashbrown11rustc_entry62_$LT$impl$u20$hashbrown..map..HashMap$LT$K$C$V$C$S$C$A$GT$$GT$11rustc_entry17hf56cfbec519a5649E', symObjAddr: 0x0, symBinAddr: 0x1AD8, symSize: 0x14C }
  - { offset: 0x16976, size: 0x8, addend: 0x0, symName: '__ZN9hashbrown3map28HashMap$LT$K$C$V$C$S$C$A$GT$12remove_entry17h36f4f92cbb5df98bE', symObjAddr: 0x224, symBinAddr: 0x1CFC, symSize: 0x58 }
  - { offset: 0x16B99, size: 0x8, addend: 0x0, symName: '__ZN9hashbrown3map28HashMap$LT$K$C$V$C$S$C$A$GT$6insert17hc8dbd1a327d73c65E', symObjAddr: 0x27C, symBinAddr: 0x1D54, symSize: 0x1D8 }
  - { offset: 0x16D8B, size: 0x8, addend: 0x0, symName: '__ZN9hashbrown3map28HashMap$LT$K$C$V$C$S$C$A$GT$6remove17haf7405a21494d1e7E', symObjAddr: 0x454, symBinAddr: 0x1F2C, symSize: 0xB4 }
  - { offset: 0x16E48, size: 0x8, addend: 0x0, symName: __ZN5alloc5alloc15exchange_malloc17hf102321a0eb15901E, symObjAddr: 0x0, symBinAddr: 0x1FE0, symSize: 0xAC }
  - { offset: 0x177E6, size: 0x8, addend: 0x0, symName: '__ZN63_$LT$alloc..alloc..Global$u20$as$u20$core..alloc..Allocator$GT$10deallocate17h2b1832a075a8a74aE', symObjAddr: 0x244, symBinAddr: 0x2224, symSize: 0x58 }
  - { offset: 0x1789B, size: 0x8, addend: 0x0, symName: __ZN5alloc5alloc15exchange_malloc17hf102321a0eb15901E, symObjAddr: 0x0, symBinAddr: 0x1FE0, symSize: 0xAC }
  - { offset: 0x17BA2, size: 0x8, addend: 0x0, symName: __ZN5alloc5alloc6Global10alloc_impl17h90726bd7b63364ffE, symObjAddr: 0xAC, symBinAddr: 0x208C, symSize: 0x198 }
  - { offset: 0x17F76, size: 0x8, addend: 0x0, symName: __ZN4pyo310exceptions16PyAttributeError7new_err17h5390c50b130c6486E, symObjAddr: 0x0, symBinAddr: 0x227C, symSize: 0x28 }
  - { offset: 0x19A9A, size: 0x8, addend: 0x0, symName: __ZN4pyo310exceptions16PyAttributeError7new_err17h5390c50b130c6486E, symObjAddr: 0x0, symBinAddr: 0x227C, symSize: 0x28 }
  - { offset: 0x19AE3, size: 0x8, addend: 0x0, symName: __ZN4core5slice3raw14from_raw_parts17h3062c036567fefe0E, symObjAddr: 0x0, symBinAddr: 0x22A4, symSize: 0x58 }
  - { offset: 0x1A30E, size: 0x8, addend: 0x0, symName: __ZN4core5slice3raw14from_raw_parts17h3062c036567fefe0E, symObjAddr: 0x0, symBinAddr: 0x22A4, symSize: 0x58 }
  - { offset: 0x1A351, size: 0x8, addend: 0x0, symName: __ZN4core5slice3raw14from_raw_parts17h371d866b4c60ddcdE, symObjAddr: 0x58, symBinAddr: 0x22FC, symSize: 0x58 }
  - { offset: 0x1B399, size: 0x8, addend: 0x0, symName: '__ZN83_$LT$$LP$$RP$$u20$as$u20$pyo3..impl_..callback..IntoPyCallbackOutput$LT$i32$GT$$GT$7convert17h6b8fe2c7d784611dE', symObjAddr: 0x0, symBinAddr: 0x2354, symSize: 0x14 }
  - { offset: 0x1C7D5, size: 0x8, addend: 0x0, symName: '__ZN83_$LT$$LP$$RP$$u20$as$u20$pyo3..impl_..callback..IntoPyCallbackOutput$LT$i32$GT$$GT$7convert17h6b8fe2c7d784611dE', symObjAddr: 0x0, symBinAddr: 0x2354, symSize: 0x14 }
  - { offset: 0x1D05E, size: 0x8, addend: 0x0, symName: __ZN4pyo311type_object10PyTypeInfo10is_type_of17h565847a3355b4107E, symObjAddr: 0x0, symBinAddr: 0x2368, symSize: 0x50 }
  - { offset: 0x1D8A4, size: 0x8, addend: 0x0, symName: '__ZN50_$LT$T$u20$as$u20$core..convert..Into$LT$U$GT$$GT$4into17hbbe0b19bdf02d93eE', symObjAddr: 0x188, symBinAddr: 0x24F0, symSize: 0x14 }
  - { offset: 0x1E832, size: 0x8, addend: 0x0, symName: __ZN4pyo311type_object10PyTypeInfo10is_type_of17h565847a3355b4107E, symObjAddr: 0x0, symBinAddr: 0x2368, symSize: 0x50 }
  - { offset: 0x1E867, size: 0x8, addend: 0x0, symName: __ZN4pyo311type_object10PyTypeInfo10is_type_of17h64603620eff6192eE, symObjAddr: 0x50, symBinAddr: 0x23B8, symSize: 0x50 }
  - { offset: 0x1E89C, size: 0x8, addend: 0x0, symName: __ZN4pyo311type_object10PyTypeInfo11type_object17h5409b957296ecd4eE, symObjAddr: 0xA0, symBinAddr: 0x2408, symSize: 0x30 }
  - { offset: 0x1E8DC, size: 0x8, addend: 0x0, symName: __ZN4pyo311type_object10PyTypeInfo11type_object17he220e1ef9b9091f8E, symObjAddr: 0xD0, symBinAddr: 0x2438, symSize: 0x30 }
  - { offset: 0x1E922, size: 0x8, addend: 0x0, symName: '__ZN52_$LT$T$u20$as$u20$pyo3..type_object..PyTypeCheck$GT$10type_check17hba36e7ce0a581b02E', symObjAddr: 0x19C, symBinAddr: 0x2504, symSize: 0x24 }
  - { offset: 0x1E957, size: 0x8, addend: 0x0, symName: '__ZN52_$LT$T$u20$as$u20$pyo3..type_object..PyTypeCheck$GT$10type_check17hd166522e23d690e3E', symObjAddr: 0x1C0, symBinAddr: 0x2528, symSize: 0x24 }
  - { offset: 0x1E98C, size: 0x8, addend: 0x0, symName: '__ZN52_$LT$T$u20$as$u20$pyo3..type_object..PyTypeCheck$GT$16classinfo_object17h2e32682c3a4d1930E', symObjAddr: 0x1E4, symBinAddr: 0x254C, symSize: 0x20 }
  - { offset: 0x1E9CC, size: 0x8, addend: 0x0, symName: '__ZN52_$LT$T$u20$as$u20$pyo3..type_object..PyTypeCheck$GT$16classinfo_object17hd6c90e14a792e272E', symObjAddr: 0x204, symBinAddr: 0x256C, symSize: 0x20 }
  - { offset: 0x1EA18, size: 0x8, addend: 0x0, symName: '__ZN4pyo312pyclass_init130_$LT$impl$u20$pyo3..impl_..callback..IntoPyCallbackOutput$LT$pyo3..pyclass_init..PyClassInitializer$LT$T$GT$$GT$$u20$for$u20$U$GT$7convert17h178237bb7eef2909E', symObjAddr: 0x100, symBinAddr: 0x2468, symSize: 0x68 }
  - { offset: 0x1EB25, size: 0x8, addend: 0x0, symName: __ZN4pyo35impl_7pyclass11PyClassImpl11dict_offset17h4074c8d2dadb2004E, symObjAddr: 0x168, symBinAddr: 0x24D0, symSize: 0x8 }
  - { offset: 0x1EB4C, size: 0x8, addend: 0x0, symName: __ZN4pyo35impl_7pyclass11PyClassImpl11dict_offset17h83e30d600c058428E, symObjAddr: 0x170, symBinAddr: 0x24D8, symSize: 0x8 }
  - { offset: 0x1EB73, size: 0x8, addend: 0x0, symName: __ZN4pyo35impl_7pyclass11PyClassImpl15weaklist_offset17h16f45dc95e6b0bd4E, symObjAddr: 0x178, symBinAddr: 0x24E0, symSize: 0x8 }
  - { offset: 0x1EB9A, size: 0x8, addend: 0x0, symName: __ZN4pyo35impl_7pyclass11PyClassImpl15weaklist_offset17had9e9b38d74cc3cbE, symObjAddr: 0x180, symBinAddr: 0x24E8, symSize: 0x8 }
  - { offset: 0x1F0E9, size: 0x8, addend: 0x0, symName: '__ZN5_core8Position23__pymethod_set_symbol__28_$u7b$$u7b$closure$u7d$$u7d$17h2c755921b5aac492E', symObjAddr: 0x224, symBinAddr: 0x258C, symSize: 0x2C }
  - { offset: 0x1F11E, size: 0x8, addend: 0x0, symName: '__ZN5_core8Position25__pymethod_set_avg_cost__28_$u7b$$u7b$closure$u7d$$u7d$17hdfe97710dc3e7c23E', symObjAddr: 0x250, symBinAddr: 0x25B8, symSize: 0x2C }
  - { offset: 0x1F153, size: 0x8, addend: 0x0, symName: '__ZN5_core8Position25__pymethod_set_quantity__28_$u7b$$u7b$closure$u7d$$u7d$17h25d9850d8e3ccd00E', symObjAddr: 0x27C, symBinAddr: 0x25E4, symSize: 0x2C }
  - { offset: 0x1F188, size: 0x8, addend: 0x0, symName: '__ZN5_core8Position27__pymethod_set_multiplier__28_$u7b$$u7b$closure$u7d$$u7d$17hd7eb3f9549336204E', symObjAddr: 0x2A8, symBinAddr: 0x2610, symSize: 0x2C }
  - { offset: 0x1F1BD, size: 0x8, addend: 0x0, symName: '__ZN5_core8Position28__pymethod_set_asset_class__28_$u7b$$u7b$closure$u7d$$u7d$17h946f5d210d88f60cE', symObjAddr: 0x2D4, symBinAddr: 0x263C, symSize: 0x2C }
  - { offset: 0x1F1F8, size: 0x8, addend: 0x0, symName: '__ZN65_$LT$_core..Position$u20$as$u20$pyo3..type_object..PyTypeInfo$GT$15type_object_raw28_$u7b$$u7b$closure$u7d$$u7d$17h44ea00946af85802E', symObjAddr: 0x300, symBinAddr: 0x2668, symSize: 0x3C }
  - { offset: 0x1F262, size: 0x8, addend: 0x0, symName: '__ZN69_$LT$_core..Position$u20$as$u20$pyo3..impl_..pyclass..PyClassImpl$GT$10items_iter15INTRINSIC_ITEMS28_$u7b$$u7b$closure$u7d$$u7d$17h5ac0e9f837cd88a5E', symObjAddr: 0x33C, symBinAddr: 0x26A4, symSize: 0x44 }
  - { offset: 0x1F28A, size: 0x8, addend: 0x0, symName: '__ZN69_$LT$_core..Position$u20$as$u20$pyo3..impl_..pyclass..PyClassImpl$GT$10items_iter15INTRINSIC_ITEMS28_$u7b$$u7b$closure$u7d$$u7d$17h95afee8ac405f17eE', symObjAddr: 0x380, symBinAddr: 0x26E8, symSize: 0x44 }
  - { offset: 0x1F2B2, size: 0x8, addend: 0x0, symName: '__ZN69_$LT$_core..Position$u20$as$u20$pyo3..impl_..pyclass..PyClassImpl$GT$10items_iter15INTRINSIC_ITEMS28_$u7b$$u7b$closure$u7d$$u7d$17ha73088027a181b12E', symObjAddr: 0x3C4, symBinAddr: 0x272C, symSize: 0x44 }
  - { offset: 0x1F2DA, size: 0x8, addend: 0x0, symName: '__ZN69_$LT$_core..Position$u20$as$u20$pyo3..impl_..pyclass..PyClassImpl$GT$10items_iter15INTRINSIC_ITEMS28_$u7b$$u7b$closure$u7d$$u7d$17hc4fbfdce539ab9b3E', symObjAddr: 0x408, symBinAddr: 0x2770, symSize: 0x44 }
  - { offset: 0x1F302, size: 0x8, addend: 0x0, symName: '__ZN69_$LT$_core..Position$u20$as$u20$pyo3..impl_..pyclass..PyClassImpl$GT$10items_iter15INTRINSIC_ITEMS28_$u7b$$u7b$closure$u7d$$u7d$17hd7a7b03be76ca8fbE', symObjAddr: 0x44C, symBinAddr: 0x27B4, symSize: 0x44 }
  - { offset: 0x1F35A, size: 0x8, addend: 0x0, symName: '__ZN70_$LT$_core..RustPortfolio$u20$as$u20$pyo3..type_object..PyTypeInfo$GT$15type_object_raw28_$u7b$$u7b$closure$u7d$$u7d$17hc46726aabb446af5E', symObjAddr: 0x490, symBinAddr: 0x27F8, symSize: 0x3C }
  - { offset: 0x1F3C4, size: 0x8, addend: 0x0, symName: '__ZN74_$LT$_core..RustPortfolio$u20$as$u20$pyo3..impl_..pyclass..PyClassImpl$GT$10items_iter15INTRINSIC_ITEMS28_$u7b$$u7b$closure$u7d$$u7d$17h3998050c5ac7431bE', symObjAddr: 0x4CC, symBinAddr: 0x2834, symSize: 0x44 }
  - { offset: 0x20056, size: 0x8, addend: 0x0, symName: __ZN4pyo38internal5state11AttachGuard6python17h6c43070e1040b295E, symObjAddr: 0x0, symBinAddr: 0x2878, symSize: 0x20 }
  - { offset: 0x2010C, size: 0x8, addend: 0x0, symName: __ZN4pyo38internal5state11AttachGuard6python17h6c43070e1040b295E, symObjAddr: 0x0, symBinAddr: 0x2878, symSize: 0x20 }
  - { offset: 0x2014C, size: 0x8, addend: 0x0, symName: '__ZN71_$LT$core..hash..sip..Hasher$LT$S$GT$$u20$as$u20$core..hash..Hasher$GT$9write_str17h19a9ac92aa4b829dE', symObjAddr: 0x0, symBinAddr: 0x2898, symSize: 0x5C }
  - { offset: 0x2024A, size: 0x8, addend: 0x0, symName: '__ZN71_$LT$core..hash..sip..Hasher$LT$S$GT$$u20$as$u20$core..hash..Hasher$GT$9write_str17h19a9ac92aa4b829dE', symObjAddr: 0x0, symBinAddr: 0x2898, symSize: 0x5C }
  - { offset: 0x2032D, size: 0x8, addend: 0x0, symName: __ZN4core9core_arch10arm_shared4neon9generated18vreinterpret_s8_u817hb4ee6fd63aa0b4b3E, symObjAddr: 0x0, symBinAddr: 0x28F4, symSize: 0xC }
  - { offset: 0x20353, size: 0x8, addend: 0x0, symName: __ZN4core9core_arch10arm_shared4neon9generated18vreinterpret_s8_u817hb4ee6fd63aa0b4b3E, symObjAddr: 0x0, symBinAddr: 0x28F4, symSize: 0xC }
  - { offset: 0x20381, size: 0x8, addend: 0x0, symName: __ZN4core9core_arch10arm_shared4neon9generated19vreinterpret_u64_u817h2f5ca97a0f97fad4E, symObjAddr: 0xC, symBinAddr: 0x2900, symSize: 0xC }
  - { offset: 0x203AF, size: 0x8, addend: 0x0, symName: __ZN4core9core_arch10arm_shared4neon9generated7vceq_u817h9e65b5a570be21d5E, symObjAddr: 0x18, symBinAddr: 0x290C, symSize: 0x14 }
  - { offset: 0x203EC, size: 0x8, addend: 0x0, symName: __ZN4core9core_arch10arm_shared4neon9generated7vorr_u817h6b9e3fa83a5ce16dE, symObjAddr: 0x2C, symBinAddr: 0x2920, symSize: 0x14 }
  - { offset: 0x20429, size: 0x8, addend: 0x0, symName: __ZN4core9core_arch10arm_shared4neon9generated9vdup_n_u817h03b3d90279ebccacE, symObjAddr: 0x40, symBinAddr: 0x2934, symSize: 0x2C }
  - { offset: 0x20597, size: 0x8, addend: 0x0, symName: __ZN9hashbrown3raw11TableLayout20calculate_layout_for17hd5612cd97e35ec4dE, symObjAddr: 0x0, symBinAddr: 0x2960, symSize: 0x220 }
  - { offset: 0x21C52, size: 0x8, addend: 0x0, symName: __ZN9hashbrown3raw11TableLayout20calculate_layout_for17hd5612cd97e35ec4dE, symObjAddr: 0x0, symBinAddr: 0x2960, symSize: 0x220 }
  - { offset: 0x22130, size: 0x8, addend: 0x0, symName: __ZN9hashbrown3raw13RawTableInner15rehash_in_place17hfb6fb6c28ca266e1E, symObjAddr: 0x220, symBinAddr: 0x2B80, symSize: 0x408 }
  - { offset: 0x22992, size: 0x8, addend: 0x0, symName: __ZN9hashbrown3raw13RawTableInner16fix_insert_index17h3908a71714452380E, symObjAddr: 0x628, symBinAddr: 0x2F88, symSize: 0x100 }
  - { offset: 0x22C04, size: 0x8, addend: 0x0, symName: __ZN9hashbrown3raw13RawTableInner17find_insert_index17hc2335df3c2a8feacE, symObjAddr: 0x728, symBinAddr: 0x3088, symSize: 0xFC }
  - { offset: 0x22F09, size: 0x8, addend: 0x0, symName: __ZN9hashbrown3raw13RawTableInner23prepare_rehash_in_place17ha38b9c5dbf921759E, symObjAddr: 0x824, symBinAddr: 0x3184, symSize: 0x204 }
  - { offset: 0x234FF, size: 0x8, addend: 0x0, symName: __ZN9hashbrown3raw13RawTableInner26find_insert_index_in_group17hc0fa1e883a83b8caE, symObjAddr: 0xA28, symBinAddr: 0x3388, symSize: 0x120 }
  - { offset: 0x237BC, size: 0x8, addend: 0x0, symName: __ZN9hashbrown3raw13RawTableInner31find_or_find_insert_index_inner17ha271ecfbbd4d5b9eE, symObjAddr: 0xB48, symBinAddr: 0x34A8, symSize: 0x2A0 }
  - { offset: 0x23BDE, size: 0x8, addend: 0x0, symName: __ZN9hashbrown3raw13RawTableInner5erase17hf74b3dccff8061dbE, symObjAddr: 0xDE8, symBinAddr: 0x3748, symSize: 0x178 }
  - { offset: 0x23EEE, size: 0x8, addend: 0x0, symName: __ZN4core4hint16assert_unchecked18precondition_check17h9724a512d8614e22E, symObjAddr: 0x0, symBinAddr: 0x38C0, symSize: 0x58 }
  - { offset: 0x23F0A, size: 0x8, addend: 0x0, symName: __ZN4core4hint16assert_unchecked18precondition_check17h9724a512d8614e22E, symObjAddr: 0x0, symBinAddr: 0x38C0, symSize: 0x58 }
  - { offset: 0x23F55, size: 0x8, addend: 0x0, symName: __ZN4core4hint21unreachable_unchecked18precondition_check17h3c50b90e6822ea62E, symObjAddr: 0x58, symBinAddr: 0x3918, symSize: 0x3C }
  - { offset: 0x23FE9, size: 0x8, addend: 0x0, symName: '__ZN71_$LT$std..hash..random..DefaultHasher$u20$as$u20$core..hash..Hasher$GT$6finish17h722eed995c1b565aE', symObjAddr: 0x0, symBinAddr: 0x3954, symSize: 0x20 }
  - { offset: 0x2418D, size: 0x8, addend: 0x0, symName: '__ZN71_$LT$std..hash..random..DefaultHasher$u20$as$u20$core..hash..Hasher$GT$6finish17h722eed995c1b565aE', symObjAddr: 0x0, symBinAddr: 0x3954, symSize: 0x20 }
  - { offset: 0x241D5, size: 0x8, addend: 0x0, symName: '__ZN71_$LT$std..hash..random..DefaultHasher$u20$as$u20$core..hash..Hasher$GT$9write_str17h6174002fc9c727e7E', symObjAddr: 0x20, symBinAddr: 0x3974, symSize: 0x2C }
  - { offset: 0x24235, size: 0x8, addend: 0x0, symName: '__ZN74_$LT$std..hash..random..RandomState$u20$as$u20$core..hash..BuildHasher$GT$12build_hasher17h70bb992d19388752E', symObjAddr: 0x4C, symBinAddr: 0x39A0, symSize: 0xCC }
  - { offset: 0x243D1, size: 0x8, addend: 0x0, symName: '__ZN5alloc7raw_vec19RawVec$LT$T$C$A$GT$8grow_one17h0e265852299272daE', symObjAddr: 0x0, symBinAddr: 0x3A6C, symSize: 0x84 }
  - { offset: 0x249F2, size: 0x8, addend: 0x0, symName: '__ZN5alloc7raw_vec19RawVec$LT$T$C$A$GT$8grow_one17h0e265852299272daE', symObjAddr: 0x0, symBinAddr: 0x3A6C, symSize: 0x84 }
  - { offset: 0x24AAB, size: 0x8, addend: 0x0, symName: '__ZN5alloc7raw_vec19RawVec$LT$T$C$A$GT$8grow_one17h43bcb6d91777503aE', symObjAddr: 0x84, symBinAddr: 0x3AF0, symSize: 0x84 }
  - { offset: 0x24B84, size: 0x8, addend: 0x0, symName: '__ZN5alloc7raw_vec19RawVec$LT$T$C$A$GT$8grow_one17h46b64e0d67253f92E', symObjAddr: 0x108, symBinAddr: 0x3B74, symSize: 0x88 }
  - { offset: 0x24C0F, size: 0x8, addend: 0x0, symName: __ZN4core9core_arch7aarch644neon9generated7vld1_u817h14d871772f823f61E, symObjAddr: 0x0, symBinAddr: 0x3BFC, symSize: 0x34 }
  - { offset: 0x24C35, size: 0x8, addend: 0x0, symName: __ZN4core9core_arch7aarch644neon9generated7vld1_u817h14d871772f823f61E, symObjAddr: 0x0, symBinAddr: 0x3BFC, symSize: 0x34 }
  - { offset: 0x24C63, size: 0x8, addend: 0x0, symName: __ZN4core9core_arch7aarch644neon9generated7vst1_u817h9ee1a883cd8e6d26E, symObjAddr: 0x34, symBinAddr: 0x3C30, symSize: 0x40 }
  - { offset: 0x24C9D, size: 0x8, addend: 0x0, symName: __ZN4core9core_arch7aarch644neon9generated8vcgez_s817h2f0f1fec96688dadE, symObjAddr: 0x74, symBinAddr: 0x3C70, symSize: 0x68 }
  - { offset: 0x24D3F, size: 0x8, addend: 0x0, symName: __ZN4core9core_arch7aarch644neon9generated8vcltz_s817h60a6f9255f5a3126E, symObjAddr: 0xDC, symBinAddr: 0x3CD8, symSize: 0x68 }
  - { offset: 0x24F35, size: 0x8, addend: 0x0, symName: '__ZN4pyo312pyclass_init27PyClassInitializer$LT$T$GT$27create_class_object_of_type17hc0ab1aa41df32deeE', symObjAddr: 0x0, symBinAddr: 0x3D40, symSize: 0x310 }
  - { offset: 0x26C40, size: 0x8, addend: 0x0, symName: '__ZN96_$LT$pyo3..pyclass_init..PyClassInitializer$LT$T$GT$$u20$as$u20$core..convert..From$LT$T$GT$$GT$4from17hd0567c7e7989eab2E', symObjAddr: 0x408, symBinAddr: 0x4148, symSize: 0x48 }
  - { offset: 0x27701, size: 0x8, addend: 0x0, symName: '__ZN4pyo312pyclass_init27PyClassInitializer$LT$T$GT$27create_class_object_of_type17hc0ab1aa41df32deeE', symObjAddr: 0x0, symBinAddr: 0x3D40, symSize: 0x310 }
  - { offset: 0x278EB, size: 0x8, addend: 0x0, symName: '__ZN4pyo312pyclass_init27PyClassInitializer$LT$T$GT$3new17h67fc1b405d5c6890E', symObjAddr: 0x310, symBinAddr: 0x4050, symSize: 0xF8 }
  - { offset: 0x27944, size: 0x8, addend: 0x0, symName: __ZN9hashbrown3raw13RawTableInner13drop_elements17h6f762461a5a82b95E, symObjAddr: 0x0, symBinAddr: 0x4190, symSize: 0x15C }
  - { offset: 0x27973, size: 0x8, addend: 0x0, symName: '__ZN9hashbrown3raw21RawTable$LT$T$C$A$GT$14reserve_rehash28_$u7b$$u7b$closure$u7d$$u7d$17h01c2e12fe0bf5734E', symObjAddr: 0x1B1C, symBinAddr: 0x4D14, symSize: 0xC0 }
  - { offset: 0x27B51, size: 0x8, addend: 0x0, symName: '__ZN9hashbrown3raw21RawTable$LT$T$C$A$GT$14reserve_rehash28_$u7b$$u7b$closure$u7d$$u7d$17h28df2e81a0eefcfaE', symObjAddr: 0x1BDC, symBinAddr: 0x4DD4, symSize: 0x30 }
  - { offset: 0x27BA1, size: 0x8, addend: 0x0, symName: '__ZN9hashbrown3raw21RawTable$LT$T$C$A$GT$14reserve_rehash28_$u7b$$u7b$closure$u7d$$u7d$17h49eca3111a7edd12E', symObjAddr: 0x1C0C, symBinAddr: 0x4E04, symSize: 0xC0 }
  - { offset: 0x27D7F, size: 0x8, addend: 0x0, symName: '__ZN9hashbrown3raw21RawTable$LT$T$C$A$GT$14reserve_rehash28_$u7b$$u7b$closure$u7d$$u7d$17h7707ca6c75a82162E', symObjAddr: 0x1CCC, symBinAddr: 0x4EC4, symSize: 0x30 }
  - { offset: 0x27DE3, size: 0x8, addend: 0x0, symName: '__ZN9hashbrown3raw21RawTable$LT$T$C$A$GT$25find_or_find_insert_index28_$u7b$$u7b$closure$u7d$$u7d$17h12c22e4d37f36340E', symObjAddr: 0x1F4C, symBinAddr: 0x5144, symSize: 0xC4 }
  - { offset: 0x27FD6, size: 0x8, addend: 0x0, symName: '__ZN9hashbrown3raw21RawTable$LT$T$C$A$GT$4find28_$u7b$$u7b$closure$u7d$$u7d$17h4a4caf2eab208e3bE', symObjAddr: 0x2638, symBinAddr: 0x5830, symSize: 0xC4 }
  - { offset: 0x281BA, size: 0x8, addend: 0x0, symName: '__ZN9hashbrown3raw21RawTable$LT$T$C$A$GT$4find28_$u7b$$u7b$closure$u7d$$u7d$17h514ddf6f676eac51E', symObjAddr: 0x26FC, symBinAddr: 0x58F4, symSize: 0xC4 }
  - { offset: 0x2B3DD, size: 0x8, addend: 0x0, symName: __ZN9hashbrown3raw13RawTableInner13drop_elements17h6f762461a5a82b95E, symObjAddr: 0x0, symBinAddr: 0x4190, symSize: 0x15C }
  - { offset: 0x2B78E, size: 0x8, addend: 0x0, symName: __ZN9hashbrown3raw13RawTableInner13drop_elements17h83c543508ff61ac5E, symObjAddr: 0x15C, symBinAddr: 0x42EC, symSize: 0x15C }
  - { offset: 0x2BB37, size: 0x8, addend: 0x0, symName: __ZN9hashbrown3raw13RawTableInner16drop_inner_table17h099f1eca3af300a0E, symObjAddr: 0x2B8, symBinAddr: 0x4448, symSize: 0xAC }
  - { offset: 0x2BDBC, size: 0x8, addend: 0x0, symName: __ZN9hashbrown3raw13RawTableInner16drop_inner_table17h357c6108aa527272E, symObjAddr: 0x364, symBinAddr: 0x44F4, symSize: 0xAC }
  - { offset: 0x2BFB2, size: 0x8, addend: 0x0, symName: '__ZN9hashbrown3raw21RawIterRange$LT$T$GT$3new17h102a3c0075900da0E', symObjAddr: 0x410, symBinAddr: 0x45A0, symSize: 0x98 }
  - { offset: 0x2C11F, size: 0x8, addend: 0x0, symName: '__ZN9hashbrown3raw21RawIterRange$LT$T$GT$3new17hbf788264e363beceE', symObjAddr: 0x4A8, symBinAddr: 0x4638, symSize: 0x98 }
  - { offset: 0x2C3B3, size: 0x8, addend: 0x0, symName: '__ZN9hashbrown3raw21RawIterRange$LT$T$GT$9next_impl17h1d2c91de378254ceE', symObjAddr: 0x540, symBinAddr: 0x46D0, symSize: 0x1B4 }
  - { offset: 0x2C7FE, size: 0x8, addend: 0x0, symName: '__ZN9hashbrown3raw21RawIterRange$LT$T$GT$9next_impl17h4388b9580fdbb3f8E', symObjAddr: 0x6F4, symBinAddr: 0x4884, symSize: 0x1B4 }
  - { offset: 0x2CB02, size: 0x8, addend: 0x0, symName: '__ZN9hashbrown3raw21RawTable$LT$T$C$A$GT$12remove_entry17hf500d9fb1c309aa2E', symObjAddr: 0x8A8, symBinAddr: 0x4A38, symSize: 0xB0 }
  - { offset: 0x2CC1B, size: 0x8, addend: 0x0, symName: '__ZN9hashbrown3raw21RawTable$LT$T$C$A$GT$13erase_no_drop17h6c5ff534760fe11dE', symObjAddr: 0x958, symBinAddr: 0x4AE8, symSize: 0x90 }
  - { offset: 0x2CF9C, size: 0x8, addend: 0x0, symName: '__ZN9hashbrown3raw21RawTable$LT$T$C$A$GT$14insert_no_grow17haf3f3bd0a722483cE', symObjAddr: 0x9E8, symBinAddr: 0x4B78, symSize: 0x19C }
  - { offset: 0x2D81B, size: 0x8, addend: 0x0, symName: '__ZN9hashbrown3raw21RawTable$LT$T$C$A$GT$14reserve_rehash17h1331abc34e7cca41E', symObjAddr: 0xB84, symBinAddr: 0x6DF6C, symSize: 0x7D4 }
  - { offset: 0x2E0D2, size: 0x8, addend: 0x0, symName: '__ZN9hashbrown3raw21RawTable$LT$T$C$A$GT$14reserve_rehash17h875d64fb64e3de96E', symObjAddr: 0x1358, symBinAddr: 0x6E740, symSize: 0x7C4 }
  - { offset: 0x2EDE5, size: 0x8, addend: 0x0, symName: '__ZN9hashbrown3raw21RawTable$LT$T$C$A$GT$22insert_tagged_at_index17h7d7c8eb2e04dcd3bE', symObjAddr: 0x1CFC, symBinAddr: 0x4EF4, symSize: 0x11C }
  - { offset: 0x2F255, size: 0x8, addend: 0x0, symName: '__ZN9hashbrown3raw21RawTable$LT$T$C$A$GT$25find_or_find_insert_index17h859f48f47e168715E', symObjAddr: 0x1E18, symBinAddr: 0x5010, symSize: 0x134 }
  - { offset: 0x2F85D, size: 0x8, addend: 0x0, symName: '__ZN9hashbrown3raw21RawTable$LT$T$C$A$GT$4find17h85f7565c980b37f2E', symObjAddr: 0x2010, symBinAddr: 0x5208, symSize: 0x314 }
  - { offset: 0x2FDE5, size: 0x8, addend: 0x0, symName: '__ZN9hashbrown3raw21RawTable$LT$T$C$A$GT$4find17hc715a6dd3cad0de1E', symObjAddr: 0x2324, symBinAddr: 0x551C, symSize: 0x314 }
  - { offset: 0x30616, size: 0x8, addend: 0x0, symName: '__ZN9hashbrown3raw21RawTable$LT$T$C$A$GT$6remove17h245393f2b4e55bf8E', symObjAddr: 0x27C0, symBinAddr: 0x59B8, symSize: 0x108 }
  - { offset: 0x3084E, size: 0x8, addend: 0x0, symName: '__ZN9hashbrown3raw21RawTable$LT$T$C$A$GT$7reserve17h67771c1b6495f84dE', symObjAddr: 0x28C8, symBinAddr: 0x5AC0, symSize: 0xB0 }
  - { offset: 0x30952, size: 0x8, addend: 0x0, symName: '__ZN9hashbrown3raw21RawTable$LT$T$C$A$GT$7reserve17hff8bc279ef2b1be0E', symObjAddr: 0x2978, symBinAddr: 0x5B70, symSize: 0xB0 }
  - { offset: 0x30A44, size: 0x8, addend: 0x0, symName: '__ZN9hashbrown11rustc_entry62_$LT$impl$u20$hashbrown..map..HashMap$LT$K$C$V$C$S$C$A$GT$$GT$11rustc_entry28_$u7b$$u7b$closure$u7d$$u7d$17h32501351f2b8a546E', symObjAddr: 0x0, symBinAddr: 0x5C20, symSize: 0x38 }
  - { offset: 0x30A65, size: 0x8, addend: 0x0, symName: '__ZN9hashbrown11rustc_entry62_$LT$impl$u20$hashbrown..map..HashMap$LT$K$C$V$C$S$C$A$GT$$GT$11rustc_entry28_$u7b$$u7b$closure$u7d$$u7d$17h32501351f2b8a546E', symObjAddr: 0x0, symBinAddr: 0x5C20, symSize: 0x38 }
  - { offset: 0x30D31, size: 0x8, addend: 0x0, symName: '__ZN4pyo35types5float64_$LT$impl$u20$pyo3..conversion..IntoPyObject$u20$for$u20$f64$GT$13into_pyobject17hef3a6899e40ec287E', symObjAddr: 0x0, symBinAddr: 0x5C58, symSize: 0x20 }
  - { offset: 0x31F81, size: 0x8, addend: 0x0, symName: '__ZN4pyo35types5float64_$LT$impl$u20$pyo3..conversion..IntoPyObject$u20$for$u20$f64$GT$13into_pyobject17hef3a6899e40ec287E', symObjAddr: 0x0, symBinAddr: 0x5C58, symSize: 0x20 }
  - { offset: 0x31FCC, size: 0x8, addend: 0x0, symName: '__ZN4pyo35types5float68_$LT$impl$u20$pyo3..conversion..IntoPyObject$u20$for$u20$$RF$f64$GT$13into_pyobject17ha5ab205722367badE', symObjAddr: 0x20, symBinAddr: 0x5C78, symSize: 0x28 }
  - { offset: 0x325D9, size: 0x8, addend: 0x0, symName: '__ZN4core3ptr9const_ptr33_$LT$impl$u20$$BP$const$u20$T$GT$7is_null17hdfb249fa32ab87e1E', symObjAddr: 0x0, symBinAddr: 0x5CA0, symSize: 0x18 }
  - { offset: 0x32E20, size: 0x8, addend: 0x0, symName: '__ZN4core3ptr9const_ptr33_$LT$impl$u20$$BP$const$u20$T$GT$7is_null17hdfb249fa32ab87e1E', symObjAddr: 0x0, symBinAddr: 0x5CA0, symSize: 0x18 }
  - { offset: 0x32FA1, size: 0x8, addend: 0x0, symName: '__ZN4core5slice29_$LT$impl$u20$$u5b$T$u5d$$GT$15copy_from_slice17h56ec159e5655e475E', symObjAddr: 0x18, symBinAddr: 0x5CB8, symSize: 0x34 }
  - { offset: 0x3300A, size: 0x8, addend: 0x0, symName: '__ZN4core5slice29_$LT$impl$u20$$u5b$T$u5d$$GT$18split_at_unchecked17h2bc7fea784a42b94E', symObjAddr: 0x4C, symBinAddr: 0x5CEC, symSize: 0xE8 }
  - { offset: 0x33197, size: 0x8, addend: 0x0, symName: '__ZN4core5slice29_$LT$impl$u20$$u5b$T$u5d$$GT$8split_at17hd75965594458236eE', symObjAddr: 0x134, symBinAddr: 0x5DD4, symSize: 0xAC }
  - { offset: 0x3566B, size: 0x8, addend: 0x0, symName: '__ZN4core6option15Option$LT$T$GT$10ok_or_else17h02dce6c8778b6f6cE', symObjAddr: 0x1E0, symBinAddr: 0x5E80, symSize: 0x80 }
  - { offset: 0x356D6, size: 0x8, addend: 0x0, symName: '__ZN4core6option15Option$LT$T$GT$10ok_or_else17h17d75cf7dfb8dd8eE', symObjAddr: 0x260, symBinAddr: 0x5F00, symSize: 0x80 }
  - { offset: 0x35741, size: 0x8, addend: 0x0, symName: '__ZN4core6option15Option$LT$T$GT$10ok_or_else17h5135bf9e931398eaE', symObjAddr: 0x2E0, symBinAddr: 0x5F80, symSize: 0x80 }
  - { offset: 0x357AC, size: 0x8, addend: 0x0, symName: '__ZN4core6option15Option$LT$T$GT$10ok_or_else17h738315b8ba0af3c2E', symObjAddr: 0x360, symBinAddr: 0x6000, symSize: 0x80 }
  - { offset: 0x35817, size: 0x8, addend: 0x0, symName: '__ZN4core6option15Option$LT$T$GT$10ok_or_else17hcad975fe25ce93b0E', symObjAddr: 0x3E0, symBinAddr: 0x6080, symSize: 0x80 }
  - { offset: 0x3588F, size: 0x8, addend: 0x0, symName: '__ZN4core6option15Option$LT$T$GT$3map17h23dd7fa4766d48caE', symObjAddr: 0x460, symBinAddr: 0x6100, symSize: 0x50 }
  - { offset: 0x35907, size: 0x8, addend: 0x0, symName: '__ZN4core6option15Option$LT$T$GT$3map17h88ce439464d6e15dE', symObjAddr: 0x4B0, symBinAddr: 0x6150, symSize: 0x5C }
  - { offset: 0x3597F, size: 0x8, addend: 0x0, symName: '__ZN4core6option15Option$LT$T$GT$3map17hfe67bc31be5c6839E', symObjAddr: 0x50C, symBinAddr: 0x61AC, symSize: 0x50 }
  - { offset: 0x35A3C, size: 0x8, addend: 0x0, symName: '__ZN4core6option15Option$LT$T$GT$6expect17haccb18ddfec991a1E', symObjAddr: 0x55C, symBinAddr: 0x61FC, symSize: 0x5C }
  - { offset: 0x35EA0, size: 0x8, addend: 0x0, symName: '__ZN4core6option15Option$LT$T$GT$6insert17h0226bbf300389c9eE', symObjAddr: 0x5B8, symBinAddr: 0x6258, symSize: 0xA8 }
  - { offset: 0x35FB3, size: 0x8, addend: 0x0, symName: '__ZN4core6option15Option$LT$T$GT$6insert17h754ace3c2f742675E', symObjAddr: 0x660, symBinAddr: 0x6300, symSize: 0xA8 }
  - { offset: 0x360B9, size: 0x8, addend: 0x0, symName: '__ZN4core6option15Option$LT$T$GT$6insert17hcc64721559e4c2deE', symObjAddr: 0x708, symBinAddr: 0x63A8, symSize: 0xA8 }
  - { offset: 0x3615C, size: 0x8, addend: 0x0, symName: '__ZN4core6option15Option$LT$T$GT$7is_some17h697a92959aece9bfE', symObjAddr: 0x7B0, symBinAddr: 0x6450, symSize: 0x28 }
  - { offset: 0x36195, size: 0x8, addend: 0x0, symName: '__ZN4core6option15Option$LT$T$GT$7replace17h99127a035d462929E', symObjAddr: 0x7D8, symBinAddr: 0x6478, symSize: 0x28 }
  - { offset: 0x3629B, size: 0x8, addend: 0x0, symName: '__ZN4core6option15Option$LT$T$GT$8as_deref17hd555266cd268f69fE', symObjAddr: 0x800, symBinAddr: 0x64A0, symSize: 0x6C }
  - { offset: 0x36380, size: 0x8, addend: 0x0, symName: __ZN4core5alloc6layout6Layout25from_size_align_unchecked18precondition_check17hc3316befbe6b6284E, symObjAddr: 0x0, symBinAddr: 0x650C, symSize: 0x70 }
  - { offset: 0x363A6, size: 0x8, addend: 0x0, symName: __ZN4core5alloc6layout6Layout25from_size_align_unchecked18precondition_check17hc3316befbe6b6284E, symObjAddr: 0x0, symBinAddr: 0x650C, symSize: 0x70 }
  - { offset: 0x36451, size: 0x8, addend: 0x0, symName: '__ZN153_$LT$core..result..Result$LT$T$C$F$GT$$u20$as$u20$core..ops..try_trait..FromResidual$LT$core..result..Result$LT$core..convert..Infallible$C$E$GT$$GT$$GT$13from_residual17h07736d07925f9b45E', symObjAddr: 0x0, symBinAddr: 0x657C, symSize: 0x6C }
  - { offset: 0x37A66, size: 0x8, addend: 0x0, symName: '__ZN153_$LT$core..result..Result$LT$T$C$F$GT$$u20$as$u20$core..ops..try_trait..FromResidual$LT$core..result..Result$LT$core..convert..Infallible$C$E$GT$$GT$$GT$13from_residual17h07736d07925f9b45E', symObjAddr: 0x0, symBinAddr: 0x657C, symSize: 0x6C }
  - { offset: 0x37AEC, size: 0x8, addend: 0x0, symName: '__ZN153_$LT$core..result..Result$LT$T$C$F$GT$$u20$as$u20$core..ops..try_trait..FromResidual$LT$core..result..Result$LT$core..convert..Infallible$C$E$GT$$GT$$GT$13from_residual17h0b356e7956c8dba9E', symObjAddr: 0x6C, symBinAddr: 0x65E8, symSize: 0x4C }
  - { offset: 0x37B53, size: 0x8, addend: 0x0, symName: '__ZN153_$LT$core..result..Result$LT$T$C$F$GT$$u20$as$u20$core..ops..try_trait..FromResidual$LT$core..result..Result$LT$core..convert..Infallible$C$E$GT$$GT$$GT$13from_residual17h2a3bf9b5e477b2dcE', symObjAddr: 0xB8, symBinAddr: 0x6634, symSize: 0x4C }
  - { offset: 0x37BBA, size: 0x8, addend: 0x0, symName: '__ZN153_$LT$core..result..Result$LT$T$C$F$GT$$u20$as$u20$core..ops..try_trait..FromResidual$LT$core..result..Result$LT$core..convert..Infallible$C$E$GT$$GT$$GT$13from_residual17h780072b7b9fc7f85E', symObjAddr: 0x104, symBinAddr: 0x6680, symSize: 0x6C }
  - { offset: 0x37C21, size: 0x8, addend: 0x0, symName: '__ZN153_$LT$core..result..Result$LT$T$C$F$GT$$u20$as$u20$core..ops..try_trait..FromResidual$LT$core..result..Result$LT$core..convert..Infallible$C$E$GT$$GT$$GT$13from_residual17h9079bf7d74e74f94E', symObjAddr: 0x170, symBinAddr: 0x66EC, symSize: 0x4C }
  - { offset: 0x37C88, size: 0x8, addend: 0x0, symName: '__ZN153_$LT$core..result..Result$LT$T$C$F$GT$$u20$as$u20$core..ops..try_trait..FromResidual$LT$core..result..Result$LT$core..convert..Infallible$C$E$GT$$GT$$GT$13from_residual17h96d519eb513b8dceE', symObjAddr: 0x1BC, symBinAddr: 0x6738, symSize: 0x6C }
  - { offset: 0x37D0E, size: 0x8, addend: 0x0, symName: '__ZN153_$LT$core..result..Result$LT$T$C$F$GT$$u20$as$u20$core..ops..try_trait..FromResidual$LT$core..result..Result$LT$core..convert..Infallible$C$E$GT$$GT$$GT$13from_residual17h9dee59963589a896E', symObjAddr: 0x228, symBinAddr: 0x67A4, symSize: 0x6C }
  - { offset: 0x37D94, size: 0x8, addend: 0x0, symName: '__ZN153_$LT$core..result..Result$LT$T$C$F$GT$$u20$as$u20$core..ops..try_trait..FromResidual$LT$core..result..Result$LT$core..convert..Infallible$C$E$GT$$GT$$GT$13from_residual17hacb38be4c3951d75E', symObjAddr: 0x294, symBinAddr: 0x6810, symSize: 0x4C }
  - { offset: 0x37DFB, size: 0x8, addend: 0x0, symName: '__ZN153_$LT$core..result..Result$LT$T$C$F$GT$$u20$as$u20$core..ops..try_trait..FromResidual$LT$core..result..Result$LT$core..convert..Infallible$C$E$GT$$GT$$GT$13from_residual17hf77e1cbddb4b23e2E', symObjAddr: 0x2E0, symBinAddr: 0x685C, symSize: 0x6C }
  - { offset: 0x37E62, size: 0x8, addend: 0x0, symName: '__ZN153_$LT$core..result..Result$LT$T$C$F$GT$$u20$as$u20$core..ops..try_trait..FromResidual$LT$core..result..Result$LT$core..convert..Infallible$C$E$GT$$GT$$GT$13from_residual17hfbc2fd708b0d6c07E', symObjAddr: 0x34C, symBinAddr: 0x68C8, symSize: 0x6C }
  - { offset: 0x38ACC, size: 0x8, addend: 0x0, symName: '__ZN79_$LT$core..result..Result$LT$T$C$E$GT$$u20$as$u20$core..ops..try_trait..Try$GT$6branch17h0624293ec772602cE', symObjAddr: 0x8F8, symBinAddr: 0x6E74, symSize: 0xA0 }
  - { offset: 0x38B49, size: 0x8, addend: 0x0, symName: '__ZN79_$LT$core..result..Result$LT$T$C$E$GT$$u20$as$u20$core..ops..try_trait..Try$GT$6branch17h16a81b96be3162caE', symObjAddr: 0x998, symBinAddr: 0x6F14, symSize: 0x44 }
  - { offset: 0x38BC5, size: 0x8, addend: 0x0, symName: '__ZN79_$LT$core..result..Result$LT$T$C$E$GT$$u20$as$u20$core..ops..try_trait..Try$GT$6branch17h3391d787cd4d35c5E', symObjAddr: 0x9DC, symBinAddr: 0x6F58, symSize: 0x68 }
  - { offset: 0x38C42, size: 0x8, addend: 0x0, symName: '__ZN79_$LT$core..result..Result$LT$T$C$E$GT$$u20$as$u20$core..ops..try_trait..Try$GT$6branch17h471dd2ff43a3b63bE', symObjAddr: 0xA44, symBinAddr: 0x6FC0, symSize: 0x90 }
  - { offset: 0x38CBF, size: 0x8, addend: 0x0, symName: '__ZN79_$LT$core..result..Result$LT$T$C$E$GT$$u20$as$u20$core..ops..try_trait..Try$GT$6branch17h5d066d381736578bE', symObjAddr: 0xAD4, symBinAddr: 0x7050, symSize: 0xA0 }
  - { offset: 0x38D3C, size: 0x8, addend: 0x0, symName: '__ZN79_$LT$core..result..Result$LT$T$C$E$GT$$u20$as$u20$core..ops..try_trait..Try$GT$6branch17h5e62ffbf2e3f515eE', symObjAddr: 0xB74, symBinAddr: 0x70F0, symSize: 0x44 }
  - { offset: 0x38DB8, size: 0x8, addend: 0x0, symName: '__ZN79_$LT$core..result..Result$LT$T$C$E$GT$$u20$as$u20$core..ops..try_trait..Try$GT$6branch17h65789b89f28ff4f8E', symObjAddr: 0xBB8, symBinAddr: 0x7134, symSize: 0x68 }
  - { offset: 0x38E35, size: 0x8, addend: 0x0, symName: '__ZN79_$LT$core..result..Result$LT$T$C$E$GT$$u20$as$u20$core..ops..try_trait..Try$GT$6branch17h8706822438f48b5fE', symObjAddr: 0xC20, symBinAddr: 0x719C, symSize: 0xA0 }
  - { offset: 0x38EB2, size: 0x8, addend: 0x0, symName: '__ZN79_$LT$core..result..Result$LT$T$C$E$GT$$u20$as$u20$core..ops..try_trait..Try$GT$6branch17h8ca86f30c72667afE', symObjAddr: 0xCC0, symBinAddr: 0x723C, symSize: 0xA0 }
  - { offset: 0x38F2F, size: 0x8, addend: 0x0, symName: '__ZN79_$LT$core..result..Result$LT$T$C$E$GT$$u20$as$u20$core..ops..try_trait..Try$GT$6branch17h9113a5c4a02ff4b9E', symObjAddr: 0xD60, symBinAddr: 0x72DC, symSize: 0x44 }
  - { offset: 0x38FAB, size: 0x8, addend: 0x0, symName: '__ZN79_$LT$core..result..Result$LT$T$C$E$GT$$u20$as$u20$core..ops..try_trait..Try$GT$6branch17hcb65f1432671652aE', symObjAddr: 0xDA4, symBinAddr: 0x7320, symSize: 0x44 }
  - { offset: 0x39027, size: 0x8, addend: 0x0, symName: '__ZN79_$LT$core..result..Result$LT$T$C$E$GT$$u20$as$u20$core..ops..try_trait..Try$GT$6branch17hdb0ecc205f81f61fE', symObjAddr: 0xDE8, symBinAddr: 0x7364, symSize: 0xA0 }
  - { offset: 0x390A4, size: 0x8, addend: 0x0, symName: '__ZN79_$LT$core..result..Result$LT$T$C$E$GT$$u20$as$u20$core..ops..try_trait..Try$GT$6branch17he51aef3760c3009fE', symObjAddr: 0xE88, symBinAddr: 0x7404, symSize: 0xA0 }
  - { offset: 0x39121, size: 0x8, addend: 0x0, symName: '__ZN79_$LT$core..result..Result$LT$T$C$E$GT$$u20$as$u20$core..ops..try_trait..Try$GT$6branch17he8adffa92b2f6cdcE', symObjAddr: 0xF28, symBinAddr: 0x74A4, symSize: 0xA0 }
  - { offset: 0x3919E, size: 0x8, addend: 0x0, symName: '__ZN79_$LT$core..result..Result$LT$T$C$E$GT$$u20$as$u20$core..ops..try_trait..Try$GT$6branch17hea227e349b2dae05E', symObjAddr: 0xFC8, symBinAddr: 0x7544, symSize: 0xCC }
  - { offset: 0x3921D, size: 0x8, addend: 0x0, symName: '__ZN79_$LT$core..result..Result$LT$T$C$E$GT$$u20$as$u20$core..ops..try_trait..Try$GT$6branch17heffff12a049c966dE', symObjAddr: 0x1094, symBinAddr: 0x7610, symSize: 0xB4 }
  - { offset: 0x3B321, size: 0x8, addend: 0x0, symName: '__ZN4core6result19Result$LT$T$C$E$GT$14unwrap_or_else17ha0300bd150efb870E', symObjAddr: 0x3B8, symBinAddr: 0x6934, symSize: 0x70 }
  - { offset: 0x3B49B, size: 0x8, addend: 0x0, symName: '__ZN4core6result19Result$LT$T$C$E$GT$14unwrap_or_else17hb21ddc7a3f003b7cE', symObjAddr: 0x428, symBinAddr: 0x69A4, symSize: 0x8C }
  - { offset: 0x3B507, size: 0x8, addend: 0x0, symName: '__ZN4core6result19Result$LT$T$C$E$GT$14unwrap_or_else17hf3f9f3e62d70e3deE', symObjAddr: 0x4B4, symBinAddr: 0x6A30, symSize: 0x8C }
  - { offset: 0x3B946, size: 0x8, addend: 0x0, symName: '__ZN4core6result19Result$LT$T$C$E$GT$3map17h2771feab9f5e970fE', symObjAddr: 0x540, symBinAddr: 0x6ABC, symSize: 0x4C }
  - { offset: 0x3B9D8, size: 0x8, addend: 0x0, symName: '__ZN4core6result19Result$LT$T$C$E$GT$3map17h49848e063f1ab412E', symObjAddr: 0x58C, symBinAddr: 0x6B08, symSize: 0x90 }
  - { offset: 0x3BA92, size: 0x8, addend: 0x0, symName: '__ZN4core6result19Result$LT$T$C$E$GT$3map17h4c0eb879e3312fcbE', symObjAddr: 0x61C, symBinAddr: 0x6B98, symSize: 0x4C }
  - { offset: 0x3BB3C, size: 0x8, addend: 0x0, symName: '__ZN4core6result19Result$LT$T$C$E$GT$3map17h72cfcbbf73c63d67E', symObjAddr: 0x668, symBinAddr: 0x6BE4, symSize: 0x90 }
  - { offset: 0x3BBCF, size: 0x8, addend: 0x0, symName: '__ZN4core6result19Result$LT$T$C$E$GT$3map17hd05d759d2e20c6d4E', symObjAddr: 0x6F8, symBinAddr: 0x6C74, symSize: 0x4C }
  - { offset: 0x3BC61, size: 0x8, addend: 0x0, symName: '__ZN4core6result19Result$LT$T$C$E$GT$3map17hd1ff2f7939b6b273E', symObjAddr: 0x744, symBinAddr: 0x6CC0, symSize: 0x90 }
  - { offset: 0x3BCF4, size: 0x8, addend: 0x0, symName: '__ZN4core6result19Result$LT$T$C$E$GT$3map17he616499b17f34d0fE', symObjAddr: 0x7D4, symBinAddr: 0x6D50, symSize: 0x4C }
  - { offset: 0x3BD9E, size: 0x8, addend: 0x0, symName: '__ZN4core6result19Result$LT$T$C$E$GT$3map17hfbdba9063c992759E', symObjAddr: 0x820, symBinAddr: 0x6D9C, symSize: 0x38 }
  - { offset: 0x3BE4B, size: 0x8, addend: 0x0, symName: '__ZN4core6result19Result$LT$T$C$E$GT$6is_err17hcf21e09490256eb5E', symObjAddr: 0x858, symBinAddr: 0x6DD4, symSize: 0x20 }
  - { offset: 0x3BEB6, size: 0x8, addend: 0x0, symName: '__ZN4core6result19Result$LT$T$C$E$GT$7map_err17h446728f89cfd4172E', symObjAddr: 0x878, symBinAddr: 0x6DF4, symSize: 0x20 }
  - { offset: 0x3BF2C, size: 0x8, addend: 0x0, symName: '__ZN4core6result19Result$LT$T$C$E$GT$7map_err17hc1810bd673279119E', symObjAddr: 0x898, symBinAddr: 0x6E14, symSize: 0x30 }
  - { offset: 0x3BFA2, size: 0x8, addend: 0x0, symName: '__ZN4core6result19Result$LT$T$C$E$GT$7map_err17hf884ff4bca6e7fb7E', symObjAddr: 0x8C8, symBinAddr: 0x6E44, symSize: 0x30 }
  - { offset: 0x3C0BC, size: 0x8, addend: 0x0, symName: '__ZN5_core5_core11__pyo3_init28_$u7b$$u7b$closure$u7d$$u7d$17ha22258a81853522bE', symObjAddr: 0x0, symBinAddr: 0x76C4, symSize: 0x30 }
  - { offset: 0x3D505, size: 0x8, addend: 0x0, symName: '__ZN5_core5_core11__pyo3_init28_$u7b$$u7b$closure$u7d$$u7d$17ha22258a81853522bE', symObjAddr: 0x0, symBinAddr: 0x76C4, symSize: 0x30 }
  - { offset: 0x3DDEC, size: 0x8, addend: 0x0, symName: '__ZN4pyo35impl_4wrap82EmptyTupleConverter$LT$core..result..Result$LT$$LP$$RP$$C$pyo3..err..PyErr$GT$$GT$12map_into_ptr17hdc86e7a8489e04a8E', symObjAddr: 0x0, symBinAddr: 0x76F4, symSize: 0x44 }
  - { offset: 0x3FBA0, size: 0x8, addend: 0x0, symName: '__ZN4pyo35impl_4wrap82EmptyTupleConverter$LT$core..result..Result$LT$$LP$$RP$$C$pyo3..err..PyErr$GT$$GT$12map_into_ptr17hdc86e7a8489e04a8E', symObjAddr: 0x0, symBinAddr: 0x76F4, symSize: 0x44 }
  - { offset: 0x3FC08, size: 0x8, addend: 0x0, symName: '__ZN104_$LT$core..iter..adapters..copied..Copied$LT$I$GT$$u20$as$u20$core..iter..traits..iterator..Iterator$GT$4next17hee140e3ecb377355E', symObjAddr: 0x0, symBinAddr: 0x7738, symSize: 0x5C }
  - { offset: 0x40EB9, size: 0x8, addend: 0x0, symName: '__ZN104_$LT$core..iter..adapters..copied..Copied$LT$I$GT$$u20$as$u20$core..iter..traits..iterator..Iterator$GT$4next17hee140e3ecb377355E', symObjAddr: 0x0, symBinAddr: 0x7738, symSize: 0x5C }
  - { offset: 0x40F5E, size: 0x8, addend: 0x0, symName: '__ZN63_$LT$I$u20$as$u20$core..iter..traits..collect..IntoIterator$GT$9into_iter17h1048ae9ce6624359E', symObjAddr: 0x5C, symBinAddr: 0x7794, symSize: 0x1C }
  - { offset: 0x415FC, size: 0x8, addend: 0x0, symName: '__ZN193_$LT$$LT$_core..Position$u20$as$u20$pyo3..impl_..pyclass..PyClassImpl$GT$..items_iter..INTRINSIC_ITEMS..Offset$u20$as$u20$pyo3..impl_..pyclass..OffsetCalculator$LT$_core..Position$C$f64$GT$$GT$6offset17h433dd4e3b982f517E', symObjAddr: 0x0, symBinAddr: 0x77B0, symSize: 0x40 }
  - { offset: 0x41625, size: 0x8, addend: 0x0, symName: '__ZN5_core160_$LT$impl$u20$pyo3..impl_..pyclass..PyMethods$LT$_core..RustPortfolio$GT$$u20$for$u20$pyo3..impl_..pyclass..PyClassImplCollector$LT$_core..RustPortfolio$GT$$GT$10py_methods5ITEMS17h306c236aef8d031eE', symObjAddr: 0x3198, symBinAddr: 0xAC6C0, symSize: 0x0 }
  - { offset: 0x41637, size: 0x8, addend: 0x0, symName: '__ZN5_core160_$LT$impl$u20$pyo3..impl_..pyclass..PyMethods$LT$_core..RustPortfolio$GT$$u20$for$u20$pyo3..impl_..pyclass..PyClassImplCollector$LT$_core..RustPortfolio$GT$$GT$10py_methods5ITEMS10trampoline17h4f63e3ff6a138a99E', symObjAddr: 0x17D8, symBinAddr: 0x8F88, symSize: 0x4C }
  - { offset: 0x4167F, size: 0x8, addend: 0x0, symName: '__ZN5_core160_$LT$impl$u20$pyo3..impl_..pyclass..PyMethods$LT$_core..RustPortfolio$GT$$u20$for$u20$pyo3..impl_..pyclass..PyClassImplCollector$LT$_core..RustPortfolio$GT$$GT$10py_methods5ITEMS10trampoline17h8920eb6522ac85f1E', symObjAddr: 0x1824, symBinAddr: 0x8FD4, symSize: 0x50 }
  - { offset: 0x416D5, size: 0x8, addend: 0x0, symName: '__ZN5_core160_$LT$impl$u20$pyo3..impl_..pyclass..PyMethods$LT$_core..RustPortfolio$GT$$u20$for$u20$pyo3..impl_..pyclass..PyClassImplCollector$LT$_core..RustPortfolio$GT$$GT$10py_methods5ITEMS10trampoline17hff0da5c775ee6f49E', symObjAddr: 0x1874, symBinAddr: 0x9024, symSize: 0x50 }
  - { offset: 0x41745, size: 0x8, addend: 0x0, symName: '__ZN69_$LT$_core..Position$u20$as$u20$pyo3..impl_..pyclass..PyClassImpl$GT$10items_iter15INTRINSIC_ITEMS17h6a40c4684953bd7bE', symObjAddr: 0x3480, symBinAddr: 0xAC9A8, symSize: 0x0 }
  - { offset: 0x4175C, size: 0x8, addend: 0x0, symName: '__ZN193_$LT$$LT$_core..Position$u20$as$u20$pyo3..impl_..pyclass..PyClassImpl$GT$..items_iter..INTRINSIC_ITEMS..Offset$u20$as$u20$pyo3..impl_..pyclass..OffsetCalculator$LT$_core..Position$C$f64$GT$$GT$6offset17h433dd4e3b982f517E', symObjAddr: 0x0, symBinAddr: 0x77B0, symSize: 0x40 }
  - { offset: 0x4177F, size: 0x8, addend: 0x0, symName: '__ZN193_$LT$$LT$_core..Position$u20$as$u20$pyo3..impl_..pyclass..PyClassImpl$GT$..items_iter..INTRINSIC_ITEMS..Offset$u20$as$u20$pyo3..impl_..pyclass..OffsetCalculator$LT$_core..Position$C$f64$GT$$GT$6offset17h62b9aa1468c0abadE', symObjAddr: 0x40, symBinAddr: 0x77F0, symSize: 0x40 }
  - { offset: 0x417A2, size: 0x8, addend: 0x0, symName: '__ZN193_$LT$$LT$_core..Position$u20$as$u20$pyo3..impl_..pyclass..PyClassImpl$GT$..items_iter..INTRINSIC_ITEMS..Offset$u20$as$u20$pyo3..impl_..pyclass..OffsetCalculator$LT$_core..Position$C$f64$GT$$GT$6offset17hcda68e2219603b80E', symObjAddr: 0x80, symBinAddr: 0x7830, symSize: 0x40 }
  - { offset: 0x417C5, size: 0x8, addend: 0x0, symName: '__ZN211_$LT$$LT$_core..Position$u20$as$u20$pyo3..impl_..pyclass..PyClassImpl$GT$..items_iter..INTRINSIC_ITEMS..Offset$u20$as$u20$pyo3..impl_..pyclass..OffsetCalculator$LT$_core..Position$C$alloc..string..String$GT$$GT$6offset17h3a0d0f9fd5749bfbE', symObjAddr: 0x100, symBinAddr: 0x78B0, symSize: 0x40 }
  - { offset: 0x417E8, size: 0x8, addend: 0x0, symName: '__ZN211_$LT$$LT$_core..Position$u20$as$u20$pyo3..impl_..pyclass..PyClassImpl$GT$..items_iter..INTRINSIC_ITEMS..Offset$u20$as$u20$pyo3..impl_..pyclass..OffsetCalculator$LT$_core..Position$C$alloc..string..String$GT$$GT$6offset17hf6bbd9ce18321865E', symObjAddr: 0x140, symBinAddr: 0x78F0, symSize: 0x40 }
  - { offset: 0x4181A, size: 0x8, addend: 0x0, symName: '__ZN69_$LT$_core..Position$u20$as$u20$pyo3..impl_..pyclass..PyClassImpl$GT$16lazy_type_object11TYPE_OBJECT17he935162cfbaffb41E', symObjAddr: 0x3590, symBinAddr: 0xB43A0, symSize: 0x0 }
  - { offset: 0x41828, size: 0x8, addend: 0x0, symName: '__ZN69_$LT$_core..Position$u20$as$u20$pyo3..impl_..pyclass..PyClassImpl$GT$10items_iter17h82c5759b7c8b2aa4E', symObjAddr: 0x2838, symBinAddr: 0x9FE8, symSize: 0x3C }
  - { offset: 0x41863, size: 0x8, addend: 0x0, symName: '__ZN69_$LT$_core..Position$u20$as$u20$pyo3..impl_..pyclass..PyClassImpl$GT$16lazy_type_object17h9e2c9b4c6a4ee994E', symObjAddr: 0x2874, symBinAddr: 0xA024, symSize: 0xC }
  - { offset: 0x41978, size: 0x8, addend: 0x0, symName: '__ZN74_$LT$_core..RustPortfolio$u20$as$u20$pyo3..impl_..pyclass..PyClassImpl$GT$10items_iter15INTRINSIC_ITEMS17hbee0f25b75a2af9fE', symObjAddr: 0x34E0, symBinAddr: 0xACA08, symSize: 0x0 }
  - { offset: 0x4198F, size: 0x8, addend: 0x0, symName: '__ZN203_$LT$$LT$_core..RustPortfolio$u20$as$u20$pyo3..impl_..pyclass..PyClassImpl$GT$..items_iter..INTRINSIC_ITEMS..Offset$u20$as$u20$pyo3..impl_..pyclass..OffsetCalculator$LT$_core..RustPortfolio$C$f64$GT$$GT$6offset17h3ceb4a4340ceec8bE', symObjAddr: 0xC0, symBinAddr: 0x7870, symSize: 0x40 }
  - { offset: 0x419C1, size: 0x8, addend: 0x0, symName: '__ZN74_$LT$_core..RustPortfolio$u20$as$u20$pyo3..impl_..pyclass..PyClassImpl$GT$16lazy_type_object11TYPE_OBJECT17h39ba14fbabded8e8E', symObjAddr: 0x35F8, symBinAddr: 0xB4408, symSize: 0x0 }
  - { offset: 0x419CF, size: 0x8, addend: 0x0, symName: '__ZN74_$LT$_core..RustPortfolio$u20$as$u20$pyo3..impl_..pyclass..PyClassImpl$GT$10items_iter17h27b01094a84ea385E', symObjAddr: 0x28C0, symBinAddr: 0xA070, symSize: 0x38 }
  - { offset: 0x41A0A, size: 0x8, addend: 0x0, symName: '__ZN74_$LT$_core..RustPortfolio$u20$as$u20$pyo3..impl_..pyclass..PyClassImpl$GT$16lazy_type_object17h9d7353d1ef8aa875E', symObjAddr: 0x28F8, symBinAddr: 0xA0A8, symSize: 0xC }
  - { offset: 0x41B87, size: 0x8, addend: 0x0, symName: '__ZN5_core39_$LT$impl$u20$_core.._core..MakeDef$GT$8make_def15__pyo3_pymodule17hed6d3ebbf7f087b9E', symObjAddr: 0x18C4, symBinAddr: 0x9074, symSize: 0x38 }
  - { offset: 0x41BB5, size: 0x8, addend: 0x0, symName: __ZN5_core5_core17h5fa388639b51c6e1E, symObjAddr: 0x18FC, symBinAddr: 0x90AC, symSize: 0x120 }
  - { offset: 0x41C23, size: 0x8, addend: 0x0, symName: '__ZN65_$LT$_core..Position$u20$as$u20$pyo3..type_object..PyTypeInfo$GT$15type_object_raw17hefa5ae611b74a4b5E', symObjAddr: 0x27F8, symBinAddr: 0x9FA8, symSize: 0x40 }
  - { offset: 0x41C60, size: 0x8, addend: 0x0, symName: '__ZN70_$LT$_core..RustPortfolio$u20$as$u20$pyo3..type_object..PyTypeInfo$GT$15type_object_raw17h625d23cccb9355b9E', symObjAddr: 0x2880, symBinAddr: 0xA030, symSize: 0x40 }
  - { offset: 0x44DE0, size: 0x8, addend: 0x0, symName: __ZN5_core13RustPortfolio10apply_fill17h32de3c58c66c3936E, symObjAddr: 0x180, symBinAddr: 0x7930, symSize: 0x2D8 }
  - { offset: 0x44EAB, size: 0x8, addend: 0x0, symName: __ZN5_core13RustPortfolio13update_prices17h480d8e409fcb3cf5E, symObjAddr: 0x458, symBinAddr: 0x7C08, symSize: 0x40 }
  - { offset: 0x44EF7, size: 0x8, addend: 0x0, symName: __ZN5_core13RustPortfolio14position_count17h70793972446af0feE, symObjAddr: 0x498, symBinAddr: 0x7C48, symSize: 0x24 }
  - { offset: 0x44F19, size: 0x8, addend: 0x0, symName: __ZN5_core13RustPortfolio20__pymethod___new____17h077e423590742183E, symObjAddr: 0x4BC, symBinAddr: 0x7C6C, symSize: 0x2FC }
  - { offset: 0x45089, size: 0x8, addend: 0x0, symName: __ZN5_core13RustPortfolio23__pymethod_apply_fill__17h495d51527efecdc4E, symObjAddr: 0x7B8, symBinAddr: 0x7F68, symSize: 0x8BC }
  - { offset: 0x4534E, size: 0x8, addend: 0x0, symName: __ZN5_core13RustPortfolio26__pymethod_update_prices__17h8ba59cc5791891c6E, symObjAddr: 0x1074, symBinAddr: 0x8824, symSize: 0x4EC }
  - { offset: 0x45543, size: 0x8, addend: 0x0, symName: __ZN5_core13RustPortfolio31__pymethod_get_position_count__17he0e4565ec62ab3daE, symObjAddr: 0x1560, symBinAddr: 0x8D10, symSize: 0x134 }
  - { offset: 0x455D1, size: 0x8, addend: 0x0, symName: __ZN5_core13RustPortfolio3new17hc0ff9f576963db55E, symObjAddr: 0x1694, symBinAddr: 0x8E44, symSize: 0x144 }
  - { offset: 0x455F3, size: 0x8, addend: 0x0, symName: __ZN5_core8Position23__pymethod_set_symbol__17h7d239285f2268fe5E, symObjAddr: 0x1A1C, symBinAddr: 0x91CC, symSize: 0x374 }
  - { offset: 0x45726, size: 0x8, addend: 0x0, symName: __ZN5_core8Position25__pymethod_set_avg_cost__17h5e7aecb1f5e70c5eE, symObjAddr: 0x1D90, symBinAddr: 0x9540, symSize: 0x250 }
  - { offset: 0x45833, size: 0x8, addend: 0x0, symName: __ZN5_core8Position25__pymethod_set_quantity__17h82915b6f1113a3baE, symObjAddr: 0x1FE0, symBinAddr: 0x9790, symSize: 0x250 }
  - { offset: 0x45940, size: 0x8, addend: 0x0, symName: __ZN5_core8Position27__pymethod_set_multiplier__17h16d263b6554d5ff6E, symObjAddr: 0x2230, symBinAddr: 0x99E0, symSize: 0x250 }
  - { offset: 0x45A4D, size: 0x8, addend: 0x0, symName: __ZN5_core8Position28__pymethod_set_asset_class__17h519c929ac1d826f7E, symObjAddr: 0x2480, symBinAddr: 0x9C30, symSize: 0x378 }
  - { offset: 0x45CA2, size: 0x8, addend: 0x0, symName: __ZN4pyo37pyclass18create_type_object18create_type_object17h75fb3884161fa9bbE, symObjAddr: 0x0, symBinAddr: 0xA0B4, symSize: 0xEC }
  - { offset: 0x472CC, size: 0x8, addend: 0x0, symName: __ZN4pyo37pyclass18create_type_object18create_type_object17h75fb3884161fa9bbE, symObjAddr: 0x0, symBinAddr: 0xA0B4, symSize: 0xEC }
  - { offset: 0x4730C, size: 0x8, addend: 0x0, symName: __ZN4pyo37pyclass18create_type_object18create_type_object17h8e2937ab008a8012E, symObjAddr: 0xEC, symBinAddr: 0xA1A0, symSize: 0xF0 }
  - { offset: 0x4825A, size: 0x8, addend: 0x0, symName: __ZN4core4iter6traits8iterator8Iterator6copied17h557fdb2993d99669E, symObjAddr: 0x0, symBinAddr: 0xA290, symSize: 0x1C }
  - { offset: 0x48A8F, size: 0x8, addend: 0x0, symName: __ZN4core4iter6traits8iterator8Iterator6copied17h557fdb2993d99669E, symObjAddr: 0x0, symBinAddr: 0xA290, symSize: 0x1C }
  - { offset: 0x4980F, size: 0x8, addend: 0x0, symName: '__ZN91_$LT$core..slice..iter..Iter$LT$T$GT$$u20$as$u20$core..iter..traits..iterator..Iterator$GT$4next17h11c75a12a156b8c1E', symObjAddr: 0x6C, symBinAddr: 0xA2FC, symSize: 0x84 }
  - { offset: 0x49914, size: 0x8, addend: 0x0, symName: '__ZN91_$LT$core..slice..iter..Iter$LT$T$GT$$u20$as$u20$core..iter..traits..iterator..Iterator$GT$8position17h992edf5ab6db02b3E', symObjAddr: 0xF0, symBinAddr: 0xA380, symSize: 0x194 }
  - { offset: 0x49AA1, size: 0x8, addend: 0x0, symName: '__ZN91_$LT$core..slice..iter..Iter$LT$T$GT$$u20$as$u20$core..iter..traits..iterator..Iterator$GT$8position17hfd5639961c57512aE', symObjAddr: 0x284, symBinAddr: 0xA514, symSize: 0x194 }
  - { offset: 0x4A3F0, size: 0x8, addend: 0x0, symName: '__ZN4core5slice4iter13Iter$LT$T$GT$3new17h3a1571366c4162c2E', symObjAddr: 0x1C, symBinAddr: 0xA2AC, symSize: 0x50 }
  - { offset: 0x4A613, size: 0x8, addend: 0x0, symName: _PyInit__core, symObjAddr: 0x0, symBinAddr: 0xA6A8, symSize: 0x34 }
  - { offset: 0x4A637, size: 0x8, addend: 0x0, symName: __ZN5_core5_core9_PYO3_DEF17hf427e014662ac5bbE, symObjAddr: 0xB0, symBinAddr: 0xB4470, symSize: 0x0 }
  - { offset: 0x4A644, size: 0x8, addend: 0x0, symName: _PyInit__core, symObjAddr: 0x0, symBinAddr: 0xA6A8, symSize: 0x34 }
  - { offset: 0x4CA50, size: 0x8, addend: 0x0, symName: '__ZN4core3ptr9const_ptr33_$LT$impl$u20$$BP$const$u20$T$GT$6offset18precondition_check17hac46caeae93fc51aE', symObjAddr: 0x0, symBinAddr: 0xA6DC, symSize: 0xC4 }
  - { offset: 0x4CB06, size: 0x8, addend: 0x0, symName: '__ZN4core3ptr9const_ptr33_$LT$impl$u20$$BP$const$u20$T$GT$6offset18precondition_check17hac46caeae93fc51aE', symObjAddr: 0x0, symBinAddr: 0xA6DC, symSize: 0xC4 }
  - { offset: 0x4CEED, size: 0x8, addend: 0x0, symName: '__ZN102_$LT$core..iter..adapters..zip..Zip$LT$A$C$B$GT$$u20$as$u20$core..iter..traits..iterator..Iterator$GT$4next17h08ae4813fa773998E', symObjAddr: 0x0, symBinAddr: 0xA7A0, symSize: 0x24 }
  - { offset: 0x4D722, size: 0x8, addend: 0x0, symName: '__ZN102_$LT$core..iter..adapters..zip..Zip$LT$A$C$B$GT$$u20$as$u20$core..iter..traits..iterator..Iterator$GT$4next17h08ae4813fa773998E', symObjAddr: 0x0, symBinAddr: 0xA7A0, symSize: 0x24 }
  - { offset: 0x4D766, size: 0x8, addend: 0x0, symName: '__ZN111_$LT$core..iter..adapters..zip..Zip$LT$A$C$B$GT$$u20$as$u20$core..iter..adapters..zip..ZipImpl$LT$A$C$B$GT$$GT$3new17he104f8c0f96f32e4E', symObjAddr: 0x24, symBinAddr: 0xA7C4, symSize: 0x3C }
  - { offset: 0x4D7B2, size: 0x8, addend: 0x0, symName: '__ZN111_$LT$core..iter..adapters..zip..Zip$LT$A$C$B$GT$$u20$as$u20$core..iter..adapters..zip..ZipImpl$LT$A$C$B$GT$$GT$4next17h7886167de9584bdfE', symObjAddr: 0x60, symBinAddr: 0xA800, symSize: 0xE0 }
  - { offset: 0x4D9DF, size: 0x8, addend: 0x0, symName: '__ZN63_$LT$I$u20$as$u20$core..iter..traits..collect..IntoIterator$GT$9into_iter17h332510ef443d30c1E', symObjAddr: 0x140, symBinAddr: 0xA8E0, symSize: 0x30 }
  - { offset: 0x4DA17, size: 0x8, addend: 0x0, symName: '__ZN63_$LT$I$u20$as$u20$core..iter..traits..collect..IntoIterator$GT$9into_iter17heb81186de4456786E', symObjAddr: 0x170, symBinAddr: 0xA910, symSize: 0x30 }
  - { offset: 0x4EE96, size: 0x8, addend: 0x0, symName: '__ZN4core3ops8function6FnOnce40call_once$u7b$$u7b$vtable.shim$u7d$$u7d$17h824a28a263d19decE', symObjAddr: 0x0, symBinAddr: 0xA940, symSize: 0x38 }
  - { offset: 0x4F6E1, size: 0x8, addend: 0x0, symName: '__ZN4core3ops8function6FnOnce40call_once$u7b$$u7b$vtable.shim$u7d$$u7d$17h824a28a263d19decE', symObjAddr: 0x0, symBinAddr: 0xA940, symSize: 0x38 }
  - { offset: 0x4F725, size: 0x8, addend: 0x0, symName: '__ZN4core3ops8function6FnOnce40call_once$u7b$$u7b$vtable.shim$u7d$$u7d$17h910af7aa77532a3bE', symObjAddr: 0x38, symBinAddr: 0xA978, symSize: 0x38 }
  - { offset: 0x4F769, size: 0x8, addend: 0x0, symName: '__ZN4core3ops8function6FnOnce40call_once$u7b$$u7b$vtable.shim$u7d$$u7d$17hb8d97331c0182145E', symObjAddr: 0x70, symBinAddr: 0xA9B0, symSize: 0x38 }
  - { offset: 0x4F7AD, size: 0x8, addend: 0x0, symName: '__ZN4core3ops8function6FnOnce40call_once$u7b$$u7b$vtable.shim$u7d$$u7d$17hb9f7f515f036ed14E', symObjAddr: 0xA8, symBinAddr: 0xA9E8, symSize: 0x38 }
  - { offset: 0x4F7F1, size: 0x8, addend: 0x0, symName: '__ZN4core3ops8function6FnOnce40call_once$u7b$$u7b$vtable.shim$u7d$$u7d$17hbfd998192230333aE', symObjAddr: 0xE0, symBinAddr: 0xAA20, symSize: 0x38 }
  - { offset: 0x4F835, size: 0x8, addend: 0x0, symName: '__ZN4core3ops8function6FnOnce40call_once$u7b$$u7b$vtable.shim$u7d$$u7d$17hd040041b293c7fb6E', symObjAddr: 0x118, symBinAddr: 0xAA58, symSize: 0x30 }
  - { offset: 0x4F879, size: 0x8, addend: 0x0, symName: __ZN4core3ops8function6FnOnce9call_once17h0515b04ffddc51b5E, symObjAddr: 0x148, symBinAddr: 0xAA88, symSize: 0x3C }
  - { offset: 0x4F8BD, size: 0x8, addend: 0x0, symName: __ZN4core3ops8function6FnOnce9call_once17h10b0fb429948f80dE, symObjAddr: 0x184, symBinAddr: 0xAAC4, symSize: 0x58 }
  - { offset: 0x4F901, size: 0x8, addend: 0x0, symName: __ZN4core3ops8function6FnOnce9call_once17h216b0dd0f65bf88aE, symObjAddr: 0x1DC, symBinAddr: 0xAB1C, symSize: 0x3C }
  - { offset: 0x4F945, size: 0x8, addend: 0x0, symName: __ZN4core3ops8function6FnOnce9call_once17h21d95945d69a92d4E, symObjAddr: 0x218, symBinAddr: 0xAB58, symSize: 0x24 }
  - { offset: 0x4F989, size: 0x8, addend: 0x0, symName: __ZN4core3ops8function6FnOnce9call_once17h331f4fab04cfaec7E, symObjAddr: 0x23C, symBinAddr: 0xAB7C, symSize: 0x4C }
  - { offset: 0x4F9CD, size: 0x8, addend: 0x0, symName: __ZN4core3ops8function6FnOnce9call_once17h3f907808a2e747c3E, symObjAddr: 0x288, symBinAddr: 0xABC8, symSize: 0x24 }
  - { offset: 0x4FA11, size: 0x8, addend: 0x0, symName: __ZN4core3ops8function6FnOnce9call_once17h6f5d422c51a51131E, symObjAddr: 0x2AC, symBinAddr: 0xABEC, symSize: 0x44 }
  - { offset: 0x4FA51, size: 0x8, addend: 0x0, symName: __ZN4core3ops8function6FnOnce9call_once17h7018699cb75025dbE, symObjAddr: 0x2F0, symBinAddr: 0xAC30, symSize: 0x3C }
  - { offset: 0x4FA95, size: 0x8, addend: 0x0, symName: __ZN4core3ops8function6FnOnce9call_once17h81ee56d13b24ebbcE, symObjAddr: 0x32C, symBinAddr: 0xAC6C, symSize: 0x58 }
  - { offset: 0x4FAD9, size: 0x8, addend: 0x0, symName: __ZN4core3ops8function6FnOnce9call_once17hab0d7d785b3ac97bE, symObjAddr: 0x3A8, symBinAddr: 0xACC4, symSize: 0x3C }
  - { offset: 0x4FB1D, size: 0x8, addend: 0x0, symName: __ZN4core3ops8function6FnOnce9call_once17hb9ea16fdc61adaf8E, symObjAddr: 0x3E4, symBinAddr: 0xAD00, symSize: 0x5C }
  - { offset: 0x4FB61, size: 0x8, addend: 0x0, symName: __ZN4core3ops8function6FnOnce9call_once17hc7c3cf7f964cca8cE, symObjAddr: 0x440, symBinAddr: 0xAD5C, symSize: 0x44 }
  - { offset: 0x4FBA1, size: 0x8, addend: 0x0, symName: __ZN4core3ops8function6FnOnce9call_once17hd29e6e77496f2c18E, symObjAddr: 0x484, symBinAddr: 0xADA0, symSize: 0x3C }
  - { offset: 0x4FBE5, size: 0x8, addend: 0x0, symName: __ZN4core3ops8function6FnOnce9call_once17hdfd87b4a1b9aa01cE, symObjAddr: 0x4C0, symBinAddr: 0xADDC, symSize: 0x58 }
  - { offset: 0x4FC29, size: 0x8, addend: 0x0, symName: __ZN4core3ops8function6FnOnce9call_once17he4c64ccae5ec2a30E, symObjAddr: 0x518, symBinAddr: 0xAE34, symSize: 0x3C }
  - { offset: 0x4FC6D, size: 0x8, addend: 0x0, symName: __ZN4core3ops8function6FnOnce9call_once17hf2e5420d6cac95e4E, symObjAddr: 0x554, symBinAddr: 0xAE70, symSize: 0x3C }
  - { offset: 0x4FCB1, size: 0x8, addend: 0x0, symName: __ZN4core3ops8function6FnOnce9call_once17hfa40418c672553b3E, symObjAddr: 0x590, symBinAddr: 0xAEAC, symSize: 0x4C }
  - { offset: 0x4FCF5, size: 0x8, addend: 0x0, symName: __ZN4core3ops8function6FnOnce9call_once17hfab9c766a966694bE, symObjAddr: 0x5DC, symBinAddr: 0xAEF8, symSize: 0x5C }
  - { offset: 0x4FD41, size: 0x8, addend: 0x0, symName: '__ZN4core3ptr100drop_in_place$LT$hashbrown..raw..RawTable$LT$$LP$alloc..string..String$C$_core..Position$RP$$GT$$GT$17h173ed2d2d119ff51E', symObjAddr: 0x638, symBinAddr: 0xAF54, symSize: 0x24 }
  - { offset: 0x4FD70, size: 0x8, addend: 0x0, symName: '__ZN4core3ptr102drop_in_place$LT$std..collections..hash..map..Entry$LT$alloc..string..String$C$_core..Position$GT$$GT$17h49f42a17676c4321E', symObjAddr: 0x65C, symBinAddr: 0xAF78, symSize: 0x48 }
  - { offset: 0x4FD9F, size: 0x8, addend: 0x0, symName: '__ZN4core3ptr104drop_in_place$LT$std..collections..hash..map..HashMap$LT$alloc..string..String$C$_core..Position$GT$$GT$17h0999a4363edc6823E', symObjAddr: 0x6EC, symBinAddr: 0xAFC0, symSize: 0x24 }
  - { offset: 0x4FDCE, size: 0x8, addend: 0x0, symName: '__ZN4core3ptr108drop_in_place$LT$hashbrown..rustc_entry..RustcVacantEntry$LT$alloc..string..String$C$_core..Position$GT$$GT$17hb68ac623f0881228E', symObjAddr: 0x710, symBinAddr: 0xAFE4, symSize: 0x24 }
  - { offset: 0x4FDFD, size: 0x8, addend: 0x0, symName: '__ZN4core3ptr108drop_in_place$LT$std..collections..hash..map..VacantEntry$LT$alloc..string..String$C$_core..Position$GT$$GT$17h5bb51a112d3d1ecbE', symObjAddr: 0x734, symBinAddr: 0xB008, symSize: 0x24 }
  - { offset: 0x4FE2C, size: 0x8, addend: 0x0, symName: '__ZN4core3ptr109drop_in_place$LT$core..option..Option$LT$pyo3..pyclass..guard..PyClassGuardMut$LT$_core..Position$GT$$GT$$GT$17h35c3e7d24b05855aE', symObjAddr: 0x7B8, symBinAddr: 0xB02C, symSize: 0x44 }
  - { offset: 0x4FE5B, size: 0x8, addend: 0x0, symName: '__ZN4core3ptr111drop_in_place$LT$core..option..Option$LT$pyo3..pyclass..guard..PyClassGuard$LT$_core..RustPortfolio$GT$$GT$$GT$17h58e44d771d2cfafeE', symObjAddr: 0x820, symBinAddr: 0xB070, symSize: 0x44 }
  - { offset: 0x4FE8A, size: 0x8, addend: 0x0, symName: '__ZN4core3ptr112drop_in_place$LT$hashbrown..map..HashMap$LT$alloc..string..String$C$f64$C$std..hash..random..RandomState$GT$$GT$17hca7517db542b06c4E', symObjAddr: 0x864, symBinAddr: 0xB0B4, symSize: 0x24 }
  - { offset: 0x4FEB9, size: 0x8, addend: 0x0, symName: '__ZN4core3ptr114drop_in_place$LT$core..option..Option$LT$pyo3..pyclass..guard..PyClassGuardMut$LT$_core..RustPortfolio$GT$$GT$$GT$17h955dc8d91234767eE', symObjAddr: 0x888, symBinAddr: 0xB0D8, symSize: 0x44 }
  - { offset: 0x4FEE8, size: 0x8, addend: 0x0, symName: '__ZN4core3ptr124drop_in_place$LT$hashbrown..map..HashMap$LT$alloc..string..String$C$_core..Position$C$std..hash..random..RandomState$GT$$GT$17h0e1dc596cfe9fec6E', symObjAddr: 0x8CC, symBinAddr: 0xB11C, symSize: 0x24 }
  - { offset: 0x4FF17, size: 0x8, addend: 0x0, symName: '__ZN4core3ptr36drop_in_place$LT$_core..Position$GT$17hdb6c8bd7b7fc2ef9E', symObjAddr: 0x8F0, symBinAddr: 0xB140, symSize: 0x60 }
  - { offset: 0x4FF46, size: 0x8, addend: 0x0, symName: '__ZN4core3ptr41drop_in_place$LT$_core..RustPortfolio$GT$17h3d726282c2885fc9E', symObjAddr: 0x950, symBinAddr: 0xB1A0, symSize: 0xEC }
  - { offset: 0x4FF75, size: 0x8, addend: 0x0, symName: '__ZN4core3ptr47drop_in_place$LT$alloc..vec..Vec$LT$f64$GT$$GT$17ha0e2bf5274ccb031E', symObjAddr: 0xA3C, symBinAddr: 0xB28C, symSize: 0x5C }
  - { offset: 0x4FFA4, size: 0x8, addend: 0x0, symName: '__ZN4core3ptr47drop_in_place$LT$alloc..vec..Vec$LT$i64$GT$$GT$17h158f60bfc8fa4c5bE', symObjAddr: 0xA98, symBinAddr: 0xB2E8, symSize: 0x5C }
  - { offset: 0x4FFD3, size: 0x8, addend: 0x0, symName: '__ZN4core3ptr52drop_in_place$LT$$u5b$alloc..string..String$u5d$$GT$17h04e698bb2176a56bE', symObjAddr: 0xAF4, symBinAddr: 0xB344, symSize: 0xC4 }
  - { offset: 0x50002, size: 0x8, addend: 0x0, symName: '__ZN4core3ptr54drop_in_place$LT$alloc..raw_vec..RawVec$LT$f64$GT$$GT$17h19c53875840c40a9E', symObjAddr: 0xBDC, symBinAddr: 0xB408, symSize: 0x24 }
  - { offset: 0x50031, size: 0x8, addend: 0x0, symName: '__ZN4core3ptr54drop_in_place$LT$alloc..raw_vec..RawVec$LT$i64$GT$$GT$17hf7e85e6b67c0932cE', symObjAddr: 0xC00, symBinAddr: 0xB42C, symSize: 0x24 }
  - { offset: 0x50060, size: 0x8, addend: 0x0, symName: '__ZN4core3ptr56drop_in_place$LT$$LP$alloc..string..String$C$f64$RP$$GT$17h70478b9782faf0e3E', symObjAddr: 0xC24, symBinAddr: 0xB450, symSize: 0x24 }
  - { offset: 0x5008F, size: 0x8, addend: 0x0, symName: '__ZN4core3ptr64drop_in_place$LT$core..option..Option$LT$_core..Position$GT$$GT$17h7cb35415bc81e694E', symObjAddr: 0xC48, symBinAddr: 0xB474, symSize: 0x48 }
  - { offset: 0x500BE, size: 0x8, addend: 0x0, symName: '__ZN4core3ptr65drop_in_place$LT$alloc..vec..Vec$LT$alloc..string..String$GT$$GT$17h8459641b8e21603cE', symObjAddr: 0xC90, symBinAddr: 0xB4BC, symSize: 0x5C }
  - { offset: 0x500ED, size: 0x8, addend: 0x0, symName: '__ZN4core3ptr66drop_in_place$LT$core..cell..UnsafeCell$LT$_core..Position$GT$$GT$17h520e542cf51377fdE', symObjAddr: 0xCEC, symBinAddr: 0xB518, symSize: 0x24 }
  - { offset: 0x5011C, size: 0x8, addend: 0x0, symName: '__ZN4core3ptr67drop_in_place$LT$pyo3..instance..Py$LT$_core..RustPortfolio$GT$$GT$17heee5972a80fe2c6dE', symObjAddr: 0xD10, symBinAddr: 0xB53C, symSize: 0x24 }
  - { offset: 0x5014B, size: 0x8, addend: 0x0, symName: '__ZN4core3ptr68drop_in_place$LT$$LP$alloc..string..String$C$_core..Position$RP$$GT$17h6f303ef2652f270dE', symObjAddr: 0xD34, symBinAddr: 0xB560, symSize: 0x60 }
  - { offset: 0x5017A, size: 0x8, addend: 0x0, symName: '__ZN4core3ptr71drop_in_place$LT$core..cell..UnsafeCell$LT$_core..RustPortfolio$GT$$GT$17h679628cba991c27cE', symObjAddr: 0xDF0, symBinAddr: 0xB5C0, symSize: 0x24 }
  - { offset: 0x501A9, size: 0x8, addend: 0x0, symName: '__ZN4core3ptr72drop_in_place$LT$alloc..raw_vec..RawVec$LT$alloc..string..String$GT$$GT$17hcb9efd71a40060ccE', symObjAddr: 0xE14, symBinAddr: 0xB5E4, symSize: 0x24 }
  - { offset: 0x501D8, size: 0x8, addend: 0x0, symName: '__ZN4core3ptr78drop_in_place$LT$pyo3..pyclass..guard..PyClassGuard$LT$_core..Position$GT$$GT$17hbd573bd384b46197E', symObjAddr: 0xE5C, symBinAddr: 0xB608, symSize: 0x24 }
  - { offset: 0x50207, size: 0x8, addend: 0x0, symName: '__ZN4core3ptr81drop_in_place$LT$pyo3..pyclass..guard..PyClassGuardMut$LT$_core..Position$GT$$GT$17h2d5bbcb2b11ac06aE', symObjAddr: 0xF10, symBinAddr: 0xB62C, symSize: 0x24 }
  - { offset: 0x50236, size: 0x8, addend: 0x0, symName: '__ZN4core3ptr83drop_in_place$LT$pyo3..pyclass..guard..PyClassGuard$LT$_core..RustPortfolio$GT$$GT$17h976fa33ab95c02f9E', symObjAddr: 0xF34, symBinAddr: 0xB650, symSize: 0x24 }
  - { offset: 0x50265, size: 0x8, addend: 0x0, symName: '__ZN4core3ptr86drop_in_place$LT$pyo3..pyclass..guard..PyClassGuardMut$LT$_core..RustPortfolio$GT$$GT$17hdefd2c889ac4f1c5E', symObjAddr: 0xF58, symBinAddr: 0xB674, symSize: 0x24 }
  - { offset: 0x50294, size: 0x8, addend: 0x0, symName: '__ZN4core3ptr87drop_in_place$LT$pyo3..pyclass_init..PyClassInitializer$LT$_core..RustPortfolio$GT$$GT$17hbc29c6bcf75a6ee2E', symObjAddr: 0xF7C, symBinAddr: 0xB698, symSize: 0x24 }
  - { offset: 0x502C3, size: 0x8, addend: 0x0, symName: '__ZN4core3ptr88drop_in_place$LT$hashbrown..raw..RawTable$LT$$LP$alloc..string..String$C$f64$RP$$GT$$GT$17hfc5875552b2c582eE', symObjAddr: 0xFA0, symBinAddr: 0xB6BC, symSize: 0x24 }
  - { offset: 0x502F2, size: 0x8, addend: 0x0, symName: '__ZN4core3ptr91drop_in_place$LT$pyo3..pyclass_init..PyClassInitializerImpl$LT$_core..RustPortfolio$GT$$GT$17h567836d0c2572a4fE', symObjAddr: 0xFC4, symBinAddr: 0xB6E0, symSize: 0x58 }
  - { offset: 0x50321, size: 0x8, addend: 0x0, symName: '__ZN4core3ptr92drop_in_place$LT$std..collections..hash..map..HashMap$LT$alloc..string..String$C$f64$GT$$GT$17h2e16ec04a31a717bE', symObjAddr: 0x101C, symBinAddr: 0xB738, symSize: 0x24 }
  - { offset: 0x5174D, size: 0x8, addend: 0x0, symName: '__ZN69_$LT$pyo3..instance..Py$LT$T$GT$$u20$as$u20$core..ops..drop..Drop$GT$4drop17h949d1aac2195e474E', symObjAddr: 0x1088, symBinAddr: 0xB75C, symSize: 0x28 }
  - { offset: 0x518E1, size: 0x8, addend: 0x0, symName: '__ZN85_$LT$pyo3..pyclass..guard..PyClassGuard$LT$T$GT$$u20$as$u20$core..ops..drop..Drop$GT$4drop17h382d646b6714ce4cE', symObjAddr: 0x1318, symBinAddr: 0xB910, symSize: 0x2C }
  - { offset: 0x51914, size: 0x8, addend: 0x0, symName: '__ZN85_$LT$pyo3..pyclass..guard..PyClassGuard$LT$T$GT$$u20$as$u20$core..ops..drop..Drop$GT$4drop17ha474ff2f12606245E', symObjAddr: 0x1344, symBinAddr: 0xB93C, symSize: 0x2C }
  - { offset: 0x5194D, size: 0x8, addend: 0x0, symName: '__ZN88_$LT$pyo3..pyclass..guard..PyClassGuardMut$LT$T$GT$$u20$as$u20$core..ops..drop..Drop$GT$4drop17h0cb6ad6a53724ce6E', symObjAddr: 0x1370, symBinAddr: 0xB968, symSize: 0x2C }
  - { offset: 0x51980, size: 0x8, addend: 0x0, symName: '__ZN88_$LT$pyo3..pyclass..guard..PyClassGuardMut$LT$T$GT$$u20$as$u20$core..ops..drop..Drop$GT$4drop17h941795630749de58E', symObjAddr: 0x139C, symBinAddr: 0xB994, symSize: 0x2C }
  - { offset: 0x52253, size: 0x8, addend: 0x0, symName: '__ZN77_$LT$alloc..raw_vec..RawVec$LT$T$C$A$GT$$u20$as$u20$core..ops..drop..Drop$GT$4drop17h6797d15ae0c44f0fE', symObjAddr: 0x120C, symBinAddr: 0xB804, symSize: 0x34 }
  - { offset: 0x5228F, size: 0x8, addend: 0x0, symName: '__ZN77_$LT$alloc..raw_vec..RawVec$LT$T$C$A$GT$$u20$as$u20$core..ops..drop..Drop$GT$4drop17h923ebe61a30ebcaaE', symObjAddr: 0x1240, symBinAddr: 0xB838, symSize: 0x30 }
  - { offset: 0x522CB, size: 0x8, addend: 0x0, symName: '__ZN77_$LT$alloc..raw_vec..RawVec$LT$T$C$A$GT$$u20$as$u20$core..ops..drop..Drop$GT$4drop17ha8746d2f59452cf8E', symObjAddr: 0x1270, symBinAddr: 0xB868, symSize: 0x30 }
  - { offset: 0x523CA, size: 0x8, addend: 0x0, symName: '__ZN70_$LT$alloc..vec..Vec$LT$T$C$A$GT$$u20$as$u20$core..ops..drop..Drop$GT$4drop17h4ddfd50429b001f1E', symObjAddr: 0x10B0, symBinAddr: 0xB784, symSize: 0x38 }
  - { offset: 0x5247A, size: 0x8, addend: 0x0, symName: '__ZN70_$LT$alloc..vec..Vec$LT$T$C$A$GT$$u20$as$u20$core..ops..drop..Drop$GT$4drop17h85ec0a6b3afd8287E', symObjAddr: 0x10E8, symBinAddr: 0xB7BC, symSize: 0x24 }
  - { offset: 0x5252A, size: 0x8, addend: 0x0, symName: '__ZN70_$LT$alloc..vec..Vec$LT$T$C$A$GT$$u20$as$u20$core..ops..drop..Drop$GT$4drop17h919d05f8aff6e6d1E', symObjAddr: 0x110C, symBinAddr: 0xB7E0, symSize: 0x24 }
  - { offset: 0x52BDE, size: 0x8, addend: 0x0, symName: '__ZN79_$LT$hashbrown..raw..RawTable$LT$T$C$A$GT$$u20$as$u20$core..ops..drop..Drop$GT$4drop17h881740247ec7a434E', symObjAddr: 0x12A0, symBinAddr: 0xB898, symSize: 0x3C }
  - { offset: 0x52C1A, size: 0x8, addend: 0x0, symName: '__ZN79_$LT$hashbrown..raw..RawTable$LT$T$C$A$GT$$u20$as$u20$core..ops..drop..Drop$GT$4drop17hf13e1b5382bd3e29E', symObjAddr: 0x12DC, symBinAddr: 0xB8D4, symSize: 0x3C }
  - { offset: 0x53AED, size: 0x8, addend: 0x0, symName: '__ZN5alloc3vec10partial_eq117_$LT$impl$u20$core..cmp..PartialEq$LT$alloc..vec..Vec$LT$U$C$A2$GT$$GT$$u20$for$u20$alloc..vec..Vec$LT$T$C$A1$GT$$GT$2eq17h130d694e2410a0ebE', symObjAddr: 0x0, symBinAddr: 0xB9C0, symSize: 0xCC }
  - { offset: 0x544F9, size: 0x8, addend: 0x0, symName: '__ZN5alloc3vec10partial_eq117_$LT$impl$u20$core..cmp..PartialEq$LT$alloc..vec..Vec$LT$U$C$A2$GT$$GT$$u20$for$u20$alloc..vec..Vec$LT$T$C$A1$GT$$GT$2eq17h130d694e2410a0ebE', symObjAddr: 0x0, symBinAddr: 0xB9C0, symSize: 0xCC }
  - { offset: 0x54C77, size: 0x8, addend: 0x0, symName: '__ZN5alloc3vec12Vec$LT$T$GT$3new17h02448453c7a37f4bE', symObjAddr: 0xCC, symBinAddr: 0xBA8C, symSize: 0x14 }
  - { offset: 0x54C9B, size: 0x8, addend: 0x0, symName: '__ZN5alloc3vec12Vec$LT$T$GT$3new17h4e262dc8e8e4246fE', symObjAddr: 0xE0, symBinAddr: 0xBAA0, symSize: 0x14 }
  - { offset: 0x54CB8, size: 0x8, addend: 0x0, symName: '__ZN5alloc3vec12Vec$LT$T$GT$3new17h74b2ee55e618e6ebE', symObjAddr: 0xF4, symBinAddr: 0xBAB4, symSize: 0x14 }
  - { offset: 0x54CDC, size: 0x8, addend: 0x0, symName: '__ZN5alloc3vec12Vec$LT$T$GT$3new17hcdbdafcdf0987c3aE', symObjAddr: 0x108, symBinAddr: 0xBAC8, symSize: 0x14 }
  - { offset: 0x54D06, size: 0x8, addend: 0x0, symName: '__ZN5alloc3vec16Vec$LT$T$C$A$GT$4push17h156e4418f9f32d31E', symObjAddr: 0x11C, symBinAddr: 0xBADC, symSize: 0x30 }
  - { offset: 0x54D57, size: 0x8, addend: 0x0, symName: '__ZN5alloc3vec16Vec$LT$T$C$A$GT$4push17h17061eb16541be30E', symObjAddr: 0x14C, symBinAddr: 0xBB0C, symSize: 0x24 }
  - { offset: 0x54DA9, size: 0x8, addend: 0x0, symName: '__ZN5alloc3vec16Vec$LT$T$C$A$GT$4push17h8e5c8329214f991aE', symObjAddr: 0x170, symBinAddr: 0xBB30, symSize: 0x28 }
  - { offset: 0x54DFA, size: 0x8, addend: 0x0, symName: '__ZN5alloc3vec16Vec$LT$T$C$A$GT$4push17h96817caf35f5379dE', symObjAddr: 0x198, symBinAddr: 0xBB58, symSize: 0x28 }
  - { offset: 0x54F52, size: 0x8, addend: 0x0, symName: '__ZN5alloc3vec16Vec$LT$T$C$A$GT$8push_mut17h1ad707a6ebba9c85E', symObjAddr: 0x1C0, symBinAddr: 0xBB80, symSize: 0xCC }
  - { offset: 0x551F0, size: 0x8, addend: 0x0, symName: '__ZN5alloc3vec16Vec$LT$T$C$A$GT$8push_mut17h304eea00b13bde5aE', symObjAddr: 0x28C, symBinAddr: 0xBC4C, symSize: 0xCC }
  - { offset: 0x5548E, size: 0x8, addend: 0x0, symName: '__ZN5alloc3vec16Vec$LT$T$C$A$GT$8push_mut17h53b2e0d86c2f24c1E', symObjAddr: 0x358, symBinAddr: 0xBD18, symSize: 0xE0 }
  - { offset: 0x5572D, size: 0x8, addend: 0x0, symName: '__ZN5alloc3vec16Vec$LT$T$C$A$GT$8push_mut17h6b6aec71d9c31f19E', symObjAddr: 0x438, symBinAddr: 0xBDF8, symSize: 0xF4 }
  - { offset: 0x558D8, size: 0x8, addend: 0x0, symName: '__ZN4pyo37pyclass5guard21PyClassGuard$LT$T$GT$10try_borrow17h04885f06bedf8eebE', symObjAddr: 0x0, symBinAddr: 0xBEEC, symSize: 0x28 }
  - { offset: 0x56F59, size: 0x8, addend: 0x0, symName: '__ZN4pyo37pyclass5guard21PyClassGuard$LT$T$GT$21try_from_class_object28_$u7b$$u7b$closure$u7d$$u7d$17h5c1520f2373a1801E', symObjAddr: 0x140, symBinAddr: 0xC02C, symSize: 0x2C }
  - { offset: 0x56F9A, size: 0x8, addend: 0x0, symName: '__ZN4pyo37pyclass5guard21PyClassGuard$LT$T$GT$21try_from_class_object28_$u7b$$u7b$closure$u7d$$u7d$17hf7ca23a42e62716cE', symObjAddr: 0x16C, symBinAddr: 0xC058, symSize: 0x2C }
  - { offset: 0x570F5, size: 0x8, addend: 0x0, symName: '__ZN4pyo37pyclass5guard24PyClassGuardMut$LT$T$GT$21try_from_class_object28_$u7b$$u7b$closure$u7d$$u7d$17h09112b5ce0249201E', symObjAddr: 0x2D8, symBinAddr: 0xC1C4, symSize: 0x2C }
  - { offset: 0x57139, size: 0x8, addend: 0x0, symName: '__ZN4pyo37pyclass5guard24PyClassGuardMut$LT$T$GT$21try_from_class_object28_$u7b$$u7b$closure$u7d$$u7d$17h3aeeaed4279048d9E', symObjAddr: 0x304, symBinAddr: 0xC1F0, symSize: 0x2C }
  - { offset: 0x57184, size: 0x8, addend: 0x0, symName: '__ZN87_$LT$pyo3..pyclass..guard..PyClassGuard$LT$T$GT$$u20$as$u20$core..ops..deref..Deref$GT$5deref17h8e3b0878c7ad5e90E', symObjAddr: 0x330, symBinAddr: 0xC21C, symSize: 0x78 }
  - { offset: 0x571C1, size: 0x8, addend: 0x0, symName: '__ZN93_$LT$pyo3..pyclass..guard..PyClassGuardMut$LT$T$GT$$u20$as$u20$core..ops..deref..DerefMut$GT$9deref_mut17h382433f0d61932d2E', symObjAddr: 0x3A8, symBinAddr: 0xC294, symSize: 0x74 }
  - { offset: 0x571F8, size: 0x8, addend: 0x0, symName: '__ZN93_$LT$pyo3..pyclass..guard..PyClassGuardMut$LT$T$GT$$u20$as$u20$core..ops..deref..DerefMut$GT$9deref_mut17hb81aef2ff8321e4fE', symObjAddr: 0x41C, symBinAddr: 0xC308, symSize: 0x74 }
  - { offset: 0x57DAB, size: 0x8, addend: 0x0, symName: '__ZN4pyo37pyclass5guard21PyClassGuard$LT$T$GT$10try_borrow17h04885f06bedf8eebE', symObjAddr: 0x0, symBinAddr: 0xBEEC, symSize: 0x28 }
  - { offset: 0x57DE3, size: 0x8, addend: 0x0, symName: '__ZN4pyo37pyclass5guard21PyClassGuard$LT$T$GT$10try_borrow17he04b3f61f4279424E', symObjAddr: 0x28, symBinAddr: 0xBF14, symSize: 0x28 }
  - { offset: 0x57E5E, size: 0x8, addend: 0x0, symName: '__ZN4pyo37pyclass5guard21PyClassGuard$LT$T$GT$15as_class_object17h63c3d0ce36ffc78dE', symObjAddr: 0x50, symBinAddr: 0xBF3C, symSize: 0x38 }
  - { offset: 0x57EF6, size: 0x8, addend: 0x0, symName: '__ZN4pyo37pyclass5guard21PyClassGuard$LT$T$GT$15as_class_object17h9208c82a3d3316c3E', symObjAddr: 0x88, symBinAddr: 0xBF74, symSize: 0x38 }
  - { offset: 0x57F3E, size: 0x8, addend: 0x0, symName: '__ZN4pyo37pyclass5guard21PyClassGuard$LT$T$GT$21try_from_class_object17h51aa30d94d346244E', symObjAddr: 0xC0, symBinAddr: 0xBFAC, symSize: 0x40 }
  - { offset: 0x57F69, size: 0x8, addend: 0x0, symName: '__ZN4pyo37pyclass5guard21PyClassGuard$LT$T$GT$21try_from_class_object17h876223b9fabd6d84E', symObjAddr: 0x100, symBinAddr: 0xBFEC, symSize: 0x40 }
  - { offset: 0x57F94, size: 0x8, addend: 0x0, symName: '__ZN4pyo37pyclass5guard24PyClassGuardMut$LT$T$GT$14try_borrow_mut17h23687b0e14f81ffeE', symObjAddr: 0x198, symBinAddr: 0xC084, symSize: 0x28 }
  - { offset: 0x57FC0, size: 0x8, addend: 0x0, symName: '__ZN4pyo37pyclass5guard24PyClassGuardMut$LT$T$GT$14try_borrow_mut17ha90dfcd6e80448ddE', symObjAddr: 0x1C0, symBinAddr: 0xC0AC, symSize: 0x28 }
  - { offset: 0x57FF9, size: 0x8, addend: 0x0, symName: '__ZN4pyo37pyclass5guard24PyClassGuardMut$LT$T$GT$15as_class_object17h41b9445994f09073E', symObjAddr: 0x1E8, symBinAddr: 0xC0D4, symSize: 0x38 }
  - { offset: 0x58050, size: 0x8, addend: 0x0, symName: '__ZN4pyo37pyclass5guard24PyClassGuardMut$LT$T$GT$15as_class_object17hc0d583a4368772adE', symObjAddr: 0x220, symBinAddr: 0xC10C, symSize: 0x38 }
  - { offset: 0x5809A, size: 0x8, addend: 0x0, symName: '__ZN4pyo37pyclass5guard24PyClassGuardMut$LT$T$GT$21try_from_class_object17h68aec2803350be7bE', symObjAddr: 0x258, symBinAddr: 0xC144, symSize: 0x40 }
  - { offset: 0x580C6, size: 0x8, addend: 0x0, symName: '__ZN4pyo37pyclass5guard24PyClassGuardMut$LT$T$GT$21try_from_class_object17hb7658f4defe44a7bE', symObjAddr: 0x298, symBinAddr: 0xC184, symSize: 0x40 }
  - { offset: 0x58151, size: 0x8, addend: 0x0, symName: __ZN4core4sync6atomic11AtomicUsize3new17h1aa0ceb859f4a5a3E, symObjAddr: 0x0, symBinAddr: 0xC37C, symSize: 0x18 }
  - { offset: 0x581C6, size: 0x8, addend: 0x0, symName: __ZN4core4sync6atomic11AtomicUsize3new17h1aa0ceb859f4a5a3E, symObjAddr: 0x0, symBinAddr: 0xC37C, symSize: 0x18 }
  - { offset: 0x58207, size: 0x8, addend: 0x0, symName: '__ZN119_$LT$pyo3..instance..Bound$LT$pyo3..types..typeobject..PyType$GT$$u20$as$u20$pyo3..types..typeobject..PyTypeMethods$GT$11as_type_ptr17h1da01a3486ee4b80E', symObjAddr: 0x0, symBinAddr: 0xC394, symSize: 0x24 }
  - { offset: 0x59520, size: 0x8, addend: 0x0, symName: '__ZN119_$LT$pyo3..instance..Bound$LT$pyo3..types..typeobject..PyType$GT$$u20$as$u20$pyo3..types..typeobject..PyTypeMethods$GT$11as_type_ptr17h1da01a3486ee4b80E', symObjAddr: 0x0, symBinAddr: 0xC394, symSize: 0x24 }
  - { offset: 0x596A9, size: 0x8, addend: 0x0, symName: '__ZN69_$LT$pyo3..instance..Py$LT$T$GT$$u20$as$u20$core..ops..drop..Drop$GT$4drop5inner17h368089befe7cf65eE', symObjAddr: 0xFC, symBinAddr: 0xC490, symSize: 0x1D4 }
  - { offset: 0x59CE6, size: 0x8, addend: 0x0, symName: '__ZN4pyo38instance36Bound$LT$pyo3..types..any..PyAny$GT$14from_owned_ptr17hb24f75c222f00f1bE', symObjAddr: 0x24, symBinAddr: 0xC3B8, symSize: 0x28 }
  - { offset: 0x59D31, size: 0x8, addend: 0x0, symName: '__ZN4pyo38instance39Borrowed$LT$pyo3..types..any..PyAny$GT$13from_non_null17ha742a4402167f30dE', symObjAddr: 0x4C, symBinAddr: 0xC3E0, symSize: 0x14 }
  - { offset: 0x59D6F, size: 0x8, addend: 0x0, symName: '__ZN4pyo38instance39Borrowed$LT$pyo3..types..any..PyAny$GT$15from_ptr_or_opt17h4473cc8aba528a31E', symObjAddr: 0x60, symBinAddr: 0xC3F4, symSize: 0x2C }
  - { offset: 0x59DAD, size: 0x8, addend: 0x0, symName: '__ZN4pyo38instance39Borrowed$LT$pyo3..types..any..PyAny$GT$18from_ptr_unchecked17hf0958afcdcc41947E', symObjAddr: 0x8C, symBinAddr: 0xC420, symSize: 0x30 }
  - { offset: 0x59DEB, size: 0x8, addend: 0x0, symName: '__ZN4pyo38instance39Borrowed$LT$pyo3..types..any..PyAny$GT$8from_ptr17ha2d511e52ce06591E', symObjAddr: 0xBC, symBinAddr: 0xC450, symSize: 0x40 }
  - { offset: 0x59E79, size: 0x8, addend: 0x0, symName: __ZN4core5slice3raw14from_raw_parts18precondition_check17h65e6b3f57457596dE, symObjAddr: 0x0, symBinAddr: 0xC664, symSize: 0x10C }
  - { offset: 0x59F5F, size: 0x8, addend: 0x0, symName: __ZN4core5slice3raw14from_raw_parts18precondition_check17h65e6b3f57457596dE, symObjAddr: 0x0, symBinAddr: 0xC664, symSize: 0x10C }
  - { offset: 0x5A0F4, size: 0x8, addend: 0x0, symName: '__ZN106_$LT$core..ops..range..Range$LT$usize$GT$$u20$as$u20$core..slice..index..SliceIndex$LT$$u5b$T$u5d$$GT$$GT$9index_mut17h3d226d5a3a5cb76bE', symObjAddr: 0x0, symBinAddr: 0xC770, symSize: 0xBC }
  - { offset: 0x5B315, size: 0x8, addend: 0x0, symName: '__ZN106_$LT$core..ops..range..Range$LT$usize$GT$$u20$as$u20$core..slice..index..SliceIndex$LT$$u5b$T$u5d$$GT$$GT$9index_mut17h3d226d5a3a5cb76bE', symObjAddr: 0x0, symBinAddr: 0xC770, symSize: 0xBC }
  - { offset: 0x5B3C6, size: 0x8, addend: 0x0, symName: '__ZN108_$LT$core..ops..range..RangeTo$LT$usize$GT$$u20$as$u20$core..slice..index..SliceIndex$LT$$u5b$T$u5d$$GT$$GT$9index_mut17he64eeab5e93ecbddE', symObjAddr: 0xBC, symBinAddr: 0xC82C, symSize: 0x54 }
  - { offset: 0x5B44D, size: 0x8, addend: 0x0, symName: '__ZN110_$LT$core..ops..range..RangeFrom$LT$usize$GT$$u20$as$u20$core..slice..index..SliceIndex$LT$$u5b$T$u5d$$GT$$GT$5index17h9eafd6ad98677c97E', symObjAddr: 0x110, symBinAddr: 0xC880, symSize: 0x70 }
  - { offset: 0x5BC52, size: 0x8, addend: 0x0, symName: '__ZN45_$LT$T$u20$as$u20$alloc..string..ToString$GT$9to_string17h45cfff853e7d3e56E', symObjAddr: 0x0, symBinAddr: 0xC8F0, symSize: 0x28 }
  - { offset: 0x5C482, size: 0x8, addend: 0x0, symName: '__ZN4core4hash5impls52_$LT$impl$u20$core..hash..Hash$u20$for$u20$$RF$T$GT$4hash17h223ebf50402c92efE', symObjAddr: 0x28, symBinAddr: 0xC918, symSize: 0x30 }
  - { offset: 0x5C5D1, size: 0x8, addend: 0x0, symName: '__ZN51_$LT$T$u20$as$u20$core..borrow..Borrow$LT$T$GT$$GT$6borrow17hc5f2fcb61670241bE', symObjAddr: 0x58, symBinAddr: 0xC948, symSize: 0x14 }
  - { offset: 0x5D3FA, size: 0x8, addend: 0x0, symName: '__ZN45_$LT$T$u20$as$u20$alloc..string..ToString$GT$9to_string17h45cfff853e7d3e56E', symObjAddr: 0x0, symBinAddr: 0xC8F0, symSize: 0x28 }
  - { offset: 0x5D486, size: 0x8, addend: 0x0, symName: '__ZN58_$LT$alloc..string..String$u20$as$u20$core..hash..Hash$GT$4hash17h97db663b7d0b4ec7E', symObjAddr: 0xAC, symBinAddr: 0xC99C, symSize: 0x88 }
  - { offset: 0x5D7EE, size: 0x8, addend: 0x0, symName: '__ZN52_$LT$Q$u20$as$u20$hashbrown..Equivalent$LT$K$GT$$GT$10equivalent17h857e2fd81fb94513E', symObjAddr: 0x6C, symBinAddr: 0xC95C, symSize: 0x40 }
  - { offset: 0x5DB16, size: 0x8, addend: 0x0, symName: '__ZN80_$LT$T$u20$as$u20$pyo3..impl_..extract_argument..PyFunctionArgument$LT$_$GT$$GT$7extract17h9a17013abb60068dE', symObjAddr: 0x134, symBinAddr: 0xCA24, symSize: 0x28 }
  - { offset: 0x5E2BF, size: 0x8, addend: 0x0, symName: '__ZN103_$LT$pyo3..instance..Bound$LT$pyo3..types..any..PyAny$GT$$u20$as$u20$pyo3..types..any..PyAnyMethods$GT$7extract17h3c63de6cdc3726c5E', symObjAddr: 0x0, symBinAddr: 0xCA4C, symSize: 0x30 }
  - { offset: 0x5EAEA, size: 0x8, addend: 0x0, symName: '__ZN4core5slice29_$LT$impl$u20$$u5b$T$u5d$$GT$4iter17h05d94fca60630972E', symObjAddr: 0x45C, symBinAddr: 0xCEA8, symSize: 0x28 }
  - { offset: 0x5FEA3, size: 0x8, addend: 0x0, symName: '__ZN103_$LT$pyo3..instance..Bound$LT$pyo3..types..any..PyAny$GT$$u20$as$u20$pyo3..types..any..PyAnyMethods$GT$7extract17h3c63de6cdc3726c5E', symObjAddr: 0x0, symBinAddr: 0xCA4C, symSize: 0x30 }
  - { offset: 0x5FEDA, size: 0x8, addend: 0x0, symName: '__ZN103_$LT$pyo3..instance..Bound$LT$pyo3..types..any..PyAny$GT$$u20$as$u20$pyo3..types..any..PyAnyMethods$GT$7extract17h609e1096e5860774E', symObjAddr: 0x30, symBinAddr: 0xCA7C, symSize: 0x30 }
  - { offset: 0x5FF32, size: 0x8, addend: 0x0, symName: '__ZN115_$LT$pyo3..instance..Bound$LT$pyo3..types..module..PyModule$GT$$u20$as$u20$pyo3..types..module..PyModuleMethods$GT$3add17h9d54f332ccdac19fE', symObjAddr: 0x60, symBinAddr: 0xCAAC, symSize: 0x25C }
  - { offset: 0x5FFFF, size: 0x8, addend: 0x0, symName: '__ZN115_$LT$pyo3..instance..Bound$LT$pyo3..types..module..PyModule$GT$$u20$as$u20$pyo3..types..module..PyModuleMethods$GT$9add_class17h23748002aeaf0adcE', symObjAddr: 0x2BC, symBinAddr: 0xCD08, symSize: 0xD0 }
  - { offset: 0x60075, size: 0x8, addend: 0x0, symName: '__ZN115_$LT$pyo3..instance..Bound$LT$pyo3..types..module..PyModule$GT$$u20$as$u20$pyo3..types..module..PyModuleMethods$GT$9add_class17h7ba6843daaad562cE', symObjAddr: 0x38C, symBinAddr: 0xCDD8, symSize: 0xD0 }
  - { offset: 0x601AF, size: 0x8, addend: 0x0, symName: __ZN4pyo310conversion15IntoPyObjectExt22into_pyobject_or_pyerr17h492768e7ea9faa25E, symObjAddr: 0x484, symBinAddr: 0xCED0, symSize: 0x48 }
  - { offset: 0x6022B, size: 0x8, addend: 0x0, symName: '__ZN4pyo35impl_9pymethods133_$LT$impl$u20$core..convert..From$LT$pyo3..impl_..pymethods..BoundRef$LT$T$GT$$GT$$u20$for$u20$$RF$pyo3..instance..Bound$LT$T$GT$$GT$4from17h685413cb0e8b6aefE', symObjAddr: 0x4CC, symBinAddr: 0xCF18, symSize: 0x14 }
  - { offset: 0x60262, size: 0x8, addend: 0x0, symName: '__ZN4pyo35impl_9pymethods133_$LT$impl$u20$core..convert..From$LT$pyo3..impl_..pymethods..BoundRef$LT$T$GT$$GT$$u20$for$u20$$RF$pyo3..instance..Bound$LT$T$GT$$GT$4from17hbce4810c8ccc6412E', symObjAddr: 0x4E0, symBinAddr: 0xCF2C, symSize: 0x14 }
  - { offset: 0x60748, size: 0x8, addend: 0x0, symName: '__ZN4pyo38instance14Bound$LT$T$GT$4cast5inner17h5b0b9e48f8729310E', symObjAddr: 0x7BC, symBinAddr: 0xD208, symSize: 0x84 }
  - { offset: 0x6077D, size: 0x8, addend: 0x0, symName: '__ZN4pyo38instance14Bound$LT$T$GT$4cast5inner17hd65fda6f99bc0d8fE', symObjAddr: 0x840, symBinAddr: 0xD28C, symSize: 0x84 }
  - { offset: 0x609D4, size: 0x8, addend: 0x0, symName: '__ZN4pyo38instance39Borrowed$LT$pyo3..types..any..PyAny$GT$15from_ptr_or_opt28_$u7b$$u7b$closure$u7d$$u7d$17h0a91afa1c4cba320E', symObjAddr: 0xA9C, symBinAddr: 0xD4E8, symSize: 0x30 }
  - { offset: 0x60AA5, size: 0x8, addend: 0x0, symName: '__ZN87_$LT$pyo3..instance..Bound$LT$T$GT$$u20$as$u20$pyo3..instance..BoundObject$LT$T$GT$$GT$8into_ptr17h5c0f914034675f94E', symObjAddr: 0xAF4, symBinAddr: 0xD540, symSize: 0x24 }
  - { offset: 0x60ADC, size: 0x8, addend: 0x0, symName: '__ZN87_$LT$pyo3..instance..Bound$LT$T$GT$$u20$as$u20$pyo3..instance..BoundObject$LT$T$GT$$GT$8into_ptr17h843b9e472ed9525aE', symObjAddr: 0xB18, symBinAddr: 0xD564, symSize: 0x24 }
  - { offset: 0x60B13, size: 0x8, addend: 0x0, symName: '__ZN87_$LT$pyo3..instance..Bound$LT$T$GT$$u20$as$u20$pyo3..instance..BoundObject$LT$T$GT$$GT$8into_ptr17he036d6ab0a7b1584E', symObjAddr: 0xB3C, symBinAddr: 0xD588, symSize: 0x24 }
  - { offset: 0x61956, size: 0x8, addend: 0x0, symName: '__ZN4pyo38instance11Py$LT$T$GT$10into_bound17h3571f866715f61d2E', symObjAddr: 0x4F4, symBinAddr: 0xCF40, symSize: 0x1C }
  - { offset: 0x619B7, size: 0x8, addend: 0x0, symName: '__ZN4pyo38instance11Py$LT$T$GT$16get_class_object17h8d3d16f17130cd40E', symObjAddr: 0x510, symBinAddr: 0xCF5C, symSize: 0x78 }
  - { offset: 0x61A13, size: 0x8, addend: 0x0, symName: '__ZN4pyo38instance11Py$LT$T$GT$16get_class_object17hc0d2d6601262d709E', symObjAddr: 0x588, symBinAddr: 0xCFD4, symSize: 0x78 }
  - { offset: 0x61A55, size: 0x8, addend: 0x0, symName: '__ZN4pyo38instance11Py$LT$T$GT$6as_ptr17h976ef55a892dbca3E', symObjAddr: 0x600, symBinAddr: 0xD04C, symSize: 0x1C }
  - { offset: 0x61A81, size: 0x8, addend: 0x0, symName: '__ZN4pyo38instance11Py$LT$T$GT$6as_ptr17h9d3d14140fa8adefE', symObjAddr: 0x61C, symBinAddr: 0xD068, symSize: 0x1C }
  - { offset: 0x61ABA, size: 0x8, addend: 0x0, symName: '__ZN4pyo38instance11Py$LT$T$GT$6as_ptr17hb2c1e08051573fe7E', symObjAddr: 0x638, symBinAddr: 0xD084, symSize: 0x1C }
  - { offset: 0x61AF3, size: 0x8, addend: 0x0, symName: '__ZN4pyo38instance11Py$LT$T$GT$6as_ptr17hbd79693246b05c60E', symObjAddr: 0x654, symBinAddr: 0xD0A0, symSize: 0x1C }
  - { offset: 0x61B1F, size: 0x8, addend: 0x0, symName: '__ZN4pyo38instance11Py$LT$T$GT$8into_ptr17h0925394ae39391faE', symObjAddr: 0x670, symBinAddr: 0xD0BC, symSize: 0x30 }
  - { offset: 0x61B58, size: 0x8, addend: 0x0, symName: '__ZN4pyo38instance14Bound$LT$T$GT$10as_unbound17h0afa54349d66be9aE', symObjAddr: 0x6A0, symBinAddr: 0xD0EC, symSize: 0x1C }
  - { offset: 0x61B91, size: 0x8, addend: 0x0, symName: '__ZN4pyo38instance14Bound$LT$T$GT$10as_unbound17h244e0cad9960b537E', symObjAddr: 0x6BC, symBinAddr: 0xD108, symSize: 0x1C }
  - { offset: 0x61C00, size: 0x8, addend: 0x0, symName: '__ZN4pyo38instance14Bound$LT$T$GT$14cast_unchecked17ha597161fbc59e7e1E', symObjAddr: 0x6D8, symBinAddr: 0xD124, symSize: 0x38 }
  - { offset: 0x61C89, size: 0x8, addend: 0x0, symName: '__ZN4pyo38instance14Bound$LT$T$GT$14cast_unchecked17heac290616656bedbE', symObjAddr: 0x710, symBinAddr: 0xD15C, symSize: 0x38 }
  - { offset: 0x61CDC, size: 0x8, addend: 0x0, symName: '__ZN4pyo38instance14Bound$LT$T$GT$19cast_into_unchecked17h9e10ef18ec60761fE', symObjAddr: 0x748, symBinAddr: 0xD194, symSize: 0x14 }
  - { offset: 0x61D1E, size: 0x8, addend: 0x0, symName: '__ZN4pyo38instance14Bound$LT$T$GT$4cast17h402c48b9b9d8e59aE', symObjAddr: 0x75C, symBinAddr: 0xD1A8, symSize: 0x30 }
  - { offset: 0x61D52, size: 0x8, addend: 0x0, symName: '__ZN4pyo38instance14Bound$LT$T$GT$4cast17hf066367562456511E', symObjAddr: 0x78C, symBinAddr: 0xD1D8, symSize: 0x30 }
  - { offset: 0x61D93, size: 0x8, addend: 0x0, symName: '__ZN4pyo38instance14Bound$LT$T$GT$6as_ptr17h099b114906a5357cE', symObjAddr: 0x8C4, symBinAddr: 0xD310, symSize: 0x2C }
  - { offset: 0x61DBF, size: 0x8, addend: 0x0, symName: '__ZN4pyo38instance14Bound$LT$T$GT$6as_ptr17h1e0c3dc4cf43f85aE', symObjAddr: 0x8F0, symBinAddr: 0xD33C, symSize: 0x2C }
  - { offset: 0x61DF8, size: 0x8, addend: 0x0, symName: '__ZN4pyo38instance14Bound$LT$T$GT$6as_ptr17hcc49376fa7cf5c41E', symObjAddr: 0x91C, symBinAddr: 0xD368, symSize: 0x2C }
  - { offset: 0x61E24, size: 0x8, addend: 0x0, symName: '__ZN4pyo38instance14Bound$LT$T$GT$8into_ptr17h446a3f410199f884E', symObjAddr: 0x948, symBinAddr: 0xD394, symSize: 0x40 }
  - { offset: 0x61E50, size: 0x8, addend: 0x0, symName: '__ZN4pyo38instance14Bound$LT$T$GT$8into_ptr17h78c99f45ccf1425fE', symObjAddr: 0x988, symBinAddr: 0xD3D4, symSize: 0x40 }
  - { offset: 0x61E7C, size: 0x8, addend: 0x0, symName: '__ZN4pyo38instance14Bound$LT$T$GT$8into_ptr17h95b71c89230dd63fE', symObjAddr: 0x9C8, symBinAddr: 0xD414, symSize: 0x40 }
  - { offset: 0x61EA8, size: 0x8, addend: 0x0, symName: '__ZN4pyo38instance14Bound$LT$T$GT$8into_ptr17hc26f7789f8468651E', symObjAddr: 0xA08, symBinAddr: 0xD454, symSize: 0x40 }
  - { offset: 0x61ED4, size: 0x8, addend: 0x0, symName: '__ZN4pyo38instance14Bound$LT$T$GT$8into_ptr17hceffcd02c5d44488E', symObjAddr: 0xA48, symBinAddr: 0xD494, symSize: 0x40 }
  - { offset: 0x61F0D, size: 0x8, addend: 0x0, symName: '__ZN4pyo38instance17Borrowed$LT$T$GT$14cast_unchecked17h9bb1296848453a67E', symObjAddr: 0xA88, symBinAddr: 0xD4D4, symSize: 0x14 }
  - { offset: 0x61F4F, size: 0x8, addend: 0x0, symName: '__ZN4pyo38internal8get_slot78_$LT$impl$u20$pyo3..instance..Bound$LT$pyo3..types..typeobject..PyType$GT$$GT$8get_slot17ha1c3e7b927e3754bE', symObjAddr: 0xACC, symBinAddr: 0xD518, symSize: 0x28 }
  - { offset: 0x62107, size: 0x8, addend: 0x0, symName: __ZN4core4iter6traits8iterator8Iterator3zip17h150e06b3b9f3e51bE, symObjAddr: 0x0, symBinAddr: 0xD5AC, symSize: 0xB4 }
  - { offset: 0x62A36, size: 0x8, addend: 0x0, symName: __ZN4core4iter6traits8iterator8Iterator3zip17h150e06b3b9f3e51bE, symObjAddr: 0x0, symBinAddr: 0xD5AC, symSize: 0xB4 }
  - { offset: 0x62AAC, size: 0x8, addend: 0x0, symName: __ZN4core4iter6traits8iterator8Iterator4take17h492a3a094834b5bdE, symObjAddr: 0xB4, symBinAddr: 0xD660, symSize: 0x24 }
  - { offset: 0x63BE9, size: 0x8, addend: 0x0, symName: __ZN4pyo35impl_10trampoline11module_init17hd0c10cf5f727eba8E, symObjAddr: 0x0, symBinAddr: 0xD684, symSize: 0x28 }
  - { offset: 0x650B2, size: 0x8, addend: 0x0, symName: __ZN4pyo35impl_10trampoline11module_init17hd0c10cf5f727eba8E, symObjAddr: 0x0, symBinAddr: 0xD684, symSize: 0x28 }
  - { offset: 0x650DE, size: 0x8, addend: 0x0, symName: __ZN4pyo35impl_10trampoline22fastcall_with_keywords17h5f8e1041bfb0b863E, symObjAddr: 0x28, symBinAddr: 0xD6AC, symSize: 0x5C }
  - { offset: 0x65142, size: 0x8, addend: 0x0, symName: __ZN4pyo35impl_10trampoline7dealloc17h3c0a86ac3c7ffe97E, symObjAddr: 0x84, symBinAddr: 0xD708, symSize: 0x34 }
  - { offset: 0x65178, size: 0x8, addend: 0x0, symName: __ZN4pyo35impl_10trampoline7newfunc17he58fa104155af45dE, symObjAddr: 0xB8, symBinAddr: 0xD73C, symSize: 0x50 }
  - { offset: 0x65ADE, size: 0x8, addend: 0x0, symName: '__ZN63_$LT$I$u20$as$u20$core..iter..traits..collect..IntoIterator$GT$9into_iter17h1958a89b8ecca898E', symObjAddr: 0x0, symBinAddr: 0xD78C, symSize: 0x18 }
  - { offset: 0x66313, size: 0x8, addend: 0x0, symName: '__ZN63_$LT$I$u20$as$u20$core..iter..traits..collect..IntoIterator$GT$9into_iter17h1958a89b8ecca898E', symObjAddr: 0x0, symBinAddr: 0xD78C, symSize: 0x18 }
  - { offset: 0x672D6, size: 0x8, addend: 0x0, symName: '__ZN116_$LT$$RF$pyo3..impl_..pyclass..PyClassImplCollector$LT$T$GT$$u20$as$u20$pyo3..impl_..pyclass..PyMethods$LT$T$GT$$GT$10py_methods17hc475263a2d1cf402E', symObjAddr: 0x0, symBinAddr: 0xD7A4, symSize: 0x18 }
  - { offset: 0x68CBE, size: 0x8, addend: 0x0, symName: '__ZN116_$LT$$RF$pyo3..impl_..pyclass..PyClassImplCollector$LT$T$GT$$u20$as$u20$pyo3..impl_..pyclass..PyMethods$LT$T$GT$$GT$10py_methods17hc475263a2d1cf402E', symObjAddr: 0x0, symBinAddr: 0xD7A4, symSize: 0x18 }
  - { offset: 0x68CFB, size: 0x8, addend: 0x0, symName: '__ZN118_$LT$pyo3..impl_..pyclass..SendablePyClass$LT$T$GT$$u20$as$u20$pyo3..impl_..pyclass..PyClassThreadChecker$LT$T$GT$$GT$3new17h5a547b5fd4cba587E', symObjAddr: 0x18, symBinAddr: 0xD7BC, symSize: 0x4 }
  - { offset: 0x68D1F, size: 0x8, addend: 0x0, symName: '__ZN118_$LT$pyo3..impl_..pyclass..SendablePyClass$LT$T$GT$$u20$as$u20$pyo3..impl_..pyclass..PyClassThreadChecker$LT$T$GT$$GT$6ensure17h56500447f6d9c1d2E', symObjAddr: 0x1C, symBinAddr: 0xD7C0, symSize: 0x10 }
  - { offset: 0x68D52, size: 0x8, addend: 0x0, symName: '__ZN118_$LT$pyo3..impl_..pyclass..SendablePyClass$LT$T$GT$$u20$as$u20$pyo3..impl_..pyclass..PyClassThreadChecker$LT$T$GT$$GT$6ensure17h90d2409196456348E', symObjAddr: 0x2C, symBinAddr: 0xD7D0, symSize: 0x10 }
  - { offset: 0x68D85, size: 0x8, addend: 0x0, symName: '__ZN118_$LT$pyo3..impl_..pyclass..SendablePyClass$LT$T$GT$$u20$as$u20$pyo3..impl_..pyclass..PyClassThreadChecker$LT$T$GT$$GT$8can_drop17h4094044a313d9ce3E', symObjAddr: 0x3C, symBinAddr: 0xD7E0, symSize: 0x18 }
  - { offset: 0x68DD7, size: 0x8, addend: 0x0, symName: '__ZN118_$LT$pyo3..impl_..pyclass..SendablePyClass$LT$T$GT$$u20$as$u20$pyo3..impl_..pyclass..PyClassThreadChecker$LT$T$GT$$GT$8can_drop17h855beedd0e8ce470E', symObjAddr: 0x54, symBinAddr: 0xD7F8, symSize: 0x18 }
  - { offset: 0x68E2A, size: 0x8, addend: 0x0, symName: __ZN4pyo35impl_7pyclass10tp_dealloc17h056aa7396009e075E, symObjAddr: 0x6C, symBinAddr: 0xD810, symSize: 0x34 }
  - { offset: 0x68E5D, size: 0x8, addend: 0x0, symName: __ZN4pyo35impl_7pyclass10tp_dealloc17he8a9b015be392cc0E, symObjAddr: 0xA0, symBinAddr: 0xD844, symSize: 0x34 }
  - { offset: 0x68E95, size: 0x8, addend: 0x0, symName: __ZN4pyo35impl_7pyclass11PyClassDict10clear_dict17hcd60b0adfeda42e2E, symObjAddr: 0xD4, symBinAddr: 0xD878, symSize: 0x10 }
  - { offset: 0x68EE0, size: 0x8, addend: 0x0, symName: __ZN4pyo35impl_7pyclass12class_offset17h47f267fa68721870E, symObjAddr: 0xE4, symBinAddr: 0xD888, symSize: 0xC }
  - { offset: 0x68F08, size: 0x8, addend: 0x0, symName: __ZN4pyo35impl_7pyclass12class_offset17h8d444cb8e7da222cE, symObjAddr: 0xF0, symBinAddr: 0xD894, symSize: 0xC }
  - { offset: 0x68F35, size: 0x8, addend: 0x0, symName: __ZN4pyo35impl_7pyclass14PyClassWeakRef14clear_weakrefs17h516114586ae5b990E, symObjAddr: 0xFC, symBinAddr: 0xD8A0, symSize: 0x14 }
  - { offset: 0x68F8E, size: 0x8, addend: 0x0, symName: __ZN4pyo35impl_7pyclass17field_from_object17h113ff029ecc07aadE, symObjAddr: 0x110, symBinAddr: 0xD8B4, symSize: 0x40 }
  - { offset: 0x68FFD, size: 0x8, addend: 0x0, symName: __ZN4pyo35impl_7pyclass17field_from_object17h28cfe6c5368f88b5E, symObjAddr: 0x150, symBinAddr: 0xD8F4, symSize: 0x40 }
  - { offset: 0x6906C, size: 0x8, addend: 0x0, symName: __ZN4pyo35impl_7pyclass17field_from_object17ha1be5fbb617b82f9E, symObjAddr: 0x190, symBinAddr: 0xD934, symSize: 0x40 }
  - { offset: 0x690DB, size: 0x8, addend: 0x0, symName: __ZN4pyo35impl_7pyclass17field_from_object17hcede5e7db8d08326E, symObjAddr: 0x1D0, symBinAddr: 0xD974, symSize: 0x40 }
  - { offset: 0x6914A, size: 0x8, addend: 0x0, symName: __ZN4pyo35impl_7pyclass17field_from_object17hf4e5d83c9bf2afb0E, symObjAddr: 0x210, symBinAddr: 0xD9B4, symSize: 0x40 }
  - { offset: 0x691B9, size: 0x8, addend: 0x0, symName: __ZN4pyo35impl_7pyclass17field_from_object17hf54fdd24142dc220E, symObjAddr: 0x250, symBinAddr: 0xD9F4, symSize: 0x40 }
  - { offset: 0x69228, size: 0x8, addend: 0x0, symName: __ZN4pyo35impl_7pyclass18tp_dealloc_with_gc17h0d8c576a55eeb281E, symObjAddr: 0x290, symBinAddr: 0xDA34, symSize: 0x4C }
  - { offset: 0x69279, size: 0x8, addend: 0x0, symName: __ZN4pyo35impl_7pyclass18tp_dealloc_with_gc17h731233bcfeb46aecE, symObjAddr: 0x2DC, symBinAddr: 0xDA80, symSize: 0x4C }
  - { offset: 0x692CA, size: 0x8, addend: 0x0, symName: __ZN4pyo35impl_7pyclass23ensure_no_mutable_alias17h3910806d1f7b3580E, symObjAddr: 0x328, symBinAddr: 0xDACC, symSize: 0x3C }
  - { offset: 0x6933A, size: 0x8, addend: 0x0, symName: __ZN4pyo35impl_7pyclass23ensure_no_mutable_alias17h8b28bb499b773fceE, symObjAddr: 0x364, symBinAddr: 0xDB08, symSize: 0x3C }
  - { offset: 0x69410, size: 0x8, addend: 0x0, symName: __ZN4pyo35impl_7pyclass32pyo3_get_value_into_pyobject_ref17h20df82c28a5fb460E, symObjAddr: 0x3A8, symBinAddr: 0xDB4C, symSize: 0x1D8 }
  - { offset: 0x69501, size: 0x8, addend: 0x0, symName: __ZN4pyo35impl_7pyclass32pyo3_get_value_into_pyobject_ref17h50a84f30921fe1c7E, symObjAddr: 0x580, symBinAddr: 0xDD24, symSize: 0x1D8 }
  - { offset: 0x695F2, size: 0x8, addend: 0x0, symName: __ZN4pyo35impl_7pyclass32pyo3_get_value_into_pyobject_ref17h5828dfefe2bc9809E, symObjAddr: 0x758, symBinAddr: 0xDEFC, symSize: 0x1D8 }
  - { offset: 0x696E3, size: 0x8, addend: 0x0, symName: __ZN4pyo35impl_7pyclass32pyo3_get_value_into_pyobject_ref17ha8219819ed25020eE, symObjAddr: 0x930, symBinAddr: 0xE0D4, symSize: 0x1D8 }
  - { offset: 0x697D4, size: 0x8, addend: 0x0, symName: __ZN4pyo35impl_7pyclass32pyo3_get_value_into_pyobject_ref17hdaca32bfda83b7b9E, symObjAddr: 0xB08, symBinAddr: 0xE2AC, symSize: 0x1D8 }
  - { offset: 0x698C5, size: 0x8, addend: 0x0, symName: __ZN4pyo35impl_7pyclass32pyo3_get_value_into_pyobject_ref17he276d7a983514e47E, symObjAddr: 0xCE0, symBinAddr: 0xE484, symSize: 0x1D8 }
  - { offset: 0x6AD46, size: 0x8, addend: 0x0, symName: '__ZN4pyo35impl_7pyclass29PyClassImplCollector$LT$T$GT$3new17h210f8f96db223dcbE', symObjAddr: 0x3A0, symBinAddr: 0xDB44, symSize: 0x4 }
  - { offset: 0x6AD63, size: 0x8, addend: 0x0, symName: '__ZN4pyo35impl_7pyclass29PyClassImplCollector$LT$T$GT$3new17h2ff30a5cf015aa5bE', symObjAddr: 0x3A4, symBinAddr: 0xDB48, symSize: 0x4 }
  - { offset: 0x6AF21, size: 0x8, addend: 0x0, symName: '__ZN4pyo35impl_7pyclass66PyClassGetterGenerator$LT$ClassT$C$FieldT$C$Offset$C$_$C$_$C$_$GT$8generate17h06ce22a502bdb36aE', symObjAddr: 0xEB8, symBinAddr: 0xE65C, symSize: 0x78 }
  - { offset: 0x6AFB3, size: 0x8, addend: 0x0, symName: '__ZN4pyo35impl_7pyclass66PyClassGetterGenerator$LT$ClassT$C$FieldT$C$Offset$C$_$C$_$C$_$GT$8generate17h27e52be6dec3e12dE', symObjAddr: 0xF30, symBinAddr: 0xE6D4, symSize: 0x78 }
  - { offset: 0x6B045, size: 0x8, addend: 0x0, symName: '__ZN4pyo35impl_7pyclass66PyClassGetterGenerator$LT$ClassT$C$FieldT$C$Offset$C$_$C$_$C$_$GT$8generate17h4ea910636d6b1f6dE', symObjAddr: 0xFA8, symBinAddr: 0xE74C, symSize: 0x78 }
  - { offset: 0x6B0D7, size: 0x8, addend: 0x0, symName: '__ZN4pyo35impl_7pyclass66PyClassGetterGenerator$LT$ClassT$C$FieldT$C$Offset$C$_$C$_$C$_$GT$8generate17h5eb4ec38c6ae698aE', symObjAddr: 0x1020, symBinAddr: 0xE7C4, symSize: 0x78 }
  - { offset: 0x6B169, size: 0x8, addend: 0x0, symName: '__ZN4pyo35impl_7pyclass66PyClassGetterGenerator$LT$ClassT$C$FieldT$C$Offset$C$_$C$_$C$_$GT$8generate17hbcf65e59617ae277E', symObjAddr: 0x1098, symBinAddr: 0xE83C, symSize: 0x78 }
  - { offset: 0x6B1FB, size: 0x8, addend: 0x0, symName: '__ZN4pyo35impl_7pyclass66PyClassGetterGenerator$LT$ClassT$C$FieldT$C$Offset$C$_$C$_$C$_$GT$8generate17hde8261482c616f1bE', symObjAddr: 0x1110, symBinAddr: 0xE8B4, symSize: 0x78 }
  - { offset: 0x6B344, size: 0x8, addend: 0x0, symName: '__ZN4pyo311conversions3std6string86_$LT$impl$u20$pyo3..conversion..IntoPyObject$u20$for$u20$$RF$alloc..string..String$GT$13into_pyobject17h084b488c9ebff1d3E', symObjAddr: 0x0, symBinAddr: 0xE92C, symSize: 0x28 }
  - { offset: 0x6C6E7, size: 0x8, addend: 0x0, symName: '__ZN4pyo311conversions3std6string86_$LT$impl$u20$pyo3..conversion..IntoPyObject$u20$for$u20$$RF$alloc..string..String$GT$13into_pyobject17h084b488c9ebff1d3E', symObjAddr: 0x0, symBinAddr: 0xE92C, symSize: 0x28 }
  - { offset: 0x6C945, size: 0x8, addend: 0x0, symName: '__ZN51_$LT$str$u20$as$u20$alloc..string..SpecToString$GT$14spec_to_string17h5c9015684e964030E', symObjAddr: 0x28, symBinAddr: 0xE954, symSize: 0x50 }
  - { offset: 0x6CA6E, size: 0x8, addend: 0x0, symName: '__ZN62_$LT$alloc..string..String$u20$as$u20$core..cmp..PartialEq$GT$2eq17hb8fff4adb754f707E', symObjAddr: 0xE8, symBinAddr: 0xEA14, symSize: 0x2C }
  - { offset: 0x6CAB1, size: 0x8, addend: 0x0, symName: '__ZN65_$LT$alloc..string..String$u20$as$u20$core..ops..deref..Deref$GT$5deref17hefb42c488e4ce6f9E', symObjAddr: 0x114, symBinAddr: 0xEA40, symSize: 0x24 }
  - { offset: 0x6CE11, size: 0x8, addend: 0x0, symName: __ZN5alloc6string6String6as_str17h2f8f5adb7577616bE, symObjAddr: 0x78, symBinAddr: 0xE9A4, symSize: 0x70 }
  - { offset: 0x6D3AA, size: 0x8, addend: 0x0, symName: '__ZN4pyo35impl_7pyclass16lazy_type_object23LazyTypeObject$LT$T$GT$15get_or_try_init17h694233c715d0d0cbE', symObjAddr: 0x0, symBinAddr: 0xEA64, symSize: 0x70 }
  - { offset: 0x6FAF6, size: 0x8, addend: 0x0, symName: '__ZN4pyo35impl_7pyclass16lazy_type_object23LazyTypeObject$LT$T$GT$15get_or_try_init17h694233c715d0d0cbE', symObjAddr: 0x0, symBinAddr: 0xEA64, symSize: 0x70 }
  - { offset: 0x6FCF3, size: 0x8, addend: 0x0, symName: '__ZN4pyo35impl_7pyclass16lazy_type_object23LazyTypeObject$LT$T$GT$15get_or_try_init17hcd36cca98f024e0aE', symObjAddr: 0x70, symBinAddr: 0xEAD4, symSize: 0x70 }
  - { offset: 0x6FD54, size: 0x8, addend: 0x0, symName: '__ZN4pyo35impl_7pyclass16lazy_type_object23LazyTypeObject$LT$T$GT$8try_init17h15ee5efa98eb5f97E', symObjAddr: 0xE0, symBinAddr: 0x6EF04, symSize: 0x58 }
  - { offset: 0x6FD98, size: 0x8, addend: 0x0, symName: '__ZN4pyo35impl_7pyclass16lazy_type_object23LazyTypeObject$LT$T$GT$8try_init17h2f9fed42d6038852E', symObjAddr: 0x138, symBinAddr: 0x6EF5C, symSize: 0x58 }
  - { offset: 0x6FE07, size: 0x8, addend: 0x0, symName: '__ZN96_$LT$pyo3..pycell..impl_..BorrowChecker$u20$as$u20$pyo3..pycell..impl_..PyClassBorrowChecker$GT$3new17h02f47e24a976464dE', symObjAddr: 0x0, symBinAddr: 0xEB44, symSize: 0x40 }
  - { offset: 0x6FE28, size: 0x8, addend: 0x0, symName: '__ZN96_$LT$pyo3..pycell..impl_..BorrowChecker$u20$as$u20$pyo3..pycell..impl_..PyClassBorrowChecker$GT$3new17h02f47e24a976464dE', symObjAddr: 0x0, symBinAddr: 0xEB44, symSize: 0x40 }
  - { offset: 0x6FEE3, size: 0x8, addend: 0x0, symName: '__ZN100_$LT$pyo3..types..tuple..BorrowedTupleIterator$u20$as$u20$core..iter..traits..iterator..Iterator$GT$4next17hc2ea72d3262b6254E', symObjAddr: 0x0, symBinAddr: 0xEB84, symSize: 0x9C }
  - { offset: 0x71117, size: 0x8, addend: 0x0, symName: '__ZN100_$LT$pyo3..types..tuple..BorrowedTupleIterator$u20$as$u20$core..iter..traits..iterator..Iterator$GT$4next17hc2ea72d3262b6254E', symObjAddr: 0x0, symBinAddr: 0xEB84, symSize: 0x9C }
  - { offset: 0x717CF, size: 0x8, addend: 0x0, symName: '__ZN109_$LT$pyo3..types..dict..borrowed_iter..BorrowedDictIter$u20$as$u20$core..iter..traits..iterator..Iterator$GT$4next17h10ece4a49897e325E', symObjAddr: 0x0, symBinAddr: 0xEC20, symSize: 0xD4 }
  - { offset: 0x72A08, size: 0x8, addend: 0x0, symName: '__ZN109_$LT$pyo3..types..dict..borrowed_iter..BorrowedDictIter$u20$as$u20$core..iter..traits..iterator..Iterator$GT$4next17h10ece4a49897e325E', symObjAddr: 0x0, symBinAddr: 0xEC20, symSize: 0xD4 }
  - { offset: 0x7310B, size: 0x8, addend: 0x0, symName: __ZN4pyo33err5PyErr3new17hd25c59f47c4c3ae2E, symObjAddr: 0x0, symBinAddr: 0xECF4, symSize: 0x9C }
  - { offset: 0x7314D, size: 0x8, addend: 0x0, symName: '__ZN4pyo33err5PyErr3new28_$u7b$$u7b$closure$u7d$$u7d$17h683f61ebad4c51a5E', symObjAddr: 0x9C, symBinAddr: 0xED90, symSize: 0xC0 }
  - { offset: 0x74E3C, size: 0x8, addend: 0x0, symName: __ZN4pyo33err5PyErr3new17hd25c59f47c4c3ae2E, symObjAddr: 0x0, symBinAddr: 0xECF4, symSize: 0x9C }
  - { offset: 0x74EC5, size: 0x8, addend: 0x0, symName: '__ZN100_$LT$pyo3..pycell..impl_..MutableClass$u20$as$u20$pyo3..pycell..impl_..GetBorrowChecker$LT$T$GT$$GT$14borrow_checker17h0e8ffb54e6b87c14E', symObjAddr: 0x0, symBinAddr: 0xEE50, symSize: 0x14 }
  - { offset: 0x762AF, size: 0x8, addend: 0x0, symName: '__ZN100_$LT$pyo3..pycell..impl_..MutableClass$u20$as$u20$pyo3..pycell..impl_..GetBorrowChecker$LT$T$GT$$GT$14borrow_checker17h0e8ffb54e6b87c14E', symObjAddr: 0x0, symBinAddr: 0xEE50, symSize: 0x14 }
  - { offset: 0x762E4, size: 0x8, addend: 0x0, symName: '__ZN100_$LT$pyo3..pycell..impl_..MutableClass$u20$as$u20$pyo3..pycell..impl_..GetBorrowChecker$LT$T$GT$$GT$14borrow_checker17h30de5fcfd9bfa211E', symObjAddr: 0x14, symBinAddr: 0xEE64, symSize: 0x14 }
  - { offset: 0x7631F, size: 0x8, addend: 0x0, symName: '__ZN113_$LT$pyo3..pycell..impl_..PyClassObject$LT$T$GT$$u20$as$u20$pyo3..pycell..impl_..PyClassObjectLayout$LT$T$GT$$GT$10tp_dealloc17h06fc3cfc283c6152E', symObjAddr: 0x28, symBinAddr: 0xEE78, symSize: 0xB4 }
  - { offset: 0x76383, size: 0x8, addend: 0x0, symName: '__ZN113_$LT$pyo3..pycell..impl_..PyClassObject$LT$T$GT$$u20$as$u20$pyo3..pycell..impl_..PyClassObjectLayout$LT$T$GT$$GT$10tp_dealloc17h6b8c8b06f83a8e8bE', symObjAddr: 0xDC, symBinAddr: 0xEF2C, symSize: 0xB4 }
  - { offset: 0x763E7, size: 0x8, addend: 0x0, symName: '__ZN113_$LT$pyo3..pycell..impl_..PyClassObject$LT$T$GT$$u20$as$u20$pyo3..pycell..impl_..PyClassObjectLayout$LT$T$GT$$GT$17ensure_threadsafe17h1045834ecdb4d75bE', symObjAddr: 0x190, symBinAddr: 0xEFE0, symSize: 0x30 }
  - { offset: 0x7641A, size: 0x8, addend: 0x0, symName: '__ZN113_$LT$pyo3..pycell..impl_..PyClassObject$LT$T$GT$$u20$as$u20$pyo3..pycell..impl_..PyClassObjectLayout$LT$T$GT$$GT$17ensure_threadsafe17h1c27a4e7b381dfcdE', symObjAddr: 0x1C0, symBinAddr: 0xF010, symSize: 0x30 }
  - { offset: 0x76453, size: 0x8, addend: 0x0, symName: '__ZN117_$LT$pyo3..pycell..impl_..PyClassObjectBase$LT$U$GT$$u20$as$u20$pyo3..pycell..impl_..PyClassObjectLayout$LT$T$GT$$GT$10tp_dealloc17h39201cf6d7afb474E', symObjAddr: 0x1F0, symBinAddr: 0xF040, symSize: 0x27C }
  - { offset: 0x7657D, size: 0x8, addend: 0x0, symName: '__ZN117_$LT$pyo3..pycell..impl_..PyClassObjectBase$LT$U$GT$$u20$as$u20$pyo3..pycell..impl_..PyClassObjectLayout$LT$T$GT$$GT$17ensure_threadsafe17h8d8661781417a9a8E', symObjAddr: 0x46C, symBinAddr: 0xF2BC, symSize: 0x10 }
  - { offset: 0x77251, size: 0x8, addend: 0x0, symName: '__ZN4pyo36pycell5impl_22PyClassObject$LT$T$GT$14borrow_checker17h677cc6111f75b73cE', symObjAddr: 0x47C, symBinAddr: 0xF2CC, symSize: 0x24 }
  - { offset: 0x7728A, size: 0x8, addend: 0x0, symName: '__ZN4pyo36pycell5impl_22PyClassObject$LT$T$GT$14borrow_checker17h7e7a12ceb1400d5fE', symObjAddr: 0x4A0, symBinAddr: 0xF2F0, symSize: 0x24 }
  - { offset: 0x772C3, size: 0x8, addend: 0x0, symName: '__ZN4pyo36pycell5impl_22PyClassObject$LT$T$GT$7get_ptr17h357b5908f42f1837E', symObjAddr: 0x4C4, symBinAddr: 0xF314, symSize: 0x24 }
  - { offset: 0x772FC, size: 0x8, addend: 0x0, symName: '__ZN4pyo36pycell5impl_22PyClassObject$LT$T$GT$7get_ptr17hb6411221cebe41f5E', symObjAddr: 0x4E8, symBinAddr: 0xF338, symSize: 0x24 }
  - { offset: 0x77394, size: 0x8, addend: 0x0, symName: __ZN3std5panic12catch_unwind17h2929cb9c9050f469E, symObjAddr: 0x0, symBinAddr: 0xF35C, symSize: 0xC0 }
  - { offset: 0x78E58, size: 0x8, addend: 0x0, symName: __ZN3std5panic12catch_unwind17h2929cb9c9050f469E, symObjAddr: 0x0, symBinAddr: 0xF35C, symSize: 0xC0 }
  - { offset: 0x78EEA, size: 0x8, addend: 0x0, symName: __ZN3std5panic12catch_unwind17h615b04bf4785f68bE, symObjAddr: 0xC0, symBinAddr: 0xF41C, symSize: 0xC4 }
  - { offset: 0x78F9C, size: 0x8, addend: 0x0, symName: __ZN3std5panic12catch_unwind17hd25fef82aabcb3f3E, symObjAddr: 0x184, symBinAddr: 0xF4E0, symSize: 0xB0 }
  - { offset: 0x7902E, size: 0x8, addend: 0x0, symName: __ZN3std5panic12catch_unwind17hd9db92d2c7529751E, symObjAddr: 0x234, symBinAddr: 0xF590, symSize: 0xDC }
  - { offset: 0x79ADD, size: 0x8, addend: 0x0, symName: __ZN4core9ub_checks23maybe_is_nonoverlapping7runtime17hfbf268a20ce826e9E, symObjAddr: 0x0, symBinAddr: 0xF6C0, symSize: 0xD8 }
  - { offset: 0x79C62, size: 0x8, addend: 0x0, symName: __ZN4core9ub_checks23maybe_is_nonoverlapping7runtime17hfbf268a20ce826e9E, symObjAddr: 0x0, symBinAddr: 0xF6C0, symSize: 0xD8 }
  - { offset: 0x79E75, size: 0x8, addend: 0x0, symName: __ZN4core3ptr19copy_nonoverlapping18precondition_check17hf29a4572501086d2E, symObjAddr: 0x0, symBinAddr: 0xF798, symSize: 0x168 }
  - { offset: 0x79F5D, size: 0x8, addend: 0x0, symName: __ZN4core3ptr19copy_nonoverlapping18precondition_check17hf29a4572501086d2E, symObjAddr: 0x0, symBinAddr: 0xF798, symSize: 0x168 }
  - { offset: 0x7A18F, size: 0x8, addend: 0x0, symName: '__ZN110_$LT$core..iter..adapters..enumerate..Enumerate$LT$I$GT$$u20$as$u20$core..iter..traits..iterator..Iterator$GT$4next17hd75a26ba84b62703E', symObjAddr: 0x0, symBinAddr: 0xF900, symSize: 0xE0 }
  - { offset: 0x7B562, size: 0x8, addend: 0x0, symName: '__ZN110_$LT$core..iter..adapters..enumerate..Enumerate$LT$I$GT$$u20$as$u20$core..iter..traits..iterator..Iterator$GT$4next17hd75a26ba84b62703E', symObjAddr: 0x0, symBinAddr: 0xF900, symSize: 0xE0 }
  - { offset: 0x7B6B4, size: 0x8, addend: 0x0, symName: '__ZN63_$LT$I$u20$as$u20$core..iter..traits..collect..IntoIterator$GT$9into_iter17h0788c8703d6cc75cE', symObjAddr: 0xE0, symBinAddr: 0xF9E0, symSize: 0x30 }
  - { offset: 0x7BD9F, size: 0x8, addend: 0x0, symName: __ZN4pyo36marker6Python15assume_attached17h79c55a55c4fcaa43E, symObjAddr: 0x0, symBinAddr: 0xFA10, symSize: 0x4 }
  - { offset: 0x7BEDB, size: 0x8, addend: 0x0, symName: __ZN4pyo36marker6Python15assume_attached17h79c55a55c4fcaa43E, symObjAddr: 0x0, symBinAddr: 0xFA10, symSize: 0x4 }
  - { offset: 0x7BF0C, size: 0x8, addend: 0x0, symName: __ZN4pyo33err10cast_error9CastError3new17h111461ab29321fd9E, symObjAddr: 0x0, symBinAddr: 0xFA14, symSize: 0x1C }
  - { offset: 0x7D6E4, size: 0x8, addend: 0x0, symName: __ZN4pyo33err10cast_error9CastError3new17h111461ab29321fd9E, symObjAddr: 0x0, symBinAddr: 0xFA14, symSize: 0x1C }
  - { offset: 0x7D732, size: 0x8, addend: 0x0, symName: __ZN4core3ptr5write17hddb4d6e8b1a6b4bcE, symObjAddr: 0x0, symBinAddr: 0xFA30, symSize: 0x2C }
  - { offset: 0x7D749, size: 0x8, addend: 0x0, symName: __ZN4core3ptr5write17hddb4d6e8b1a6b4bcE, symObjAddr: 0x0, symBinAddr: 0xFA30, symSize: 0x2C }
  - { offset: 0x7DF04, size: 0x8, addend: 0x0, symName: '__ZN4core3f6421_$LT$impl$u20$f64$GT$3abs17h08300d2696b556deE', symObjAddr: 0x0, symBinAddr: 0xFA5C, symSize: 0x1C }
  - { offset: 0x7DF20, size: 0x8, addend: 0x0, symName: '__ZN4core3f6421_$LT$impl$u20$f64$GT$3abs17h08300d2696b556deE', symObjAddr: 0x0, symBinAddr: 0xFA5C, symSize: 0x1C }
  - { offset: 0x7DF76, size: 0x8, addend: 0x0, symName: __ZN4pyo35impl_5panic9PanicTrap3new17h3dc01bbc2fa7b636E, symObjAddr: 0x0, symBinAddr: 0xFA78, symSize: 0x18 }
  - { offset: 0x7E005, size: 0x8, addend: 0x0, symName: __ZN4pyo35impl_5panic9PanicTrap3new17h3dc01bbc2fa7b636E, symObjAddr: 0x0, symBinAddr: 0xFA78, symSize: 0x18 }
  - { offset: 0x7E027, size: 0x8, addend: 0x0, symName: __ZN4pyo35impl_5panic9PanicTrap6disarm17hd5ce0d06a5693e24E, symObjAddr: 0x18, symBinAddr: 0xFA90, symSize: 0x28 }
  - { offset: 0x7E067, size: 0x8, addend: 0x0, symName: __ZN4core5slice20copy_from_slice_impl17hb2d8a6c7d089b272E, symObjAddr: 0x0, symBinAddr: 0xFAB8, symSize: 0xAC }
  - { offset: 0x7E8E1, size: 0x8, addend: 0x0, symName: __ZN4core5slice20copy_from_slice_impl17hb2d8a6c7d089b272E, symObjAddr: 0x0, symBinAddr: 0xFAB8, symSize: 0xAC }
  - { offset: 0x7F9BB, size: 0x8, addend: 0x0, symName: '__ZN102_$LT$pyo3..internal..get_slot..Slot$LT$74_i32$GT$$u20$as$u20$pyo3..internal..get_slot..GetSlotImpl$GT$8get_slot17hfd4a20f8d6227adeE', symObjAddr: 0x0, symBinAddr: 0xFB64, symSize: 0x74 }
  - { offset: 0x80A97, size: 0x8, addend: 0x0, symName: '__ZN102_$LT$pyo3..internal..get_slot..Slot$LT$74_i32$GT$$u20$as$u20$pyo3..internal..get_slot..GetSlotImpl$GT$8get_slot17hfd4a20f8d6227adeE', symObjAddr: 0x0, symBinAddr: 0xFB64, symSize: 0x74 }
  - { offset: 0x80F58, size: 0x8, addend: 0x0, symName: '__ZN100_$LT$core..iter..adapters..take..Take$LT$I$GT$$u20$as$u20$core..iter..traits..iterator..Iterator$GT$4next17hfb8e0dc85a45bc3cE', symObjAddr: 0x0, symBinAddr: 0xFBD8, symSize: 0x58 }
  - { offset: 0x8178D, size: 0x8, addend: 0x0, symName: '__ZN100_$LT$core..iter..adapters..take..Take$LT$I$GT$$u20$as$u20$core..iter..traits..iterator..Iterator$GT$4next17hfb8e0dc85a45bc3cE', symObjAddr: 0x0, symBinAddr: 0xFBD8, symSize: 0x58 }
  - { offset: 0x8184C, size: 0x8, addend: 0x0, symName: __ZN4core4iter6traits8iterator8Iterator9enumerate17hd585d657bdc02e11E, symObjAddr: 0x58, symBinAddr: 0xFC30, symSize: 0x18 }
  - { offset: 0x8187D, size: 0x8, addend: 0x0, symName: __ZN4core4iter6traits8iterator8Iterator9enumerate17hd585d657bdc02e11E, symObjAddr: 0x58, symBinAddr: 0xFC30, symSize: 0x18 }
  - { offset: 0x8292D, size: 0x8, addend: 0x0, symName: __ZN9hashbrown7control5group4neon5Group10match_full17h634f1fc68354003eE, symObjAddr: 0x0, symBinAddr: 0xFC48, symSize: 0x68 }
  - { offset: 0x82A45, size: 0x8, addend: 0x0, symName: __ZN9hashbrown7control5group4neon5Group10match_full17h634f1fc68354003eE, symObjAddr: 0x0, symBinAddr: 0xFC48, symSize: 0x68 }
  - { offset: 0x82A7D, size: 0x8, addend: 0x0, symName: __ZN9hashbrown7control5group4neon5Group22match_empty_or_deleted17ha7c70127cfca338eE, symObjAddr: 0x68, symBinAddr: 0xFCB0, symSize: 0x68 }
  - { offset: 0x82AB5, size: 0x8, addend: 0x0, symName: __ZN9hashbrown7control5group4neon5Group44convert_special_to_empty_and_full_to_deleted17h783cb776644f7380E, symObjAddr: 0xD0, symBinAddr: 0xFD18, symSize: 0x88 }
  - { offset: 0x82AED, size: 0x8, addend: 0x0, symName: __ZN9hashbrown7control5group4neon5Group9match_tag17h282805b1ff548984E, symObjAddr: 0x158, symBinAddr: 0xFDA0, symSize: 0x7C }
  - { offset: 0x82B59, size: 0x8, addend: 0x0, symName: '__ZN5_core160_$LT$impl$u20$pyo3..impl_..pyclass..PyMethods$LT$_core..RustPortfolio$GT$$u20$for$u20$pyo3..impl_..pyclass..PyClassImplCollector$LT$_core..RustPortfolio$GT$$GT$10py_methods17h6a08a0f15d9bdfe2E', symObjAddr: 0x0, symBinAddr: 0xFE1C, symSize: 0x14 }
  - { offset: 0x841BA, size: 0x8, addend: 0x0, symName: '__ZN5_core160_$LT$impl$u20$pyo3..impl_..pyclass..PyMethods$LT$_core..RustPortfolio$GT$$u20$for$u20$pyo3..impl_..pyclass..PyClassImplCollector$LT$_core..RustPortfolio$GT$$GT$10py_methods17h6a08a0f15d9bdfe2E', symObjAddr: 0x0, symBinAddr: 0xFE1C, symSize: 0x14 }
  - { offset: 0x85324, size: 0x8, addend: 0x0, symName: '__ZN4pyo35impl_4wrap30IntoPyObjectConverter$LT$T$GT$4wrap17haa352bf5092cbb47E', symObjAddr: 0x0, symBinAddr: 0xFE30, symSize: 0x10 }
  - { offset: 0x86820, size: 0x8, addend: 0x0, symName: '__ZN4pyo35impl_4wrap82EmptyTupleConverter$LT$core..result..Result$LT$$LP$$RP$$C$pyo3..err..PyErr$GT$$GT$12map_into_ptr28_$u7b$$u7b$closure$u7d$$u7d$17h0bbc4427eb46b85cE', symObjAddr: 0x10, symBinAddr: 0xFE40, symSize: 0x28 }
  - { offset: 0x86876, size: 0x8, addend: 0x0, symName: __ZN4pyo35impl_4wrap9converter17h2790a1fbd0d2b050E, symObjAddr: 0x38, symBinAddr: 0xFE68, symSize: 0x10 }
  - { offset: 0x868A3, size: 0x8, addend: 0x0, symName: __ZN4pyo35impl_4wrap9converter17h8307130f173647deE, symObjAddr: 0x48, symBinAddr: 0xFE78, symSize: 0x10 }
  - { offset: 0x868D5, size: 0x8, addend: 0x0, symName: '__ZN81_$LT$pyo3..impl_..wrap..Converter$LT$T$GT$$u20$as$u20$core..ops..deref..Deref$GT$5deref17h435df838b2450044E', symObjAddr: 0x58, symBinAddr: 0xFE88, symSize: 0x14 }
  - { offset: 0x8690A, size: 0x8, addend: 0x0, symName: '__ZN81_$LT$pyo3..impl_..wrap..Converter$LT$T$GT$$u20$as$u20$core..ops..deref..Deref$GT$5deref17h4cbede4558c20760E', symObjAddr: 0x6C, symBinAddr: 0xFE9C, symSize: 0x14 }
  - { offset: 0x86945, size: 0x8, addend: 0x0, symName: '__ZN91_$LT$pyo3..impl_..wrap..EmptyTupleConverter$LT$T$GT$$u20$as$u20$core..ops..deref..Deref$GT$5deref17h10299a0368ac40dbE', symObjAddr: 0x80, symBinAddr: 0xFEB0, symSize: 0x14 }
  - { offset: 0x86C42, size: 0x8, addend: 0x0, symName: '__ZN4pyo35impl_4wrap30IntoPyObjectConverter$LT$T$GT$4wrap17haa352bf5092cbb47E', symObjAddr: 0x0, symBinAddr: 0xFE30, symSize: 0x10 }
  - { offset: 0x87353, size: 0x8, addend: 0x0, symName: '__ZN4core5slice29_$LT$impl$u20$$u5b$T$u5d$$GT$18split_at_unchecked18precondition_check17h713d5b3ebe520dd8E', symObjAddr: 0x0, symBinAddr: 0xFEC4, symSize: 0x60 }
  - { offset: 0x87374, size: 0x8, addend: 0x0, symName: '__ZN4core5slice29_$LT$impl$u20$$u5b$T$u5d$$GT$18split_at_unchecked18precondition_check17h713d5b3ebe520dd8E', symObjAddr: 0x0, symBinAddr: 0xFEC4, symSize: 0x60 }
  - { offset: 0x8741E, size: 0x8, addend: 0x0, symName: __ZN4pyo35impl_10trampoline10trampoline17h52a8ecfd1fd4ff61E, symObjAddr: 0x0, symBinAddr: 0xFF24, symSize: 0x160 }
  - { offset: 0x88967, size: 0x8, addend: 0x0, symName: __ZN4pyo35impl_10trampoline10trampoline17h52a8ecfd1fd4ff61E, symObjAddr: 0x0, symBinAddr: 0xFF24, symSize: 0x160 }
  - { offset: 0x88A0B, size: 0x8, addend: 0x0, symName: __ZN4pyo35impl_10trampoline10trampoline17h558fb702a092c291E, symObjAddr: 0x160, symBinAddr: 0x10084, symSize: 0x15C }
  - { offset: 0x88AAE, size: 0x8, addend: 0x0, symName: __ZN4pyo35impl_10trampoline10trampoline17hfe40fc6b49d3df5dE, symObjAddr: 0x2BC, symBinAddr: 0x101E0, symSize: 0x14C }
  - { offset: 0x88B55, size: 0x8, addend: 0x0, symName: '__ZN4pyo35impl_10trampoline10trampoline28_$u7b$$u7b$closure$u7d$$u7d$17h2d8ba5dc981aab06E', symObjAddr: 0x408, symBinAddr: 0x1032C, symSize: 0x40 }
  - { offset: 0x88BA4, size: 0x8, addend: 0x0, symName: '__ZN4pyo35impl_10trampoline10trampoline28_$u7b$$u7b$closure$u7d$$u7d$17h7220ba704673aeadE', symObjAddr: 0x448, symBinAddr: 0x1036C, symSize: 0x34 }
  - { offset: 0x88BF3, size: 0x8, addend: 0x0, symName: '__ZN4pyo35impl_10trampoline10trampoline28_$u7b$$u7b$closure$u7d$$u7d$17hcd1b175995d795c9E', symObjAddr: 0x47C, symBinAddr: 0x103A0, symSize: 0x24 }
  - { offset: 0x88C47, size: 0x8, addend: 0x0, symName: '__ZN4pyo35impl_10trampoline11module_init28_$u7b$$u7b$closure$u7d$$u7d$17h44ec630affdf9694E', symObjAddr: 0x4A0, symBinAddr: 0x103C4, symSize: 0x40 }
  - { offset: 0x88C93, size: 0x8, addend: 0x0, symName: '__ZN4pyo35impl_10trampoline11module_init28_$u7b$$u7b$closure$u7d$$u7d$28_$u7b$$u7b$closure$u7d$$u7d$17h73e65a82108213e4E', symObjAddr: 0x4E0, symBinAddr: 0x10404, symSize: 0x24 }
  - { offset: 0x88CE5, size: 0x8, addend: 0x0, symName: __ZN4pyo35impl_10trampoline21trampoline_unraisable17haaf9aac61f7711a1E, symObjAddr: 0x504, symBinAddr: 0x10428, symSize: 0x218 }
  - { offset: 0x88D88, size: 0x8, addend: 0x0, symName: '__ZN4pyo35impl_10trampoline21trampoline_unraisable28_$u7b$$u7b$closure$u7d$$u7d$17h69cb43bdfcb975cdE', symObjAddr: 0x71C, symBinAddr: 0x10640, symSize: 0x5C }
  - { offset: 0x88DC7, size: 0x8, addend: 0x0, symName: '__ZN4pyo35impl_10trampoline21trampoline_unraisable28_$u7b$$u7b$closure$u7d$$u7d$17h8c4f8c0604af6bdaE', symObjAddr: 0x778, symBinAddr: 0x1069C, symSize: 0x2C }
  - { offset: 0x88E19, size: 0x8, addend: 0x0, symName: '__ZN4pyo35impl_10trampoline22fastcall_with_keywords28_$u7b$$u7b$closure$u7d$$u7d$17h14abe83fb068582eE', symObjAddr: 0x7A4, symBinAddr: 0x106C8, symSize: 0x48 }
  - { offset: 0x88EE5, size: 0x8, addend: 0x0, symName: '__ZN4pyo35impl_10trampoline7dealloc28_$u7b$$u7b$closure$u7d$$u7d$17h1259a18e01aeca6fE', symObjAddr: 0x7EC, symBinAddr: 0x10710, symSize: 0x40 }
  - { offset: 0x88F62, size: 0x8, addend: 0x0, symName: '__ZN4pyo35impl_10trampoline7newfunc28_$u7b$$u7b$closure$u7d$$u7d$17h1781dfb22ab5dc0dE', symObjAddr: 0x82C, symBinAddr: 0x10750, symSize: 0x40 }
  - { offset: 0x899F6, size: 0x8, addend: 0x0, symName: '__ZN4core3ptr8non_null16NonNull$LT$T$GT$13new_unchecked18precondition_check17h6e65cb574ebf1c42E', symObjAddr: 0x0, symBinAddr: 0x10790, symSize: 0x58 }
  - { offset: 0x89A1C, size: 0x8, addend: 0x0, symName: '__ZN4core3ptr8non_null16NonNull$LT$T$GT$13new_unchecked18precondition_check17h6e65cb574ebf1c42E', symObjAddr: 0x0, symBinAddr: 0x10790, symSize: 0x58 }
  - { offset: 0x89ACD, size: 0x8, addend: 0x0, symName: '__ZN111_$LT$T$u20$as$u20$pyo3..impl_..callback..IntoPyCallbackOutput$LT$$BP$mut$u20$pyo3_ffi..object..PyObject$GT$$GT$7convert17h7a1f3fa26e70ab80E', symObjAddr: 0x0, symBinAddr: 0x107E8, symSize: 0x30 }
  - { offset: 0x8AF89, size: 0x8, addend: 0x0, symName: '__ZN111_$LT$T$u20$as$u20$pyo3..impl_..callback..IntoPyCallbackOutput$LT$$BP$mut$u20$pyo3_ffi..object..PyObject$GT$$GT$7convert17h7a1f3fa26e70ab80E', symObjAddr: 0x0, symBinAddr: 0x107E8, symSize: 0x30 }
  - { offset: 0x8AFD8, size: 0x8, addend: 0x0, symName: __ZN4pyo35impl_8callback7convert17h950be700c648120bE, symObjAddr: 0x30, symBinAddr: 0x10818, symSize: 0x20 }
  - { offset: 0x8B02F, size: 0x8, addend: 0x0, symName: __ZN4pyo35impl_8callback7convert17hadb94e1f89f50f2eE, symObjAddr: 0x50, symBinAddr: 0x10838, symSize: 0x1C }
  - { offset: 0x8B8CD, size: 0x8, addend: 0x0, symName: __ZN4pyo35impl_16extract_argument16extract_argument17h09b1a693b1436342E, symObjAddr: 0x0, symBinAddr: 0x10854, symSize: 0x150 }
  - { offset: 0x8D9B1, size: 0x8, addend: 0x0, symName: __ZN4pyo35impl_16extract_argument16extract_argument17h09b1a693b1436342E, symObjAddr: 0x0, symBinAddr: 0x10854, symSize: 0x150 }
  - { offset: 0x8DA36, size: 0x8, addend: 0x0, symName: __ZN4pyo35impl_16extract_argument16extract_argument17h3e1092ae4f3d5da9E, symObjAddr: 0x150, symBinAddr: 0x109A4, symSize: 0x150 }
  - { offset: 0x8DABB, size: 0x8, addend: 0x0, symName: __ZN4pyo35impl_16extract_argument16extract_argument17he7938261a3d6aa7dE, symObjAddr: 0x2A0, symBinAddr: 0x10AF4, symSize: 0x168 }
  - { offset: 0x8DCC1, size: 0x8, addend: 0x0, symName: '__ZN4pyo35impl_16extract_argument19FunctionDescription26extract_arguments_fastcall28_$u7b$$u7b$closure$u7d$$u7d$17h653c3ed44ed58803E', symObjAddr: 0x1854, symBinAddr: 0x120A8, symSize: 0x24 }
  - { offset: 0x8DD19, size: 0x8, addend: 0x0, symName: '__ZN4pyo35impl_16extract_argument19FunctionDescription28extract_arguments_tuple_dict28_$u7b$$u7b$closure$u7d$$u7d$17hec4371f49f34d532E', symObjAddr: 0x1D58, symBinAddr: 0x125AC, symSize: 0x24 }
  - { offset: 0x8DD71, size: 0x8, addend: 0x0, symName: '__ZN4pyo35impl_16extract_argument19FunctionDescription36find_keyword_parameter_in_positional28_$u7b$$u7b$closure$u7d$$u7d$17h46e53632e5eafa1fE', symObjAddr: 0x1D7C, symBinAddr: 0x125D0, symSize: 0x48 }
  - { offset: 0x8DDD1, size: 0x8, addend: 0x0, symName: '__ZN4pyo35impl_16extract_argument19FunctionDescription38find_keyword_parameter_in_keyword_only28_$u7b$$u7b$closure$u7d$$u7d$17he9070011575f5e09E', symObjAddr: 0x1DC4, symBinAddr: 0x12618, symSize: 0x38 }
  - { offset: 0x8DE13, size: 0x8, addend: 0x0, symName: __ZN4pyo35impl_16extract_argument19extract_pyclass_ref17h166e6ac6da2638c3E, symObjAddr: 0x1DFC, symBinAddr: 0x12650, symSize: 0xE4 }
  - { offset: 0x8DE90, size: 0x8, addend: 0x0, symName: __ZN4pyo35impl_16extract_argument23extract_pyclass_ref_mut17h002b87e49d50cd99E, symObjAddr: 0x1EE0, symBinAddr: 0x12734, symSize: 0xE4 }
  - { offset: 0x8DF0D, size: 0x8, addend: 0x0, symName: __ZN4pyo35impl_16extract_argument23extract_pyclass_ref_mut17h85a38f3a636d61c9E, symObjAddr: 0x1FC4, symBinAddr: 0x12818, symSize: 0xE4 }
  - { offset: 0x8DF8F, size: 0x8, addend: 0x0, symName: '__ZN80_$LT$T$u20$as$u20$pyo3..impl_..extract_argument..PyFunctionArgument$LT$_$GT$$GT$7extract17h05b8ae2a4c073219E', symObjAddr: 0x20A8, symBinAddr: 0x128FC, symSize: 0x28 }
  - { offset: 0x8DFCE, size: 0x8, addend: 0x0, symName: '__ZN80_$LT$T$u20$as$u20$pyo3..impl_..extract_argument..PyFunctionArgument$LT$_$GT$$GT$7extract17h2f63e2580d34519eE', symObjAddr: 0x20D0, symBinAddr: 0x12924, symSize: 0x28 }
  - { offset: 0x8ECDC, size: 0x8, addend: 0x0, symName: __ZN4pyo35impl_16extract_argument19FunctionDescription13handle_kwargs17h304fd45e8aa14401E, symObjAddr: 0x408, symBinAddr: 0x10C5C, symSize: 0x70C }
  - { offset: 0x8EEDD, size: 0x8, addend: 0x0, symName: __ZN4pyo35impl_16extract_argument19FunctionDescription13handle_kwargs17hd61575bfeb3eba38E, symObjAddr: 0xB14, symBinAddr: 0x11368, symSize: 0x708 }
  - { offset: 0x8F0FC, size: 0x8, addend: 0x0, symName: __ZN4pyo35impl_16extract_argument19FunctionDescription26extract_arguments_fastcall17hafa6327ec0b93628E, symObjAddr: 0x121C, symBinAddr: 0x11A70, symSize: 0x638 }
  - { offset: 0x8F42F, size: 0x8, addend: 0x0, symName: __ZN4pyo35impl_16extract_argument19FunctionDescription28extract_arguments_tuple_dict17h82e6b8f979b078faE, symObjAddr: 0x1878, symBinAddr: 0x120CC, symSize: 0x4E0 }
  - { offset: 0x91287, size: 0x8, addend: 0x0, symName: '__ZN44_$LT$$RF$T$u20$as$u20$core..fmt..Display$GT$3fmt17h08153e1879c7ba08E', symObjAddr: 0x6134, symBinAddr: 0x13EEC, symSize: 0x30 }
  - { offset: 0x912CD, size: 0x8, addend: 0x0, symName: '__ZN44_$LT$$RF$T$u20$as$u20$core..fmt..Display$GT$3fmt17hdaeae8c8a8140cceE', symObjAddr: 0x6164, symBinAddr: 0x13F1C, symSize: 0x30 }
  - { offset: 0x9145B, size: 0x8, addend: 0x0, symName: '__ZN4core5array4iter94_$LT$impl$u20$core..iter..traits..collect..IntoIterator$u20$for$u20$$u5b$T$u3b$$u20$N$u5d$$GT$9into_iter17hd46202ff68c1dcbfE', symObjAddr: 0x62A8, symBinAddr: 0x13F88, symSize: 0x58 }
  - { offset: 0x93CF6, size: 0x8, addend: 0x0, symName: '__ZN50_$LT$T$u20$as$u20$core..convert..Into$LT$U$GT$$GT$4into17h6194e0f4632adc80E', symObjAddr: 0xD974, symBinAddr: 0x1687C, symSize: 0x24 }
  - { offset: 0x93D36, size: 0x8, addend: 0x0, symName: '__ZN50_$LT$T$u20$as$u20$core..convert..Into$LT$U$GT$$GT$4into17hdfe31151e73e4ddfE', symObjAddr: 0xD9E0, symBinAddr: 0x168A0, symSize: 0x24 }
  - { offset: 0x93D76, size: 0x8, addend: 0x0, symName: '__ZN50_$LT$T$u20$as$u20$core..convert..Into$LT$U$GT$$GT$4into17hf70dd4ee874455c1E', symObjAddr: 0xDA04, symBinAddr: 0x168C4, symSize: 0x24 }
  - { offset: 0x93DDE, size: 0x8, addend: 0x0, symName: '__ZN103_$LT$pyo3..instance..Bound$LT$pyo3..types..any..PyAny$GT$$u20$as$u20$pyo3..types..any..PyAnyMethods$GT$20is_exact_instance_of17hfea355c0ee60fd75E', symObjAddr: 0x160, symBinAddr: 0x12968, symSize: 0x24 }
  - { offset: 0x93E15, size: 0x8, addend: 0x0, symName: '__ZN103_$LT$pyo3..instance..Bound$LT$pyo3..types..any..PyAny$GT$$u20$as$u20$pyo3..types..any..PyAnyMethods$GT$2is17h3acb858eb8c0349eE', symObjAddr: 0x184, symBinAddr: 0x1298C, symSize: 0xA4 }
  - { offset: 0x93E81, size: 0x8, addend: 0x0, symName: '__ZN103_$LT$pyo3..instance..Bound$LT$pyo3..types..any..PyAny$GT$$u20$as$u20$pyo3..types..any..PyAnyMethods$GT$3str17hc57f3977930dc90bE', symObjAddr: 0xBA8, symBinAddr: 0x12A30, symSize: 0x5C }
  - { offset: 0x93EAF, size: 0x8, addend: 0x0, symName: '__ZN103_$LT$pyo3..instance..Bound$LT$pyo3..types..any..PyAny$GT$$u20$as$u20$pyo3..types..any..PyAnyMethods$GT$4repr17hc0b016b2e0a7c907E', symObjAddr: 0xF70, symBinAddr: 0x12A8C, symSize: 0x5C }
  - { offset: 0x93EDD, size: 0x8, addend: 0x0, symName: '__ZN103_$LT$pyo3..instance..Bound$LT$pyo3..types..any..PyAny$GT$$u20$as$u20$pyo3..types..any..PyAnyMethods$GT$5call017h77f721c60bc5ff94E', symObjAddr: 0xFCC, symBinAddr: 0x12AE8, symSize: 0x4C }
  - { offset: 0x93F0B, size: 0x8, addend: 0x0, symName: '__ZN103_$LT$pyo3..instance..Bound$LT$pyo3..types..any..PyAny$GT$$u20$as$u20$pyo3..types..any..PyAnyMethods$GT$7extract17hfe48b1616f9942ddE', symObjAddr: 0x13A0, symBinAddr: 0x12B34, symSize: 0x30 }
  - { offset: 0x93F42, size: 0x8, addend: 0x0, symName: '__ZN103_$LT$pyo3..instance..Bound$LT$pyo3..types..any..PyAny$GT$$u20$as$u20$pyo3..types..any..PyAnyMethods$GT$7getattr17h8bc01dd81b0492f2E', symObjAddr: 0x13D0, symBinAddr: 0x12B64, symSize: 0x148 }
  - { offset: 0x93FC8, size: 0x8, addend: 0x0, symName: '__ZN103_$LT$pyo3..instance..Bound$LT$pyo3..types..any..PyAny$GT$$u20$as$u20$pyo3..types..any..PyAnyMethods$GT$7setattr17h1dada5e7b182f7f5E', symObjAddr: 0x16CC, symBinAddr: 0x12CAC, symSize: 0x234 }
  - { offset: 0x94095, size: 0x8, addend: 0x0, symName: '__ZN103_$LT$pyo3..instance..Bound$LT$pyo3..types..any..PyAny$GT$$u20$as$u20$pyo3..types..any..PyAnyMethods$GT$7setattr17hb5ab5825f61dece0E', symObjAddr: 0x1900, symBinAddr: 0x12EE0, symSize: 0x234 }
  - { offset: 0x94162, size: 0x8, addend: 0x0, symName: '__ZN103_$LT$pyo3..instance..Bound$LT$pyo3..types..any..PyAny$GT$$u20$as$u20$pyo3..types..any..PyAnyMethods$GT$8get_type17hb1d7fbbd76cd3870E', symObjAddr: 0x1DE0, symBinAddr: 0x13114, symSize: 0x38 }
  - { offset: 0x94235, size: 0x8, addend: 0x0, symName: '__ZN107_$LT$pyo3..instance..Bound$LT$pyo3..types..list..PyList$GT$$u20$as$u20$pyo3..types..list..PyListMethods$GT$6append17hadb9c964fb94e87fE', symObjAddr: 0x29E0, symBinAddr: 0x13194, symSize: 0x14C }
  - { offset: 0x942CC, size: 0x8, addend: 0x0, symName: '__ZN111_$LT$pyo3..instance..Bound$LT$pyo3..types..bytes..PyBytes$GT$$u20$as$u20$pyo3..types..bytes..PyBytesMethods$GT$8as_bytes17h439df7ca544ca7cbE', symObjAddr: 0x2CCC, symBinAddr: 0x132E0, symSize: 0x28 }
  - { offset: 0x94319, size: 0x8, addend: 0x0, symName: '__ZN111_$LT$pyo3..instance..Bound$LT$pyo3..types..float..PyFloat$GT$$u20$as$u20$pyo3..types..float..PyFloatMethods$GT$5value17h39cb62c724718450E', symObjAddr: 0x2CF4, symBinAddr: 0x13308, symSize: 0x28 }
  - { offset: 0x9439C, size: 0x8, addend: 0x0, symName: '__ZN111_$LT$pyo3..instance..Bound$LT$pyo3..types..tuple..PyTuple$GT$$u20$as$u20$pyo3..types..tuple..PyTupleMethods$GT$3len17hb847521f9e1fd8a9E', symObjAddr: 0x3280, symBinAddr: 0x13330, symSize: 0x2C }
  - { offset: 0x943C8, size: 0x8, addend: 0x0, symName: '__ZN111_$LT$pyo3..instance..Bound$LT$pyo3..types..tuple..PyTuple$GT$$u20$as$u20$pyo3..types..tuple..PyTupleMethods$GT$4iter17h2514a30e61ea98fbE', symObjAddr: 0x32AC, symBinAddr: 0x1335C, symSize: 0x30 }
  - { offset: 0x944E0, size: 0x8, addend: 0x0, symName: '__ZN115_$LT$pyo3..instance..Bound$LT$pyo3..types..module..PyModule$GT$$u20$as$u20$pyo3..types..module..PyModuleMethods$GT$5index17hf8b03156d408b8e9E', symObjAddr: 0x4168, symBinAddr: 0x1338C, symSize: 0x25C }
  - { offset: 0x945B3, size: 0x8, addend: 0x0, symName: '__ZN115_$LT$pyo3..instance..Bound$LT$pyo3..types..string..PyString$GT$$u20$as$u20$pyo3..types..string..PyStringMethods$GT$15to_string_lossy17hb83d798794e91d85E', symObjAddr: 0x4494, symBinAddr: 0x135E8, symSize: 0x30 }
  - { offset: 0x945E1, size: 0x8, addend: 0x0, symName: '__ZN115_$LT$pyo3..instance..Bound$LT$pyo3..types..string..PyString$GT$$u20$as$u20$pyo3..types..string..PyStringMethods$GT$6to_cow17h34a3a15cc525bacaE', symObjAddr: 0x44F4, symBinAddr: 0x13618, symSize: 0x30 }
  - { offset: 0x946E5, size: 0x8, addend: 0x0, symName: '__ZN119_$LT$pyo3..instance..Bound$LT$pyo3..types..typeobject..PyType$GT$$u20$as$u20$pyo3..types..typeobject..PyTypeMethods$GT$11as_type_ptr17hbc0c53418c6aa9d8E', symObjAddr: 0x4D40, symBinAddr: 0x13648, symSize: 0x24 }
  - { offset: 0x94711, size: 0x8, addend: 0x0, symName: '__ZN119_$LT$pyo3..instance..Bound$LT$pyo3..types..typeobject..PyType$GT$$u20$as$u20$pyo3..types..typeobject..PyTypeMethods$GT$4name17hd65f0161e587ff0fE', symObjAddr: 0x4FE8, symBinAddr: 0x1366C, symSize: 0xE0 }
  - { offset: 0x9477A, size: 0x8, addend: 0x0, symName: '__ZN119_$LT$pyo3..instance..Bound$LT$pyo3..types..typeobject..PyType$GT$$u20$as$u20$pyo3..types..typeobject..PyTypeMethods$GT$8qualname17hba3155c35a7131aaE', symObjAddr: 0x52A8, symBinAddr: 0x1374C, symSize: 0xE0 }
  - { offset: 0x94855, size: 0x8, addend: 0x0, symName: '__ZN127_$LT$pyo3..instance..Bound$LT$pyo3..types..traceback..PyTraceback$GT$$u20$as$u20$pyo3..types..traceback..PyTracebackMethods$GT$6format17h4ad9ab7eeaf43841E', symObjAddr: 0x5658, symBinAddr: 0x1382C, symSize: 0x670 }
  - { offset: 0x94B89, size: 0x8, addend: 0x0, symName: '__ZN105_$LT$pyo3..instance..Py$LT$T$GT$$u20$as$u20$core..convert..From$LT$pyo3..instance..Bound$LT$T$GT$$GT$$GT$4from17h2830544947dc30efE', symObjAddr: 0x20AC, symBinAddr: 0x1314C, symSize: 0x24 }
  - { offset: 0x94BC0, size: 0x8, addend: 0x0, symName: '__ZN105_$LT$pyo3..instance..Py$LT$T$GT$$u20$as$u20$core..convert..From$LT$pyo3..instance..Bound$LT$T$GT$$GT$$GT$4from17hd13057440bacce11E', symObjAddr: 0x20F4, symBinAddr: 0x13170, symSize: 0x24 }
  - { offset: 0x94BFD, size: 0x8, addend: 0x0, symName: '__ZN127_$LT$pyo3..instance..Py$LT$pyo3..types..any..PyAny$GT$$u20$as$u20$core..convert..From$LT$pyo3..instance..Bound$LT$T$GT$$GT$$GT$4from17h21688e19c446d55eE', symObjAddr: 0x5CC8, symBinAddr: 0x13E9C, symSize: 0x28 }
  - { offset: 0x94C3A, size: 0x8, addend: 0x0, symName: '__ZN128_$LT$pyo3..instance..Bound$LT$T$GT$$u20$as$u20$core..convert..AsRef$LT$pyo3..instance..Py$LT$pyo3..types..any..PyAny$GT$$GT$$GT$6as_ref17h466448994feae9aaE', symObjAddr: 0x5CF0, symBinAddr: 0x13EC4, symSize: 0x28 }
  - { offset: 0x96DC7, size: 0x8, addend: 0x0, symName: '__ZN4pyo38instance11Py$LT$T$GT$21from_owned_ptr_or_opt28_$u7b$$u7b$closure$u7d$$u7d$17h694fc3ebb9d6d294E', symObjAddr: 0x8834, symBinAddr: 0x1472C, symSize: 0x1C }
  - { offset: 0x97772, size: 0x8, addend: 0x0, symName: __ZN4pyo38instance13python_format17hd5b200ad7d5b4abaE, symObjAddr: 0x9F48, symBinAddr: 0x150F4, symSize: 0x2F8 }
  - { offset: 0x989DF, size: 0x8, addend: 0x0, symName: '__ZN4pyo38instance14Bound$LT$T$GT$4cast5inner17h02d36a24a551dfd2E', symObjAddr: 0xAED4, symBinAddr: 0x158F8, symSize: 0x84 }
  - { offset: 0x98A14, size: 0x8, addend: 0x0, symName: '__ZN4pyo38instance14Bound$LT$T$GT$4cast5inner17h93ac4bb158a442e6E', symObjAddr: 0xAFDC, symBinAddr: 0x1597C, symSize: 0x84 }
  - { offset: 0x98A49, size: 0x8, addend: 0x0, symName: '__ZN4pyo38instance14Bound$LT$T$GT$4cast5inner17hdc86a4efe2e46b48E', symObjAddr: 0xB060, symBinAddr: 0x15A00, symSize: 0x84 }
  - { offset: 0x98A84, size: 0x8, addend: 0x0, symName: '__ZN4pyo38instance14Bound$LT$T$GT$9cast_into5inner17h052c0034f15f635dE', symObjAddr: 0xC1BC, symBinAddr: 0x160B0, symSize: 0xFC }
  - { offset: 0x98AD6, size: 0x8, addend: 0x0, symName: '__ZN4pyo38instance14Bound$LT$T$GT$9cast_into5inner17h2b71e91ad468aee0E', symObjAddr: 0xC4B0, symBinAddr: 0x161AC, symSize: 0xFC }
  - { offset: 0x98B6A, size: 0x8, addend: 0x0, symName: '__ZN4pyo38instance17Borrowed$LT$T$GT$10cast_exact5inner17h7e405bb094380765E', symObjAddr: 0xC9CC, symBinAddr: 0x162D8, symSize: 0x7C }
  - { offset: 0x98BA7, size: 0x8, addend: 0x0, symName: '__ZN4pyo38instance17Borrowed$LT$T$GT$4cast5inner17h9deba6c4bb740373E', symObjAddr: 0xCE44, symBinAddr: 0x16424, symSize: 0x7C }
  - { offset: 0x98D36, size: 0x8, addend: 0x0, symName: '__ZN4pyo38instance36Bound$LT$pyo3..types..any..PyAny$GT$21from_owned_ptr_or_err28_$u7b$$u7b$closure$u7d$$u7d$17h65e93ff32f25a154E', symObjAddr: 0xD6AC, symBinAddr: 0x16710, symSize: 0x30 }
  - { offset: 0x98D98, size: 0x8, addend: 0x0, symName: '__ZN4pyo38instance36Bound$LT$pyo3..types..any..PyAny$GT$21from_owned_ptr_or_opt28_$u7b$$u7b$closure$u7d$$u7d$17h1102557267d5cb34E', symObjAddr: 0xD708, symBinAddr: 0x1676C, symSize: 0x30 }
  - { offset: 0x98E00, size: 0x8, addend: 0x0, symName: '__ZN4pyo38instance39Borrowed$LT$pyo3..types..any..PyAny$GT$8from_ptr28_$u7b$$u7b$closure$u7d$$u7d$17hba401fa0adb6e82dE', symObjAddr: 0xD8B4, symBinAddr: 0x167E0, symSize: 0x1C }
  - { offset: 0x98E54, size: 0x8, addend: 0x0, symName: '__ZN67_$LT$pyo3..instance..Bound$LT$T$GT$$u20$as$u20$core..fmt..Debug$GT$3fmt17h30322dd23fdd572eE', symObjAddr: 0xDA28, symBinAddr: 0x168E8, symSize: 0x54 }
  - { offset: 0x98EB8, size: 0x8, addend: 0x0, symName: '__ZN67_$LT$pyo3..instance..Bound$LT$T$GT$$u20$as$u20$core..fmt..Debug$GT$3fmt17h3893cb73388c7d25E', symObjAddr: 0xDA7C, symBinAddr: 0x1693C, symSize: 0x54 }
  - { offset: 0x98F1C, size: 0x8, addend: 0x0, symName: '__ZN67_$LT$pyo3..instance..Bound$LT$T$GT$$u20$as$u20$core..fmt..Debug$GT$3fmt17hb431cb833276091fE', symObjAddr: 0xDB24, symBinAddr: 0x16990, symSize: 0x54 }
  - { offset: 0x98F86, size: 0x8, addend: 0x0, symName: '__ZN69_$LT$pyo3..instance..Bound$LT$T$GT$$u20$as$u20$core..clone..Clone$GT$5clone17h98ea21c936cf1f12E', symObjAddr: 0xDC7C, symBinAddr: 0x169E4, symSize: 0x34 }
  - { offset: 0x98FBD, size: 0x8, addend: 0x0, symName: '__ZN69_$LT$pyo3..instance..Bound$LT$T$GT$$u20$as$u20$core..clone..Clone$GT$5clone17hcf168b8545306966E', symObjAddr: 0xDD18, symBinAddr: 0x16A18, symSize: 0x34 }
  - { offset: 0x98FF4, size: 0x8, addend: 0x0, symName: '__ZN69_$LT$pyo3..instance..Bound$LT$T$GT$$u20$as$u20$core..clone..Clone$GT$5clone17hec9b98b138639427E', symObjAddr: 0xDD80, symBinAddr: 0x16A4C, symSize: 0x34 }
  - { offset: 0x9902B, size: 0x8, addend: 0x0, symName: '__ZN69_$LT$pyo3..instance..Bound$LT$T$GT$$u20$as$u20$core..clone..Clone$GT$5clone17hfe59ff9fab376377E', symObjAddr: 0xDDE8, symBinAddr: 0x16A80, symSize: 0x34 }
  - { offset: 0x99068, size: 0x8, addend: 0x0, symName: '__ZN69_$LT$pyo3..instance..Bound$LT$T$GT$$u20$as$u20$core..fmt..Display$GT$3fmt17h43085d545bf53c1fE', symObjAddr: 0xDE1C, symBinAddr: 0x16AB4, symSize: 0x54 }
  - { offset: 0x990CC, size: 0x8, addend: 0x0, symName: '__ZN69_$LT$pyo3..instance..Bound$LT$T$GT$$u20$as$u20$core..fmt..Display$GT$3fmt17haf575d639fa4bbc4E', symObjAddr: 0xDEC4, symBinAddr: 0x16B08, symSize: 0x54 }
  - { offset: 0x99130, size: 0x8, addend: 0x0, symName: '__ZN69_$LT$pyo3..instance..Bound$LT$T$GT$$u20$as$u20$core..fmt..Display$GT$3fmt17he5f29eae0c73b839E', symObjAddr: 0xDF18, symBinAddr: 0x16B5C, symSize: 0x54 }
  - { offset: 0x9919A, size: 0x8, addend: 0x0, symName: '__ZN69_$LT$pyo3..instance..Py$LT$T$GT$$u20$as$u20$core..ops..drop..Drop$GT$4drop17h2501d71355428172E', symObjAddr: 0xDF6C, symBinAddr: 0x16BB0, symSize: 0x28 }
  - { offset: 0x991CD, size: 0x8, addend: 0x0, symName: '__ZN69_$LT$pyo3..instance..Py$LT$T$GT$$u20$as$u20$core..ops..drop..Drop$GT$4drop17h9cf9e82ee23b3367E', symObjAddr: 0xDFBC, symBinAddr: 0x16BD8, symSize: 0x28 }
  - { offset: 0x99200, size: 0x8, addend: 0x0, symName: '__ZN69_$LT$pyo3..instance..Py$LT$T$GT$$u20$as$u20$core..ops..drop..Drop$GT$4drop17hc910c9bfdf82d5d2E', symObjAddr: 0xDFE4, symBinAddr: 0x16C00, symSize: 0x28 }
  - { offset: 0x99233, size: 0x8, addend: 0x0, symName: '__ZN69_$LT$pyo3..instance..Py$LT$T$GT$$u20$as$u20$core..ops..drop..Drop$GT$4drop17hd84e3a0ccc1c4108E', symObjAddr: 0xE00C, symBinAddr: 0x16C28, symSize: 0x28 }
  - { offset: 0x99266, size: 0x8, addend: 0x0, symName: '__ZN69_$LT$pyo3..instance..Py$LT$T$GT$$u20$as$u20$core..ops..drop..Drop$GT$4drop17he0a815ec7c692922E', symObjAddr: 0xE034, symBinAddr: 0x16C50, symSize: 0x28 }
  - { offset: 0x9929E, size: 0x8, addend: 0x0, symName: '__ZN69_$LT$pyo3..instance..Py$LT$T$GT$$u20$as$u20$core..ops..drop..Drop$GT$4drop5inner17h9dbfcc8229457ff9E', symObjAddr: 0xE084, symBinAddr: 0x16C78, symSize: 0x1D4 }
  - { offset: 0x99319, size: 0x8, addend: 0x0, symName: '__ZN69_$LT$pyo3..instance..Py$LT$T$GT$$u20$as$u20$core..ops..drop..Drop$GT$4drop9drop_slow17h9602764fa1280d1eE', symObjAddr: 0xE258, symBinAddr: 0x6EFB4, symSize: 0x24 }
  - { offset: 0x9934A, size: 0x8, addend: 0x0, symName: '__ZN72_$LT$pyo3..instance..Bound$LT$T$GT$$u20$as$u20$core..ops..drop..Drop$GT$4drop17h086cb20af1a7dedcE', symObjAddr: 0xE2B0, symBinAddr: 0x16E4C, symSize: 0x1A0 }
  - { offset: 0x993B9, size: 0x8, addend: 0x0, symName: '__ZN72_$LT$pyo3..instance..Bound$LT$T$GT$$u20$as$u20$core..ops..drop..Drop$GT$4drop17h1e48be9f575bc1f6E', symObjAddr: 0xE450, symBinAddr: 0x16FEC, symSize: 0x1A0 }
  - { offset: 0x99428, size: 0x8, addend: 0x0, symName: '__ZN72_$LT$pyo3..instance..Bound$LT$T$GT$$u20$as$u20$core..ops..drop..Drop$GT$4drop17h3c32ac52585c8c02E', symObjAddr: 0xE5F0, symBinAddr: 0x1718C, symSize: 0x1A0 }
  - { offset: 0x99497, size: 0x8, addend: 0x0, symName: '__ZN72_$LT$pyo3..instance..Bound$LT$T$GT$$u20$as$u20$core..ops..drop..Drop$GT$4drop17h5e8114f45833d36dE', symObjAddr: 0xEAD0, symBinAddr: 0x1732C, symSize: 0x1A0 }
  - { offset: 0x99506, size: 0x8, addend: 0x0, symName: '__ZN72_$LT$pyo3..instance..Bound$LT$T$GT$$u20$as$u20$core..ops..drop..Drop$GT$4drop17h72e784f8ba1f9155E', symObjAddr: 0xEFB0, symBinAddr: 0x174CC, symSize: 0x1A0 }
  - { offset: 0x99575, size: 0x8, addend: 0x0, symName: '__ZN72_$LT$pyo3..instance..Bound$LT$T$GT$$u20$as$u20$core..ops..drop..Drop$GT$4drop17hb0bc36739c5e2054E', symObjAddr: 0xF2F0, symBinAddr: 0x1766C, symSize: 0x1A0 }
  - { offset: 0x995E4, size: 0x8, addend: 0x0, symName: '__ZN72_$LT$pyo3..instance..Bound$LT$T$GT$$u20$as$u20$core..ops..drop..Drop$GT$4drop17hc7ffa08f86064668E', symObjAddr: 0xF630, symBinAddr: 0x1780C, symSize: 0x1A0 }
  - { offset: 0x99653, size: 0x8, addend: 0x0, symName: '__ZN72_$LT$pyo3..instance..Bound$LT$T$GT$$u20$as$u20$core..ops..drop..Drop$GT$4drop17hd449cb5b9ecc4054E', symObjAddr: 0xF7D0, symBinAddr: 0x179AC, symSize: 0x1A0 }
  - { offset: 0x996C2, size: 0x8, addend: 0x0, symName: '__ZN72_$LT$pyo3..instance..Bound$LT$T$GT$$u20$as$u20$core..ops..drop..Drop$GT$4drop17heee4f6bf0c7de639E', symObjAddr: 0xFE50, symBinAddr: 0x17B4C, symSize: 0x1A0 }
  - { offset: 0x99737, size: 0x8, addend: 0x0, symName: '__ZN74_$LT$pyo3..instance..Bound$LT$T$GT$$u20$as$u20$core..ops..deref..Deref$GT$5deref17h33a36968afbaaa7dE', symObjAddr: 0x10190, symBinAddr: 0x17CEC, symSize: 0x24 }
  - { offset: 0x9976E, size: 0x8, addend: 0x0, symName: '__ZN74_$LT$pyo3..instance..Bound$LT$T$GT$$u20$as$u20$core..ops..deref..Deref$GT$5deref17h62154985c95f787dE', symObjAddr: 0x101D8, symBinAddr: 0x17D10, symSize: 0x24 }
  - { offset: 0x997A5, size: 0x8, addend: 0x0, symName: '__ZN74_$LT$pyo3..instance..Bound$LT$T$GT$$u20$as$u20$core..ops..deref..Deref$GT$5deref17h9ce4533bb5476fecE', symObjAddr: 0x102B0, symBinAddr: 0x17D34, symSize: 0x24 }
  - { offset: 0x997DC, size: 0x8, addend: 0x0, symName: '__ZN74_$LT$pyo3..instance..Bound$LT$T$GT$$u20$as$u20$core..ops..deref..Deref$GT$5deref17hfd1ff61cfeb4c422E', symObjAddr: 0x10340, symBinAddr: 0x17D58, symSize: 0x24 }
  - { offset: 0x99819, size: 0x8, addend: 0x0, symName: '__ZN77_$LT$pyo3..instance..Borrowed$LT$T$GT$$u20$as$u20$core..ops..deref..Deref$GT$5deref17h1fe9cfda0bb4d074E', symObjAddr: 0x103B4, symBinAddr: 0x17D7C, symSize: 0x28 }
  - { offset: 0x99850, size: 0x8, addend: 0x0, symName: '__ZN77_$LT$pyo3..instance..Borrowed$LT$T$GT$$u20$as$u20$core..ops..deref..Deref$GT$5deref17h24ef54006ba08e5eE', symObjAddr: 0x10404, symBinAddr: 0x17DA4, symSize: 0x28 }
  - { offset: 0x99887, size: 0x8, addend: 0x0, symName: '__ZN77_$LT$pyo3..instance..Borrowed$LT$T$GT$$u20$as$u20$core..ops..deref..Deref$GT$5deref17h262d34c759fee3d1E', symObjAddr: 0x1042C, symBinAddr: 0x17DCC, symSize: 0x28 }
  - { offset: 0x998BE, size: 0x8, addend: 0x0, symName: '__ZN77_$LT$pyo3..instance..Borrowed$LT$T$GT$$u20$as$u20$core..ops..deref..Deref$GT$5deref17h6abb25d7bdbcd4aaE', symObjAddr: 0x10454, symBinAddr: 0x17DF4, symSize: 0x28 }
  - { offset: 0x998F5, size: 0x8, addend: 0x0, symName: '__ZN77_$LT$pyo3..instance..Borrowed$LT$T$GT$$u20$as$u20$core..ops..deref..Deref$GT$5deref17h92b525197f18254fE', symObjAddr: 0x1047C, symBinAddr: 0x17E1C, symSize: 0x28 }
  - { offset: 0x9992C, size: 0x8, addend: 0x0, symName: '__ZN77_$LT$pyo3..instance..Borrowed$LT$T$GT$$u20$as$u20$core..ops..deref..Deref$GT$5deref17hb32f0bbcbbf86585E', symObjAddr: 0x104F4, symBinAddr: 0x17E44, symSize: 0x28 }
  - { offset: 0x99963, size: 0x8, addend: 0x0, symName: '__ZN77_$LT$pyo3..instance..Borrowed$LT$T$GT$$u20$as$u20$core..ops..deref..Deref$GT$5deref17hd1f6a80005409329E', symObjAddr: 0x1056C, symBinAddr: 0x17E6C, symSize: 0x28 }
  - { offset: 0x999A0, size: 0x8, addend: 0x0, symName: '__ZN87_$LT$pyo3..instance..Bound$LT$T$GT$$u20$as$u20$pyo3..instance..BoundObject$LT$T$GT$$GT$10into_bound17h34458aecaeff2c51E', symObjAddr: 0x107E0, symBinAddr: 0x17F4C, symSize: 0x14 }
  - { offset: 0x999D7, size: 0x8, addend: 0x0, symName: '__ZN87_$LT$pyo3..instance..Bound$LT$T$GT$$u20$as$u20$pyo3..instance..BoundObject$LT$T$GT$$GT$11as_borrowed17h6a1696b5f030312fE', symObjAddr: 0x107F4, symBinAddr: 0x17F60, symSize: 0x24 }
  - { offset: 0x99A0E, size: 0x8, addend: 0x0, symName: '__ZN87_$LT$pyo3..instance..Bound$LT$T$GT$$u20$as$u20$pyo3..instance..BoundObject$LT$T$GT$$GT$6unbind17hf8620e5db89e9e3bE', symObjAddr: 0x10860, symBinAddr: 0x17F84, symSize: 0x24 }
  - { offset: 0x99A45, size: 0x8, addend: 0x0, symName: '__ZN87_$LT$pyo3..instance..Bound$LT$T$GT$$u20$as$u20$pyo3..instance..BoundObject$LT$T$GT$$GT$8into_any17h07f01e906e0c4be4E', symObjAddr: 0x10884, symBinAddr: 0x17FA8, symSize: 0x24 }
  - { offset: 0x99A7C, size: 0x8, addend: 0x0, symName: '__ZN87_$LT$pyo3..instance..Bound$LT$T$GT$$u20$as$u20$pyo3..instance..BoundObject$LT$T$GT$$GT$8into_any17h9819df9581f5f311E', symObjAddr: 0x108F0, symBinAddr: 0x17FCC, symSize: 0x24 }
  - { offset: 0x99AB3, size: 0x8, addend: 0x0, symName: '__ZN87_$LT$pyo3..instance..Bound$LT$T$GT$$u20$as$u20$pyo3..instance..BoundObject$LT$T$GT$$GT$8into_any17hecc4ba8a2156c7beE', symObjAddr: 0x10980, symBinAddr: 0x17FF0, symSize: 0x24 }
  - { offset: 0x99AF0, size: 0x8, addend: 0x0, symName: '__ZN90_$LT$pyo3..instance..Borrowed$LT$T$GT$$u20$as$u20$pyo3..instance..BoundObject$LT$T$GT$$GT$11as_borrowed17hf75e486d7d386c4cE', symObjAddr: 0x109D0, symBinAddr: 0x18014, symSize: 0x18 }
  - { offset: 0x99B27, size: 0x8, addend: 0x0, symName: '__ZN90_$LT$pyo3..instance..Borrowed$LT$T$GT$$u20$as$u20$pyo3..instance..BoundObject$LT$T$GT$$GT$11as_borrowed17hfa722baca076a4c3E', symObjAddr: 0x109E8, symBinAddr: 0x1802C, symSize: 0x18 }
  - { offset: 0x99B5E, size: 0x8, addend: 0x0, symName: '__ZN90_$LT$pyo3..instance..Borrowed$LT$T$GT$$u20$as$u20$pyo3..instance..BoundObject$LT$T$GT$$GT$6as_ptr17h068e653750112e8fE', symObjAddr: 0x10A00, symBinAddr: 0x18044, symSize: 0x28 }
  - { offset: 0x99B95, size: 0x8, addend: 0x0, symName: '__ZN90_$LT$pyo3..instance..Borrowed$LT$T$GT$$u20$as$u20$pyo3..instance..BoundObject$LT$T$GT$$GT$8into_any17h1745b0295e0f6010E', symObjAddr: 0x10A28, symBinAddr: 0x1806C, symSize: 0x24 }
  - { offset: 0x99BCC, size: 0x8, addend: 0x0, symName: '__ZN90_$LT$pyo3..instance..Borrowed$LT$T$GT$$u20$as$u20$pyo3..instance..BoundObject$LT$T$GT$$GT$8into_any17h3bedcc9d0347fc4dE', symObjAddr: 0x10A94, symBinAddr: 0x18090, symSize: 0x24 }
  - { offset: 0x99C03, size: 0x8, addend: 0x0, symName: '__ZN90_$LT$pyo3..instance..Borrowed$LT$T$GT$$u20$as$u20$pyo3..instance..BoundObject$LT$T$GT$$GT$8into_any17hd70490d0a0133517E', symObjAddr: 0x10AB8, symBinAddr: 0x180B4, symSize: 0x24 }
  - { offset: 0x99C3A, size: 0x8, addend: 0x0, symName: '__ZN90_$LT$pyo3..instance..Borrowed$LT$T$GT$$u20$as$u20$pyo3..instance..BoundObject$LT$T$GT$$GT$8into_any17hfd3f6c205a1bba33E', symObjAddr: 0x10B24, symBinAddr: 0x180D8, symSize: 0x24 }
  - { offset: 0x99C7D, size: 0x8, addend: 0x0, symName: '__ZN47_$LT$T$u20$as$u20$pyo3..err..PyErrArguments$GT$9arguments17ha79d1c19659b7cdaE', symObjAddr: 0x61DC, symBinAddr: 0x13F4C, symSize: 0x3C }
  - { offset: 0x99EB8, size: 0x8, addend: 0x0, symName: __ZN4pyo310conversion15IntoPyObjectExt22into_pyobject_or_pyerr17h52ed6c4bf202cda9E, symObjAddr: 0x6560, symBinAddr: 0x13FE0, symSize: 0x48 }
  - { offset: 0x99F23, size: 0x8, addend: 0x0, symName: __ZN4pyo310conversion15IntoPyObjectExt22into_pyobject_or_pyerr17h5ad7eb5b7152acd4E, symObjAddr: 0x65A8, symBinAddr: 0x14028, symSize: 0x48 }
  - { offset: 0x99F8E, size: 0x8, addend: 0x0, symName: __ZN4pyo310conversion15IntoPyObjectExt22into_pyobject_or_pyerr17h79fde79e17f4b1b4E, symObjAddr: 0x6638, symBinAddr: 0x14070, symSize: 0x48 }
  - { offset: 0x99FF9, size: 0x8, addend: 0x0, symName: __ZN4pyo310conversion15IntoPyObjectExt22into_pyobject_or_pyerr17hbc9f079c4ef169bfE, symObjAddr: 0x6710, symBinAddr: 0x140B8, symSize: 0x48 }
  - { offset: 0x9A06A, size: 0x8, addend: 0x0, symName: '__ZN78_$LT$pyo3..instance..Py$LT$T$GT$$u20$as$u20$pyo3..conversion..IntoPyObject$GT$13into_pyobject17h5898becdf8565787E', symObjAddr: 0x1060C, symBinAddr: 0x17E94, symSize: 0x24 }
  - { offset: 0x9A0BE, size: 0x8, addend: 0x0, symName: '__ZN84_$LT$pyo3..instance..Borrowed$LT$T$GT$$u20$as$u20$pyo3..conversion..IntoPyObject$GT$13into_pyobject17h89a5c9f2d36bee76E', symObjAddr: 0x106A8, symBinAddr: 0x17EB8, symSize: 0x14 }
  - { offset: 0x9A10C, size: 0x8, addend: 0x0, symName: '__ZN84_$LT$pyo3..instance..Borrowed$LT$T$GT$$u20$as$u20$pyo3..conversion..IntoPyObject$GT$13into_pyobject17hb74076fa6e3c6567E', symObjAddr: 0x106D0, symBinAddr: 0x17ECC, symSize: 0x14 }
  - { offset: 0x9A160, size: 0x8, addend: 0x0, symName: '__ZN85_$LT$$RF$pyo3..instance..Bound$LT$T$GT$$u20$as$u20$pyo3..conversion..IntoPyObject$GT$13into_pyobject17h165f49dfd57ae61cE', symObjAddr: 0x10708, symBinAddr: 0x17EE0, symSize: 0x24 }
  - { offset: 0x9A1AE, size: 0x8, addend: 0x0, symName: '__ZN85_$LT$$RF$pyo3..instance..Bound$LT$T$GT$$u20$as$u20$pyo3..conversion..IntoPyObject$GT$13into_pyobject17h3a397b93e2c06ca7E', symObjAddr: 0x1072C, symBinAddr: 0x17F04, symSize: 0x24 }
  - { offset: 0x9A1FC, size: 0x8, addend: 0x0, symName: '__ZN85_$LT$$RF$pyo3..instance..Bound$LT$T$GT$$u20$as$u20$pyo3..conversion..IntoPyObject$GT$13into_pyobject17h56daa7dc3d85c4acE', symObjAddr: 0x10750, symBinAddr: 0x17F28, symSize: 0x24 }
  - { offset: 0x9A88F, size: 0x8, addend: 0x0, symName: '__ZN4pyo35types4dict75_$LT$impl$u20$pyo3..instance..Borrowed$LT$pyo3..types..dict..PyDict$GT$$GT$13iter_borrowed17h8165e51e52429f8dE', symObjAddr: 0x689C, symBinAddr: 0x14100, symSize: 0x24 }
  - { offset: 0x9A8E6, size: 0x8, addend: 0x0, symName: '__ZN4pyo35types5bytes77_$LT$impl$u20$pyo3..instance..Borrowed$LT$pyo3..types..bytes..PyBytes$GT$$GT$8as_bytes17hcc7d7aaa980a9660E', symObjAddr: 0x6930, symBinAddr: 0x14124, symSize: 0x90 }
  - { offset: 0x9A93F, size: 0x8, addend: 0x0, symName: '__ZN4pyo35types5tuple77_$LT$impl$u20$pyo3..instance..Borrowed$LT$pyo3..types..tuple..PyTuple$GT$$GT$13iter_borrowed17h2bc75b3f27f7524eE', symObjAddr: 0x6F24, symBinAddr: 0x141B4, symSize: 0x24 }
  - { offset: 0x9ABB2, size: 0x8, addend: 0x0, symName: '__ZN4pyo35types5tuple77_$LT$impl$u20$pyo3..instance..Borrowed$LT$pyo3..types..tuple..PyTuple$GT$$GT$27get_borrowed_item_unchecked17h00bfbbee0411bd29E', symObjAddr: 0x6FA8, symBinAddr: 0x141D8, symSize: 0x58 }
  - { offset: 0x9AC1C, size: 0x8, addend: 0x0, symName: '__ZN4pyo35types6string79_$LT$impl$u20$pyo3..instance..Borrowed$LT$pyo3..types..string..PyString$GT$$GT$15to_string_lossy17hec9512fc1dd0a67dE', symObjAddr: 0x7150, symBinAddr: 0x14230, symSize: 0x174 }
  - { offset: 0x9ACE6, size: 0x8, addend: 0x0, symName: '__ZN4pyo35types6string79_$LT$impl$u20$pyo3..instance..Borrowed$LT$pyo3..types..string..PyString$GT$$GT$6to_cow17hbd2646c388c3a87cE', symObjAddr: 0x7430, symBinAddr: 0x143A4, symSize: 0x3C }
  - { offset: 0x9AD09, size: 0x8, addend: 0x0, symName: '__ZN4pyo35types6string79_$LT$impl$u20$pyo3..instance..Borrowed$LT$pyo3..types..string..PyString$GT$$GT$6to_str17hdc06b378816464d5E', symObjAddr: 0x746C, symBinAddr: 0x143E0, symSize: 0xD0 }
  - { offset: 0x9ADBA, size: 0x8, addend: 0x0, symName: '__ZN4pyo38instance11Py$LT$T$GT$10into_bound17hdf0ed732fff9e6baE', symObjAddr: 0x84C8, symBinAddr: 0x144B0, symSize: 0x1C }
  - { offset: 0x9AE01, size: 0x8, addend: 0x0, symName: '__ZN4pyo38instance11Py$LT$T$GT$10into_bound17hf93b9da46088d851E', symObjAddr: 0x84E4, symBinAddr: 0x144CC, symSize: 0x1C }
  - { offset: 0x9AE80, size: 0x8, addend: 0x0, symName: '__ZN4pyo38instance11Py$LT$T$GT$14from_owned_ptr17h83d5825b9a86ababE', symObjAddr: 0x859C, symBinAddr: 0x144E8, symSize: 0x54 }
  - { offset: 0x9AEC7, size: 0x8, addend: 0x0, symName: '__ZN4pyo38instance11Py$LT$T$GT$21from_owned_ptr_or_err17h1a38a86de2e3dcc4E', symObjAddr: 0x8644, symBinAddr: 0x1453C, symSize: 0x98 }
  - { offset: 0x9AF2C, size: 0x8, addend: 0x0, symName: '__ZN4pyo38instance11Py$LT$T$GT$21from_owned_ptr_or_err17h373c530a3af584d1E', symObjAddr: 0x86DC, symBinAddr: 0x145D4, symSize: 0x98 }
  - { offset: 0x9AF91, size: 0x8, addend: 0x0, symName: '__ZN4pyo38instance11Py$LT$T$GT$21from_owned_ptr_or_err17hbb5de531d3626733E', symObjAddr: 0x8774, symBinAddr: 0x1466C, symSize: 0x98 }
  - { offset: 0x9AFF6, size: 0x8, addend: 0x0, symName: '__ZN4pyo38instance11Py$LT$T$GT$21from_owned_ptr_or_opt17h209803cf64bf256bE', symObjAddr: 0x880C, symBinAddr: 0x14704, symSize: 0x28 }
  - { offset: 0x9B0DD, size: 0x8, addend: 0x0, symName: '__ZN4pyo38instance11Py$LT$T$GT$4bind17hae38e16e70eec9ffE', symObjAddr: 0x88F4, symBinAddr: 0x14748, symSize: 0x38 }
  - { offset: 0x9B192, size: 0x8, addend: 0x0, symName: '__ZN4pyo38instance11Py$LT$T$GT$4bind17hba24e73ae935ce44E', symObjAddr: 0x892C, symBinAddr: 0x14780, symSize: 0x38 }
  - { offset: 0x9B23A, size: 0x8, addend: 0x0, symName: '__ZN4pyo38instance11Py$LT$T$GT$4bind17hc13a302e4904343dE', symObjAddr: 0x8964, symBinAddr: 0x147B8, symSize: 0x38 }
  - { offset: 0x9B2EF, size: 0x8, addend: 0x0, symName: '__ZN4pyo38instance11Py$LT$T$GT$4bind17hcf4b2fb8778f8e96E', symObjAddr: 0x899C, symBinAddr: 0x147F0, symSize: 0x38 }
  - { offset: 0x9B354, size: 0x8, addend: 0x0, symName: '__ZN4pyo38instance11Py$LT$T$GT$6as_ptr17h1ae0fd6317b6f405E', symObjAddr: 0x89F0, symBinAddr: 0x14828, symSize: 0x1C }
  - { offset: 0x9B38D, size: 0x8, addend: 0x0, symName: '__ZN4pyo38instance11Py$LT$T$GT$6as_ptr17h2cc7ea37b842731aE', symObjAddr: 0x8A28, symBinAddr: 0x14844, symSize: 0x1C }
  - { offset: 0x9B3B9, size: 0x8, addend: 0x0, symName: '__ZN4pyo38instance11Py$LT$T$GT$6as_ptr17h378409e475c54f4cE', symObjAddr: 0x8A44, symBinAddr: 0x14860, symSize: 0x1C }
  - { offset: 0x9B3E5, size: 0x8, addend: 0x0, symName: '__ZN4pyo38instance11Py$LT$T$GT$6as_ptr17h3a4f55741967635bE', symObjAddr: 0x8A60, symBinAddr: 0x1487C, symSize: 0x1C }
  - { offset: 0x9B411, size: 0x8, addend: 0x0, symName: '__ZN4pyo38instance11Py$LT$T$GT$6as_ptr17h470ce769fad635dcE', symObjAddr: 0x8A7C, symBinAddr: 0x14898, symSize: 0x1C }
  - { offset: 0x9B457, size: 0x8, addend: 0x0, symName: '__ZN4pyo38instance11Py$LT$T$GT$6as_ptr17h6926b5bc9c27f9b7E', symObjAddr: 0x8AB4, symBinAddr: 0x148B4, symSize: 0x1C }
  - { offset: 0x9B49D, size: 0x8, addend: 0x0, symName: '__ZN4pyo38instance11Py$LT$T$GT$6as_ptr17h8acb44745211e11bE', symObjAddr: 0x8B08, symBinAddr: 0x148D0, symSize: 0x1C }
  - { offset: 0x9B4F0, size: 0x8, addend: 0x0, symName: '__ZN4pyo38instance11Py$LT$T$GT$6as_ptr17h9e3b9721b594c829E', symObjAddr: 0x8B94, symBinAddr: 0x148EC, symSize: 0x1C }
  - { offset: 0x9B543, size: 0x8, addend: 0x0, symName: '__ZN4pyo38instance11Py$LT$T$GT$6as_ptr17hae95ed0c23a2f2e9E', symObjAddr: 0x8C20, symBinAddr: 0x14908, symSize: 0x1C }
  - { offset: 0x9B56F, size: 0x8, addend: 0x0, symName: '__ZN4pyo38instance11Py$LT$T$GT$6as_ptr17hb93638901ee003f7E', symObjAddr: 0x8C3C, symBinAddr: 0x14924, symSize: 0x1C }
  - { offset: 0x9B5C2, size: 0x8, addend: 0x0, symName: '__ZN4pyo38instance11Py$LT$T$GT$6as_ptr17head5613aaa791087E', symObjAddr: 0x8CAC, symBinAddr: 0x14940, symSize: 0x1C }
  - { offset: 0x9B62F, size: 0x8, addend: 0x0, symName: '__ZN4pyo38instance11Py$LT$T$GT$8into_any17h4a1b8bf179a412d2E', symObjAddr: 0x8D84, symBinAddr: 0x1495C, symSize: 0x30 }
  - { offset: 0x9B65B, size: 0x8, addend: 0x0, symName: '__ZN4pyo38instance11Py$LT$T$GT$8into_any17h62a78ac614347051E', symObjAddr: 0x8DE4, symBinAddr: 0x1498C, symSize: 0x30 }
  - { offset: 0x9B687, size: 0x8, addend: 0x0, symName: '__ZN4pyo38instance11Py$LT$T$GT$8into_any17h977f4472b149fdaaE', symObjAddr: 0x8E44, symBinAddr: 0x149BC, symSize: 0x30 }
  - { offset: 0x9B6B3, size: 0x8, addend: 0x0, symName: '__ZN4pyo38instance11Py$LT$T$GT$8into_any17hb591c4ddbddc4d94E', symObjAddr: 0x8EA4, symBinAddr: 0x149EC, symSize: 0x30 }
  - { offset: 0x9B6DF, size: 0x8, addend: 0x0, symName: '__ZN4pyo38instance11Py$LT$T$GT$8into_any17hbb05ad29979cc345E', symObjAddr: 0x8ED4, symBinAddr: 0x14A1C, symSize: 0x30 }
  - { offset: 0x9B70B, size: 0x8, addend: 0x0, symName: '__ZN4pyo38instance11Py$LT$T$GT$8into_ptr17hb3c0498924eabf26E', symObjAddr: 0x8F34, symBinAddr: 0x14A4C, symSize: 0x30 }
  - { offset: 0x9B737, size: 0x8, addend: 0x0, symName: '__ZN4pyo38instance11Py$LT$T$GT$8into_ptr17hc9a644c747fabef1E', symObjAddr: 0x8F64, symBinAddr: 0x14A7C, symSize: 0x30 }
  - { offset: 0x9B763, size: 0x8, addend: 0x0, symName: '__ZN4pyo38instance11Py$LT$T$GT$9clone_ref17h354299910faa99d1E', symObjAddr: 0x91AC, symBinAddr: 0x14AAC, symSize: 0x10C }
  - { offset: 0x9B80C, size: 0x8, addend: 0x0, symName: '__ZN4pyo38instance11Py$LT$T$GT$9clone_ref17h659646d9e239c601E', symObjAddr: 0x94D0, symBinAddr: 0x14BB8, symSize: 0x10C }
  - { offset: 0x9B8A8, size: 0x8, addend: 0x0, symName: '__ZN4pyo38instance11Py$LT$T$GT$9clone_ref17hb695969ac8c682b6E', symObjAddr: 0x97F4, symBinAddr: 0x14CC4, symSize: 0x10C }
  - { offset: 0x9B944, size: 0x8, addend: 0x0, symName: '__ZN4pyo38instance11Py$LT$T$GT$9clone_ref17hc789af08d90ac9f5E', symObjAddr: 0x9900, symBinAddr: 0x14DD0, symSize: 0x10C }
  - { offset: 0x9B9E0, size: 0x8, addend: 0x0, symName: '__ZN4pyo38instance11Py$LT$T$GT$9clone_ref17hd2b70b078601f529E', symObjAddr: 0x9A0C, symBinAddr: 0x14EDC, symSize: 0x10C }
  - { offset: 0x9BA7C, size: 0x8, addend: 0x0, symName: '__ZN4pyo38instance11Py$LT$T$GT$9clone_ref17hfc18dfafb8c54bc8E', symObjAddr: 0x9D30, symBinAddr: 0x14FE8, symSize: 0x10C }
  - { offset: 0x9BB18, size: 0x8, addend: 0x0, symName: '__ZN4pyo38instance14Bound$LT$T$GT$10as_unbound17hf0a13528004e373dE', symObjAddr: 0xA240, symBinAddr: 0x153EC, symSize: 0x1C }
  - { offset: 0x9BB44, size: 0x8, addend: 0x0, symName: '__ZN4pyo38instance14Bound$LT$T$GT$11as_borrowed17h0e3284e62d6cdbbdE', symObjAddr: 0xA25C, symBinAddr: 0x15408, symSize: 0x40 }
  - { offset: 0x9BB70, size: 0x8, addend: 0x0, symName: '__ZN4pyo38instance14Bound$LT$T$GT$11as_borrowed17h951b7c323c516c5bE', symObjAddr: 0xA2DC, symBinAddr: 0x15448, symSize: 0x40 }
  - { offset: 0x9BB9C, size: 0x8, addend: 0x0, symName: '__ZN4pyo38instance14Bound$LT$T$GT$11as_borrowed17h990120830dc19882E', symObjAddr: 0xA31C, symBinAddr: 0x15488, symSize: 0x40 }
  - { offset: 0x9BBD5, size: 0x8, addend: 0x0, symName: '__ZN4pyo38instance14Bound$LT$T$GT$11as_borrowed17ha7ccc2db00a36053E', symObjAddr: 0xA35C, symBinAddr: 0x154C8, symSize: 0x40 }
  - { offset: 0x9BC01, size: 0x8, addend: 0x0, symName: '__ZN4pyo38instance14Bound$LT$T$GT$11as_borrowed17hbf4b46370bcbe4d5E', symObjAddr: 0xA39C, symBinAddr: 0x15508, symSize: 0x40 }
  - { offset: 0x9BC47, size: 0x8, addend: 0x0, symName: '__ZN4pyo38instance14Bound$LT$T$GT$11as_borrowed17hd74f1286dfe78299E', symObjAddr: 0xA41C, symBinAddr: 0x15548, symSize: 0x40 }
  - { offset: 0x9BC9A, size: 0x8, addend: 0x0, symName: '__ZN4pyo38instance14Bound$LT$T$GT$14cast_unchecked17h0fc8fa4247cf7586E', symObjAddr: 0xA554, symBinAddr: 0x15588, symSize: 0x38 }
  - { offset: 0x9BD23, size: 0x8, addend: 0x0, symName: '__ZN4pyo38instance14Bound$LT$T$GT$14cast_unchecked17h163d0dc9acfa9921E', symObjAddr: 0xA58C, symBinAddr: 0x155C0, symSize: 0x38 }
  - { offset: 0x9BDC6, size: 0x8, addend: 0x0, symName: '__ZN4pyo38instance14Bound$LT$T$GT$14cast_unchecked17h4be3acc2b3bf1fb8E', symObjAddr: 0xA634, symBinAddr: 0x155F8, symSize: 0x38 }
  - { offset: 0x9BE5C, size: 0x8, addend: 0x0, symName: '__ZN4pyo38instance14Bound$LT$T$GT$14cast_unchecked17h4c23410b06acb5fcE', symObjAddr: 0xA66C, symBinAddr: 0x15630, symSize: 0x38 }
  - { offset: 0x9BEFF, size: 0x8, addend: 0x0, symName: '__ZN4pyo38instance14Bound$LT$T$GT$14cast_unchecked17h5be8dccecce48511E', symObjAddr: 0xA6DC, symBinAddr: 0x15668, symSize: 0x38 }
  - { offset: 0x9BF6C, size: 0x8, addend: 0x0, symName: '__ZN4pyo38instance14Bound$LT$T$GT$14cast_unchecked17h6b0dbae27ae4518dE', symObjAddr: 0xA7BC, symBinAddr: 0x156A0, symSize: 0x38 }
  - { offset: 0x9BFCC, size: 0x8, addend: 0x0, symName: '__ZN4pyo38instance14Bound$LT$T$GT$14cast_unchecked17h87e0b1f21c6f2eb2E', symObjAddr: 0xA82C, symBinAddr: 0x156D8, symSize: 0x38 }
  - { offset: 0x9C02C, size: 0x8, addend: 0x0, symName: '__ZN4pyo38instance14Bound$LT$T$GT$19cast_into_unchecked17h1584cf4c27d9cf6cE', symObjAddr: 0xA9C8, symBinAddr: 0x15710, symSize: 0x14 }
  - { offset: 0x9C061, size: 0x8, addend: 0x0, symName: '__ZN4pyo38instance14Bound$LT$T$GT$19cast_into_unchecked17h254739f8a35c47feE', symObjAddr: 0xA9F0, symBinAddr: 0x15724, symSize: 0x14 }
  - { offset: 0x9C096, size: 0x8, addend: 0x0, symName: '__ZN4pyo38instance14Bound$LT$T$GT$19cast_into_unchecked17h42e18bf189a9423aE', symObjAddr: 0xAA54, symBinAddr: 0x15738, symSize: 0x14 }
  - { offset: 0x9C0CB, size: 0x8, addend: 0x0, symName: '__ZN4pyo38instance14Bound$LT$T$GT$19cast_into_unchecked17h4b6783dd2836f7eaE', symObjAddr: 0xAA7C, symBinAddr: 0x1574C, symSize: 0x14 }
  - { offset: 0x9C100, size: 0x8, addend: 0x0, symName: '__ZN4pyo38instance14Bound$LT$T$GT$19cast_into_unchecked17h6e511af7cc7d4fe2E', symObjAddr: 0xAAE0, symBinAddr: 0x15760, symSize: 0x14 }
  - { offset: 0x9C135, size: 0x8, addend: 0x0, symName: '__ZN4pyo38instance14Bound$LT$T$GT$19cast_into_unchecked17h71b0b5fe8a04566dE', symObjAddr: 0xAAF4, symBinAddr: 0x15774, symSize: 0x14 }
  - { offset: 0x9C16A, size: 0x8, addend: 0x0, symName: '__ZN4pyo38instance14Bound$LT$T$GT$19cast_into_unchecked17h84a802f05b84f313E', symObjAddr: 0xAB30, symBinAddr: 0x15788, symSize: 0x14 }
  - { offset: 0x9C19F, size: 0x8, addend: 0x0, symName: '__ZN4pyo38instance14Bound$LT$T$GT$19cast_into_unchecked17h868471dcc376b76fE', symObjAddr: 0xAB44, symBinAddr: 0x1579C, symSize: 0x14 }
  - { offset: 0x9C1D4, size: 0x8, addend: 0x0, symName: '__ZN4pyo38instance14Bound$LT$T$GT$19cast_into_unchecked17hac20beb18fa70c82E', symObjAddr: 0xABBC, symBinAddr: 0x157B0, symSize: 0x14 }
  - { offset: 0x9C209, size: 0x8, addend: 0x0, symName: '__ZN4pyo38instance14Bound$LT$T$GT$19cast_into_unchecked17hf796b52b81a16195E', symObjAddr: 0xAC5C, symBinAddr: 0x157C4, symSize: 0x14 }
  - { offset: 0x9C23E, size: 0x8, addend: 0x0, symName: '__ZN4pyo38instance14Bound$LT$T$GT$2py17h09bef85c7297c17eE', symObjAddr: 0xAC84, symBinAddr: 0x157D8, symSize: 0x10 }
  - { offset: 0x9C277, size: 0x8, addend: 0x0, symName: '__ZN4pyo38instance14Bound$LT$T$GT$2py17h11470be519dc5839E', symObjAddr: 0xACA4, symBinAddr: 0x157E8, symSize: 0x10 }
  - { offset: 0x9C2BD, size: 0x8, addend: 0x0, symName: '__ZN4pyo38instance14Bound$LT$T$GT$2py17h22cf13eaf343e2d1E', symObjAddr: 0xACD4, symBinAddr: 0x157F8, symSize: 0x10 }
  - { offset: 0x9C2E9, size: 0x8, addend: 0x0, symName: '__ZN4pyo38instance14Bound$LT$T$GT$2py17h266b914c03292d4aE', symObjAddr: 0xACE4, symBinAddr: 0x15808, symSize: 0x10 }
  - { offset: 0x9C315, size: 0x8, addend: 0x0, symName: '__ZN4pyo38instance14Bound$LT$T$GT$2py17h5b52d685fb247a5bE', symObjAddr: 0xAD14, symBinAddr: 0x15818, symSize: 0x10 }
  - { offset: 0x9C34E, size: 0x8, addend: 0x0, symName: '__ZN4pyo38instance14Bound$LT$T$GT$2py17h7f6e7f2205da42a4E', symObjAddr: 0xAD44, symBinAddr: 0x15828, symSize: 0x10 }
  - { offset: 0x9C387, size: 0x8, addend: 0x0, symName: '__ZN4pyo38instance14Bound$LT$T$GT$2py17h9dfe1b5d8794e5b4E', symObjAddr: 0xAD84, symBinAddr: 0x15838, symSize: 0x10 }
  - { offset: 0x9C3CD, size: 0x8, addend: 0x0, symName: '__ZN4pyo38instance14Bound$LT$T$GT$2py17hb3ae6164fef25f90E', symObjAddr: 0xADB4, symBinAddr: 0x15848, symSize: 0x10 }
  - { offset: 0x9C406, size: 0x8, addend: 0x0, symName: '__ZN4pyo38instance14Bound$LT$T$GT$2py17hd680f3341c249e21E', symObjAddr: 0xADE4, symBinAddr: 0x15858, symSize: 0x10 }
  - { offset: 0x9C43F, size: 0x8, addend: 0x0, symName: '__ZN4pyo38instance14Bound$LT$T$GT$4cast17h229a1ca9aaca09ccE', symObjAddr: 0xAE44, symBinAddr: 0x15868, symSize: 0x30 }
  - { offset: 0x9C473, size: 0x8, addend: 0x0, symName: '__ZN4pyo38instance14Bound$LT$T$GT$4cast17h2a838da6997d2090E', symObjAddr: 0xAE74, symBinAddr: 0x15898, symSize: 0x30 }
  - { offset: 0x9C4A7, size: 0x8, addend: 0x0, symName: '__ZN4pyo38instance14Bound$LT$T$GT$4cast17h48876a5a2f1f5f64E', symObjAddr: 0xAEA4, symBinAddr: 0x158C8, symSize: 0x30 }
  - { offset: 0x9C4DB, size: 0x8, addend: 0x0, symName: '__ZN4pyo38instance14Bound$LT$T$GT$6as_any17h347e53e32a012e19E', symObjAddr: 0xB11C, symBinAddr: 0x15A84, symSize: 0x38 }
  - { offset: 0x9C543, size: 0x8, addend: 0x0, symName: '__ZN4pyo38instance14Bound$LT$T$GT$6as_any17h515fc2e798793523E', symObjAddr: 0xB234, symBinAddr: 0x15ABC, symSize: 0x38 }
  - { offset: 0x9C5AB, size: 0x8, addend: 0x0, symName: '__ZN4pyo38instance14Bound$LT$T$GT$6as_any17h567232ed78922b3cE', symObjAddr: 0xB26C, symBinAddr: 0x15AF4, symSize: 0x38 }
  - { offset: 0x9C613, size: 0x8, addend: 0x0, symName: '__ZN4pyo38instance14Bound$LT$T$GT$6as_any17h5f5ff10920e21727E', symObjAddr: 0xB2DC, symBinAddr: 0x15B2C, symSize: 0x38 }
  - { offset: 0x9C688, size: 0x8, addend: 0x0, symName: '__ZN4pyo38instance14Bound$LT$T$GT$6as_any17h83146b4e5fe9c26cE', symObjAddr: 0xB3BC, symBinAddr: 0x15B64, symSize: 0x38 }
  - { offset: 0x9C6F0, size: 0x8, addend: 0x0, symName: '__ZN4pyo38instance14Bound$LT$T$GT$6as_any17ha41794e2f3fdb589E', symObjAddr: 0xB3F4, symBinAddr: 0x15B9C, symSize: 0x38 }
  - { offset: 0x9C758, size: 0x8, addend: 0x0, symName: '__ZN4pyo38instance14Bound$LT$T$GT$6as_ptr17h2f9b19e078eecbd7E', symObjAddr: 0xB598, symBinAddr: 0x15BD4, symSize: 0x2C }
  - { offset: 0x9C784, size: 0x8, addend: 0x0, symName: '__ZN4pyo38instance14Bound$LT$T$GT$6as_ptr17h352b04d992dc7ac4E', symObjAddr: 0xB5C4, symBinAddr: 0x15C00, symSize: 0x2C }
  - { offset: 0x9C7B0, size: 0x8, addend: 0x0, symName: '__ZN4pyo38instance14Bound$LT$T$GT$6as_ptr17h616d75cddd2a7b15E', symObjAddr: 0xB6CC, symBinAddr: 0x15C2C, symSize: 0x2C }
  - { offset: 0x9C7DC, size: 0x8, addend: 0x0, symName: '__ZN4pyo38instance14Bound$LT$T$GT$6as_ptr17h800a8dd81062a7a3E', symObjAddr: 0xB724, symBinAddr: 0x15C58, symSize: 0x2C }
  - { offset: 0x9C808, size: 0x8, addend: 0x0, symName: '__ZN4pyo38instance14Bound$LT$T$GT$6as_ptr17ha0eee386e3bde1bcE', symObjAddr: 0xB7A8, symBinAddr: 0x15C84, symSize: 0x2C }
  - { offset: 0x9C834, size: 0x8, addend: 0x0, symName: '__ZN4pyo38instance14Bound$LT$T$GT$6as_ptr17ha9bad0714c5d56f0E', symObjAddr: 0xB800, symBinAddr: 0x15CB0, symSize: 0x2C }
  - { offset: 0x9C860, size: 0x8, addend: 0x0, symName: '__ZN4pyo38instance14Bound$LT$T$GT$6as_ptr17hccd5c5eaece63913E', symObjAddr: 0xB858, symBinAddr: 0x15CDC, symSize: 0x2C }
  - { offset: 0x9C88C, size: 0x8, addend: 0x0, symName: '__ZN4pyo38instance14Bound$LT$T$GT$6as_ptr17hd774c6c68ae9d95aE', symObjAddr: 0xB8B0, symBinAddr: 0x15D08, symSize: 0x2C }
  - { offset: 0x9C8B8, size: 0x8, addend: 0x0, symName: '__ZN4pyo38instance14Bound$LT$T$GT$6as_ptr17hda50ba38ddbe6986E', symObjAddr: 0xB8DC, symBinAddr: 0x15D34, symSize: 0x2C }
  - { offset: 0x9C8F1, size: 0x8, addend: 0x0, symName: '__ZN4pyo38instance14Bound$LT$T$GT$6as_ptr17he7769d2a0a802989E', symObjAddr: 0xB934, symBinAddr: 0x15D60, symSize: 0x2C }
  - { offset: 0x9C91D, size: 0x8, addend: 0x0, symName: '__ZN4pyo38instance14Bound$LT$T$GT$6as_ptr17hea3de28aa2ce2cadE', symObjAddr: 0xB98C, symBinAddr: 0x15D8C, symSize: 0x2C }
  - { offset: 0x9C949, size: 0x8, addend: 0x0, symName: '__ZN4pyo38instance14Bound$LT$T$GT$6unbind17h1e84efe4725ad6e9E', symObjAddr: 0xB9E4, symBinAddr: 0x15DB8, symSize: 0x3C }
  - { offset: 0x9C975, size: 0x8, addend: 0x0, symName: '__ZN4pyo38instance14Bound$LT$T$GT$6unbind17h378748f824354e9dE', symObjAddr: 0xBA98, symBinAddr: 0x15DF4, symSize: 0x3C }
  - { offset: 0x9C9A1, size: 0x8, addend: 0x0, symName: '__ZN4pyo38instance14Bound$LT$T$GT$6unbind17h7b6ee3ce612744beE', symObjAddr: 0xBB88, symBinAddr: 0x15E30, symSize: 0x3C }
  - { offset: 0x9C9CD, size: 0x8, addend: 0x0, symName: '__ZN4pyo38instance14Bound$LT$T$GT$6unbind17h983d397f9f613a85E', symObjAddr: 0xBBC4, symBinAddr: 0x15E6C, symSize: 0x3C }
  - { offset: 0x9C9F9, size: 0x8, addend: 0x0, symName: '__ZN4pyo38instance14Bound$LT$T$GT$6unbind17h9a54206e35f5c7a0E', symObjAddr: 0xBC00, symBinAddr: 0x15EA8, symSize: 0x3C }
  - { offset: 0x9CA25, size: 0x8, addend: 0x0, symName: '__ZN4pyo38instance14Bound$LT$T$GT$6unbind17h9a7bfaddb7357d70E', symObjAddr: 0xBC3C, symBinAddr: 0x15EE4, symSize: 0x3C }
  - { offset: 0x9CA51, size: 0x8, addend: 0x0, symName: '__ZN4pyo38instance14Bound$LT$T$GT$8into_any17hd214ba8f9f59bc70E', symObjAddr: 0xBDE0, symBinAddr: 0x15F20, symSize: 0x30 }
  - { offset: 0x9CA7D, size: 0x8, addend: 0x0, symName: '__ZN4pyo38instance14Bound$LT$T$GT$8into_any17hdbb564c11c035da9E', symObjAddr: 0xBE10, symBinAddr: 0x15F50, symSize: 0x30 }
  - { offset: 0x9CAA9, size: 0x8, addend: 0x0, symName: '__ZN4pyo38instance14Bound$LT$T$GT$8into_any17he52d48ae88d7a73cE', symObjAddr: 0xBE40, symBinAddr: 0x15F80, symSize: 0x30 }
  - { offset: 0x9CAD5, size: 0x8, addend: 0x0, symName: '__ZN4pyo38instance14Bound$LT$T$GT$8into_any17hea26261e5744aaf2E', symObjAddr: 0xBE70, symBinAddr: 0x15FB0, symSize: 0x30 }
  - { offset: 0x9CB01, size: 0x8, addend: 0x0, symName: '__ZN4pyo38instance14Bound$LT$T$GT$8into_any17hf1e164cb26e1b25eE', symObjAddr: 0xBEA0, symBinAddr: 0x15FE0, symSize: 0x30 }
  - { offset: 0x9CB2D, size: 0x8, addend: 0x0, symName: '__ZN4pyo38instance14Bound$LT$T$GT$8into_ptr17he8d11577b45fcefeE', symObjAddr: 0xBED0, symBinAddr: 0x16010, symSize: 0x40 }
  - { offset: 0x9CB59, size: 0x8, addend: 0x0, symName: '__ZN4pyo38instance14Bound$LT$T$GT$9cast_into17h6ed443b25f66c67bE', symObjAddr: 0xBFA0, symBinAddr: 0x16050, symSize: 0x30 }
  - { offset: 0x9CB8D, size: 0x8, addend: 0x0, symName: '__ZN4pyo38instance14Bound$LT$T$GT$9cast_into17h9019f325063bae10E', symObjAddr: 0xC030, symBinAddr: 0x16080, symSize: 0x30 }
  - { offset: 0x9CBC1, size: 0x8, addend: 0x0, symName: '__ZN4pyo38instance17Borrowed$LT$T$GT$10cast_exact17ha55b129024786f0aE', symObjAddr: 0xC99C, symBinAddr: 0x162A8, symSize: 0x30 }
  - { offset: 0x9CBF6, size: 0x8, addend: 0x0, symName: '__ZN4pyo38instance17Borrowed$LT$T$GT$14cast_unchecked17h00a0590a5e405d25E', symObjAddr: 0xCA48, symBinAddr: 0x16354, symSize: 0x14 }
  - { offset: 0x9CC38, size: 0x8, addend: 0x0, symName: '__ZN4pyo38instance17Borrowed$LT$T$GT$14cast_unchecked17h65f2046d07ffa74aE', symObjAddr: 0xCAAC, symBinAddr: 0x16368, symSize: 0x14 }
  - { offset: 0x9CC6D, size: 0x8, addend: 0x0, symName: '__ZN4pyo38instance17Borrowed$LT$T$GT$14cast_unchecked17h7baa487f05be798cE', symObjAddr: 0xCAC0, symBinAddr: 0x1637C, symSize: 0x14 }
  - { offset: 0x9CCA2, size: 0x8, addend: 0x0, symName: '__ZN4pyo38instance17Borrowed$LT$T$GT$14cast_unchecked17h982879af6679ad5cE', symObjAddr: 0xCAE8, symBinAddr: 0x16390, symSize: 0x14 }
  - { offset: 0x9CCD7, size: 0x8, addend: 0x0, symName: '__ZN4pyo38instance17Borrowed$LT$T$GT$14cast_unchecked17hb4501414b0e0deceE', symObjAddr: 0xCB24, symBinAddr: 0x163A4, symSize: 0x14 }
  - { offset: 0x9CD0C, size: 0x8, addend: 0x0, symName: '__ZN4pyo38instance17Borrowed$LT$T$GT$14cast_unchecked17hc3dd5c5e3bacac78E', symObjAddr: 0xCB4C, symBinAddr: 0x163B8, symSize: 0x14 }
  - { offset: 0x9CD41, size: 0x8, addend: 0x0, symName: '__ZN4pyo38instance17Borrowed$LT$T$GT$14cast_unchecked17hc786d720f23e6befE', symObjAddr: 0xCB60, symBinAddr: 0x163CC, symSize: 0x14 }
  - { offset: 0x9CD76, size: 0x8, addend: 0x0, symName: '__ZN4pyo38instance17Borrowed$LT$T$GT$14cast_unchecked17hfa3546aac00b83f0E', symObjAddr: 0xCB88, symBinAddr: 0x163E0, symSize: 0x14 }
  - { offset: 0x9CDAB, size: 0x8, addend: 0x0, symName: '__ZN4pyo38instance17Borrowed$LT$T$GT$4cast17h9b5c61c36371ddd3E', symObjAddr: 0xCC70, symBinAddr: 0x163F4, symSize: 0x30 }
  - { offset: 0x9CDE0, size: 0x8, addend: 0x0, symName: '__ZN4pyo38instance17Borrowed$LT$T$GT$6as_ptr17h16708be5bfae8687E', symObjAddr: 0xCFB8, symBinAddr: 0x164A0, symSize: 0x1C }
  - { offset: 0x9CE0C, size: 0x8, addend: 0x0, symName: '__ZN4pyo38instance17Borrowed$LT$T$GT$6as_ptr17h1e1ee63fe98fecd5E', symObjAddr: 0xCFD4, symBinAddr: 0x164BC, symSize: 0x1C }
  - { offset: 0x9CE38, size: 0x8, addend: 0x0, symName: '__ZN4pyo38instance17Borrowed$LT$T$GT$6as_ptr17h73209b86dd0d8fbcE', symObjAddr: 0xD00C, symBinAddr: 0x164D8, symSize: 0x1C }
  - { offset: 0x9CE64, size: 0x8, addend: 0x0, symName: '__ZN4pyo38instance17Borrowed$LT$T$GT$6as_ptr17hee5414ca9d79f194E', symObjAddr: 0xD060, symBinAddr: 0x164F4, symSize: 0x1C }
  - { offset: 0x9CE90, size: 0x8, addend: 0x0, symName: '__ZN4pyo38instance17Borrowed$LT$T$GT$6as_ptr17hff33e88634453cb7E', symObjAddr: 0xD07C, symBinAddr: 0x16510, symSize: 0x1C }
  - { offset: 0x9CEBC, size: 0x8, addend: 0x0, symName: '__ZN4pyo38instance17Borrowed$LT$T$GT$6to_any17h075508d60e664739E', symObjAddr: 0xD098, symBinAddr: 0x1652C, symSize: 0x14 }
  - { offset: 0x9CEE8, size: 0x8, addend: 0x0, symName: '__ZN4pyo38instance17Borrowed$LT$T$GT$6to_any17h5e8b1f51ebe76af0E', symObjAddr: 0xD0C0, symBinAddr: 0x16540, symSize: 0x14 }
  - { offset: 0x9CF14, size: 0x8, addend: 0x0, symName: '__ZN4pyo38instance17Borrowed$LT$T$GT$6to_any17h952a600ad791088fE', symObjAddr: 0xD0E8, symBinAddr: 0x16554, symSize: 0x14 }
  - { offset: 0x9CF40, size: 0x8, addend: 0x0, symName: '__ZN4pyo38instance17Borrowed$LT$T$GT$6to_any17hf005f2a04fdb3d1fE', symObjAddr: 0xD110, symBinAddr: 0x16568, symSize: 0x14 }
  - { offset: 0x9CFAF, size: 0x8, addend: 0x0, symName: '__ZN4pyo38instance17Borrowed$LT$T$GT$8to_owned17hcfd650c53e776112E', symObjAddr: 0xD4C0, symBinAddr: 0x1657C, symSize: 0x2C }
  - { offset: 0x9CFDB, size: 0x8, addend: 0x0, symName: '__ZN4pyo38instance17Borrowed$LT$T$GT$8to_owned17hefabd7747510ac73E', symObjAddr: 0xD544, symBinAddr: 0x165A8, symSize: 0x2C }
  - { offset: 0x9D007, size: 0x8, addend: 0x0, symName: '__ZN4pyo38instance17Borrowed$LT$T$GT$8to_owned17hf570aa7e59a84198E', symObjAddr: 0xD570, symBinAddr: 0x165D4, symSize: 0x2C }
  - { offset: 0x9D040, size: 0x8, addend: 0x0, symName: '__ZN4pyo38instance36Bound$LT$pyo3..types..any..PyAny$GT$12ref_from_ptr17h6634c353b7d6159dE', symObjAddr: 0xD59C, symBinAddr: 0x16600, symSize: 0x38 }
  - { offset: 0x9D0BA, size: 0x8, addend: 0x0, symName: '__ZN4pyo38instance36Bound$LT$pyo3..types..any..PyAny$GT$14from_owned_ptr17hc3d1055680ea3cf9E', symObjAddr: 0xD5D4, symBinAddr: 0x16638, symSize: 0x28 }
  - { offset: 0x9D105, size: 0x8, addend: 0x0, symName: '__ZN4pyo38instance36Bound$LT$pyo3..types..any..PyAny$GT$17ref_from_non_null17h8b474cca34cabc5bE', symObjAddr: 0xD5FC, symBinAddr: 0x16660, symSize: 0x38 }
  - { offset: 0x9D1C2, size: 0x8, addend: 0x0, symName: '__ZN4pyo38instance36Bound$LT$pyo3..types..any..PyAny$GT$19ref_from_ptr_or_opt17h1f5c101d3b1a471aE', symObjAddr: 0xD634, symBinAddr: 0x16698, symSize: 0x38 }
  - { offset: 0x9D23C, size: 0x8, addend: 0x0, symName: '__ZN4pyo38instance36Bound$LT$pyo3..types..any..PyAny$GT$21from_owned_ptr_or_err17he09b5e25dd3a92ecE', symObjAddr: 0xD66C, symBinAddr: 0x166D0, symSize: 0x40 }
  - { offset: 0x9D27A, size: 0x8, addend: 0x0, symName: '__ZN4pyo38instance36Bound$LT$pyo3..types..any..PyAny$GT$21from_owned_ptr_or_opt17h2d32ff1751833f31E', symObjAddr: 0xD6DC, symBinAddr: 0x16740, symSize: 0x2C }
  - { offset: 0x9D2B8, size: 0x8, addend: 0x0, symName: '__ZN4pyo38instance39Borrowed$LT$pyo3..types..any..PyAny$GT$13from_non_null17h547e7b8739e79d34E', symObjAddr: 0xD760, symBinAddr: 0x1679C, symSize: 0x14 }
  - { offset: 0x9D2F6, size: 0x8, addend: 0x0, symName: '__ZN4pyo38instance39Borrowed$LT$pyo3..types..any..PyAny$GT$18from_ptr_unchecked17h6977da38000a2ab4E', symObjAddr: 0xD844, symBinAddr: 0x167B0, symSize: 0x30 }
  - { offset: 0x9D334, size: 0x8, addend: 0x0, symName: '__ZN4pyo38internal8get_slot78_$LT$impl$u20$pyo3..instance..Bound$LT$pyo3..types..typeobject..PyType$GT$$GT$8get_slot17h6f6dca1f10e59afeE', symObjAddr: 0xD8D0, symBinAddr: 0x167FC, symSize: 0x28 }
  - { offset: 0x9D36F, size: 0x8, addend: 0x0, symName: '__ZN4pyo38internal8get_slot78_$LT$impl$u20$pyo3..instance..Bound$LT$pyo3..types..typeobject..PyType$GT$$GT$8get_slot17h83b062211f63835eE', symObjAddr: 0xD8F8, symBinAddr: 0x16824, symSize: 0x28 }
  - { offset: 0x9D3AA, size: 0x8, addend: 0x0, symName: '__ZN4pyo38internal8get_slot81_$LT$impl$u20$pyo3..instance..Borrowed$LT$pyo3..types..typeobject..PyType$GT$$GT$8get_slot17h6c06b752fce665b4E', symObjAddr: 0xD920, symBinAddr: 0x1684C, symSize: 0x30 }
  - { offset: 0x9E426, size: 0x8, addend: 0x0, symName: '__ZN152_$LT$core..result..Result$LT$pyo3..instance..Bound$LT$pyo3..types..any..PyAny$GT$$C$pyo3..err..PyErr$GT$$u20$as$u20$pyo3..py_result_ext..PyResultExt$GT$19cast_into_unchecked17hc0900affd7423eabE', symObjAddr: 0x380, symBinAddr: 0x180FC, symSize: 0x40 }
  - { offset: 0x9E45C, size: 0x8, addend: 0x0, symName: '__ZN152_$LT$core..result..Result$LT$pyo3..instance..Bound$LT$pyo3..types..any..PyAny$GT$$C$pyo3..err..PyErr$GT$$u20$as$u20$pyo3..py_result_ext..PyResultExt$GT$19cast_into_unchecked17he91a858057737429E', symObjAddr: 0x480, symBinAddr: 0x1813C, symSize: 0x40 }
  - { offset: 0x9FBC9, size: 0x8, addend: 0x0, symName: '__ZN153_$LT$core..result..Result$LT$T$C$F$GT$$u20$as$u20$core..ops..try_trait..FromResidual$LT$core..result..Result$LT$core..convert..Infallible$C$E$GT$$GT$$GT$13from_residual17h072199dd5a284f4cE', symObjAddr: 0x5E4, symBinAddr: 0x1817C, symSize: 0x6C }
  - { offset: 0x9FC4F, size: 0x8, addend: 0x0, symName: '__ZN153_$LT$core..result..Result$LT$T$C$F$GT$$u20$as$u20$core..ops..try_trait..FromResidual$LT$core..result..Result$LT$core..convert..Infallible$C$E$GT$$GT$$GT$13from_residual17h2a31be5a50346a0eE', symObjAddr: 0x920, symBinAddr: 0x181E8, symSize: 0x6C }
  - { offset: 0x9FCD5, size: 0x8, addend: 0x0, symName: '__ZN153_$LT$core..result..Result$LT$T$C$F$GT$$u20$as$u20$core..ops..try_trait..FromResidual$LT$core..result..Result$LT$core..convert..Infallible$C$E$GT$$GT$$GT$13from_residual17h3ecdf1052530acfcE', symObjAddr: 0xC14, symBinAddr: 0x18254, symSize: 0x6C }
  - { offset: 0x9FD5B, size: 0x8, addend: 0x0, symName: '__ZN153_$LT$core..result..Result$LT$T$C$F$GT$$u20$as$u20$core..ops..try_trait..FromResidual$LT$core..result..Result$LT$core..convert..Infallible$C$E$GT$$GT$$GT$13from_residual17h4861dd9c1f0f2aa0E', symObjAddr: 0xD9C, symBinAddr: 0x182C0, symSize: 0x6C }
  - { offset: 0x9FDE1, size: 0x8, addend: 0x0, symName: '__ZN153_$LT$core..result..Result$LT$T$C$F$GT$$u20$as$u20$core..ops..try_trait..FromResidual$LT$core..result..Result$LT$core..convert..Infallible$C$E$GT$$GT$$GT$13from_residual17h4901254df8d31bc5E', symObjAddr: 0xE08, symBinAddr: 0x1832C, symSize: 0x6C }
  - { offset: 0x9FE67, size: 0x8, addend: 0x0, symName: '__ZN153_$LT$core..result..Result$LT$T$C$F$GT$$u20$as$u20$core..ops..try_trait..FromResidual$LT$core..result..Result$LT$core..convert..Infallible$C$E$GT$$GT$$GT$13from_residual17h498fdefef4662e36E', symObjAddr: 0xE74, symBinAddr: 0x18398, symSize: 0x14 }
  - { offset: 0x9FEB0, size: 0x8, addend: 0x0, symName: '__ZN153_$LT$core..result..Result$LT$T$C$F$GT$$u20$as$u20$core..ops..try_trait..FromResidual$LT$core..result..Result$LT$core..convert..Infallible$C$E$GT$$GT$$GT$13from_residual17h51ffc896378b2bd9E', symObjAddr: 0xE88, symBinAddr: 0x183AC, symSize: 0x6C }
  - { offset: 0x9FF36, size: 0x8, addend: 0x0, symName: '__ZN153_$LT$core..result..Result$LT$T$C$F$GT$$u20$as$u20$core..ops..try_trait..FromResidual$LT$core..result..Result$LT$core..convert..Infallible$C$E$GT$$GT$$GT$13from_residual17h6f146839c3d64884E', symObjAddr: 0x11E8, symBinAddr: 0x18418, symSize: 0x6C }
  - { offset: 0x9FFBC, size: 0x8, addend: 0x0, symName: '__ZN153_$LT$core..result..Result$LT$T$C$F$GT$$u20$as$u20$core..ops..try_trait..FromResidual$LT$core..result..Result$LT$core..convert..Infallible$C$E$GT$$GT$$GT$13from_residual17h8198203700d7d87fE', symObjAddr: 0x1528, symBinAddr: 0x18484, symSize: 0x64 }
  - { offset: 0xA0024, size: 0x8, addend: 0x0, symName: '__ZN153_$LT$core..result..Result$LT$T$C$F$GT$$u20$as$u20$core..ops..try_trait..FromResidual$LT$core..result..Result$LT$core..convert..Infallible$C$E$GT$$GT$$GT$13from_residual17h89df50e93bde80d2E', symObjAddr: 0x15F8, symBinAddr: 0x184E8, symSize: 0x6C }
  - { offset: 0xA00AA, size: 0x8, addend: 0x0, symName: '__ZN153_$LT$core..result..Result$LT$T$C$F$GT$$u20$as$u20$core..ops..try_trait..FromResidual$LT$core..result..Result$LT$core..convert..Infallible$C$E$GT$$GT$$GT$13from_residual17h8bf02f8ffb21c367E', symObjAddr: 0x1664, symBinAddr: 0x18554, symSize: 0x6C }
  - { offset: 0xA0130, size: 0x8, addend: 0x0, symName: '__ZN153_$LT$core..result..Result$LT$T$C$F$GT$$u20$as$u20$core..ops..try_trait..FromResidual$LT$core..result..Result$LT$core..convert..Infallible$C$E$GT$$GT$$GT$13from_residual17h9da98680677f3012E', symObjAddr: 0x19CC, symBinAddr: 0x185C0, symSize: 0x6C }
  - { offset: 0xA01B6, size: 0x8, addend: 0x0, symName: '__ZN153_$LT$core..result..Result$LT$T$C$F$GT$$u20$as$u20$core..ops..try_trait..FromResidual$LT$core..result..Result$LT$core..convert..Infallible$C$E$GT$$GT$$GT$13from_residual17ha7ffa981562b6aa7E', symObjAddr: 0x1B7C, symBinAddr: 0x1862C, symSize: 0x6C }
  - { offset: 0xA023C, size: 0x8, addend: 0x0, symName: '__ZN153_$LT$core..result..Result$LT$T$C$F$GT$$u20$as$u20$core..ops..try_trait..FromResidual$LT$core..result..Result$LT$core..convert..Infallible$C$E$GT$$GT$$GT$13from_residual17hab552a254967b183E', symObjAddr: 0x1BE8, symBinAddr: 0x18698, symSize: 0x6C }
  - { offset: 0xA02C2, size: 0x8, addend: 0x0, symName: '__ZN153_$LT$core..result..Result$LT$T$C$F$GT$$u20$as$u20$core..ops..try_trait..FromResidual$LT$core..result..Result$LT$core..convert..Infallible$C$E$GT$$GT$$GT$13from_residual17hc7e4fb84a2dc80d1E', symObjAddr: 0x1FBC, symBinAddr: 0x18704, symSize: 0x6C }
  - { offset: 0xA0348, size: 0x8, addend: 0x0, symName: '__ZN153_$LT$core..result..Result$LT$T$C$F$GT$$u20$as$u20$core..ops..try_trait..FromResidual$LT$core..result..Result$LT$core..convert..Infallible$C$E$GT$$GT$$GT$13from_residual17hcd3480d5fb62097aE', symObjAddr: 0x21D8, symBinAddr: 0x18770, symSize: 0x6C }
  - { offset: 0xA03CE, size: 0x8, addend: 0x0, symName: '__ZN153_$LT$core..result..Result$LT$T$C$F$GT$$u20$as$u20$core..ops..try_trait..FromResidual$LT$core..result..Result$LT$core..convert..Infallible$C$E$GT$$GT$$GT$13from_residual17he470da5d48fe1fcaE', symObjAddr: 0x2538, symBinAddr: 0x187DC, symSize: 0x6C }
  - { offset: 0xA0454, size: 0x8, addend: 0x0, symName: '__ZN153_$LT$core..result..Result$LT$T$C$F$GT$$u20$as$u20$core..ops..try_trait..FromResidual$LT$core..result..Result$LT$core..convert..Infallible$C$E$GT$$GT$$GT$13from_residual17hfb2707dc619243d0E', symObjAddr: 0x2954, symBinAddr: 0x18848, symSize: 0x6C }
  - { offset: 0xA04DA, size: 0x8, addend: 0x0, symName: '__ZN153_$LT$core..result..Result$LT$T$C$F$GT$$u20$as$u20$core..ops..try_trait..FromResidual$LT$core..result..Result$LT$core..convert..Infallible$C$E$GT$$GT$$GT$13from_residual17hfb85a584087efc91E', symObjAddr: 0x29C0, symBinAddr: 0x188B4, symSize: 0x6C }
  - { offset: 0xA2E3D, size: 0x8, addend: 0x0, symName: __ZN4core6result6Result2Ok17h9988721d5e3ed3f7E, symObjAddr: 0x6570, symBinAddr: 0x19648, symSize: 0x1C }
  - { offset: 0xA2E80, size: 0x8, addend: 0x0, symName: '__ZN79_$LT$core..result..Result$LT$T$C$E$GT$$u20$as$u20$core..ops..try_trait..Try$GT$6branch17h06cf818f8cfce519E', symObjAddr: 0x678C, symBinAddr: 0x19664, symSize: 0x38 }
  - { offset: 0xA2EFC, size: 0x8, addend: 0x0, symName: '__ZN79_$LT$core..result..Result$LT$T$C$E$GT$$u20$as$u20$core..ops..try_trait..Try$GT$6branch17h07e0e2f9667af12fE', symObjAddr: 0x682C, symBinAddr: 0x1969C, symSize: 0xB4 }
  - { offset: 0xA2F7A, size: 0x8, addend: 0x0, symName: '__ZN79_$LT$core..result..Result$LT$T$C$E$GT$$u20$as$u20$core..ops..try_trait..Try$GT$6branch17h13448a8381030808E', symObjAddr: 0x68E0, symBinAddr: 0x19750, symSize: 0x68 }
  - { offset: 0xA2FF7, size: 0x8, addend: 0x0, symName: '__ZN79_$LT$core..result..Result$LT$T$C$E$GT$$u20$as$u20$core..ops..try_trait..Try$GT$6branch17h213afd4e16cee171E', symObjAddr: 0x6A5C, symBinAddr: 0x197B8, symSize: 0x14 }
  - { offset: 0xA3033, size: 0x8, addend: 0x0, symName: '__ZN79_$LT$core..result..Result$LT$T$C$E$GT$$u20$as$u20$core..ops..try_trait..Try$GT$6branch17h2a0f47097945bf2dE', symObjAddr: 0x6B10, symBinAddr: 0x197CC, symSize: 0x94 }
  - { offset: 0xA30B1, size: 0x8, addend: 0x0, symName: '__ZN79_$LT$core..result..Result$LT$T$C$E$GT$$u20$as$u20$core..ops..try_trait..Try$GT$6branch17h4933a868f48cbfddE', symObjAddr: 0x6F00, symBinAddr: 0x19860, symSize: 0x68 }
  - { offset: 0xA312E, size: 0x8, addend: 0x0, symName: '__ZN79_$LT$core..result..Result$LT$T$C$E$GT$$u20$as$u20$core..ops..try_trait..Try$GT$6branch17h51451e04712890d5E', symObjAddr: 0x6F68, symBinAddr: 0x198C8, symSize: 0x44 }
  - { offset: 0xA31AA, size: 0x8, addend: 0x0, symName: '__ZN79_$LT$core..result..Result$LT$T$C$E$GT$$u20$as$u20$core..ops..try_trait..Try$GT$6branch17h55eb7cf75fe7ecb5E', symObjAddr: 0x6FAC, symBinAddr: 0x1990C, symSize: 0xA0 }
  - { offset: 0xA3227, size: 0x8, addend: 0x0, symName: '__ZN79_$LT$core..result..Result$LT$T$C$E$GT$$u20$as$u20$core..ops..try_trait..Try$GT$6branch17h686051ff033e2b15E', symObjAddr: 0x7308, symBinAddr: 0x199AC, symSize: 0xA0 }
  - { offset: 0xA32A4, size: 0x8, addend: 0x0, symName: '__ZN79_$LT$core..result..Result$LT$T$C$E$GT$$u20$as$u20$core..ops..try_trait..Try$GT$6branch17h6b13dbf1a8d20558E', symObjAddr: 0x73A8, symBinAddr: 0x19A4C, symSize: 0xA0 }
  - { offset: 0xA3321, size: 0x8, addend: 0x0, symName: '__ZN79_$LT$core..result..Result$LT$T$C$E$GT$$u20$as$u20$core..ops..try_trait..Try$GT$6branch17h7af5986e707fd303E', symObjAddr: 0x763C, symBinAddr: 0x19AEC, symSize: 0xA0 }
  - { offset: 0xA339E, size: 0x8, addend: 0x0, symName: '__ZN79_$LT$core..result..Result$LT$T$C$E$GT$$u20$as$u20$core..ops..try_trait..Try$GT$6branch17h870c7776b1dc6f75E', symObjAddr: 0x76DC, symBinAddr: 0x19B8C, symSize: 0xA0 }
  - { offset: 0xA341B, size: 0x8, addend: 0x0, symName: '__ZN79_$LT$core..result..Result$LT$T$C$E$GT$$u20$as$u20$core..ops..try_trait..Try$GT$6branch17h8c65e1270135bd5dE', symObjAddr: 0x7824, symBinAddr: 0x19C2C, symSize: 0x90 }
  - { offset: 0xA3498, size: 0x8, addend: 0x0, symName: '__ZN79_$LT$core..result..Result$LT$T$C$E$GT$$u20$as$u20$core..ops..try_trait..Try$GT$6branch17h9b02f2c8b3c39dd1E', symObjAddr: 0x7B00, symBinAddr: 0x19CBC, symSize: 0xA0 }
  - { offset: 0xA3515, size: 0x8, addend: 0x0, symName: '__ZN79_$LT$core..result..Result$LT$T$C$E$GT$$u20$as$u20$core..ops..try_trait..Try$GT$6branch17h9ea5fede93358d92E', symObjAddr: 0x7CE0, symBinAddr: 0x19D5C, symSize: 0xA0 }
  - { offset: 0xA3592, size: 0x8, addend: 0x0, symName: '__ZN79_$LT$core..result..Result$LT$T$C$E$GT$$u20$as$u20$core..ops..try_trait..Try$GT$6branch17ha8ba7ad9e5283375E', symObjAddr: 0x7E94, symBinAddr: 0x19DFC, symSize: 0xA0 }
  - { offset: 0xA360F, size: 0x8, addend: 0x0, symName: '__ZN79_$LT$core..result..Result$LT$T$C$E$GT$$u20$as$u20$core..ops..try_trait..Try$GT$6branch17haf7b5278856a7b47E', symObjAddr: 0x7FD4, symBinAddr: 0x19E9C, symSize: 0xA0 }
  - { offset: 0xA368C, size: 0x8, addend: 0x0, symName: '__ZN79_$LT$core..result..Result$LT$T$C$E$GT$$u20$as$u20$core..ops..try_trait..Try$GT$6branch17hb17bfd860eefdb78E', symObjAddr: 0x8114, symBinAddr: 0x19F3C, symSize: 0xA0 }
  - { offset: 0xA3709, size: 0x8, addend: 0x0, symName: '__ZN79_$LT$core..result..Result$LT$T$C$E$GT$$u20$as$u20$core..ops..try_trait..Try$GT$6branch17hb7341909d2ef3329E', symObjAddr: 0x81B4, symBinAddr: 0x19FDC, symSize: 0xA0 }
  - { offset: 0xA3786, size: 0x8, addend: 0x0, symName: '__ZN79_$LT$core..result..Result$LT$T$C$E$GT$$u20$as$u20$core..ops..try_trait..Try$GT$6branch17hc9f04fcfefdc39b0E', symObjAddr: 0x84D4, symBinAddr: 0x1A07C, symSize: 0xC4 }
  - { offset: 0xA3804, size: 0x8, addend: 0x0, symName: '__ZN79_$LT$core..result..Result$LT$T$C$E$GT$$u20$as$u20$core..ops..try_trait..Try$GT$6branch17he2233643fccf5134E', symObjAddr: 0x86E4, symBinAddr: 0x1A140, symSize: 0xA0 }
  - { offset: 0xA3881, size: 0x8, addend: 0x0, symName: '__ZN79_$LT$core..result..Result$LT$T$C$E$GT$$u20$as$u20$core..ops..try_trait..Try$GT$6branch17he2c8e9a4710d45d8E', symObjAddr: 0x8784, symBinAddr: 0x1A1E0, symSize: 0xAC }
  - { offset: 0xA38FE, size: 0x8, addend: 0x0, symName: '__ZN79_$LT$core..result..Result$LT$T$C$E$GT$$u20$as$u20$core..ops..try_trait..Try$GT$6branch17hfd7c25a0f75b6167E', symObjAddr: 0x89D8, symBinAddr: 0x1A28C, symSize: 0xA0 }
  - { offset: 0xA5F22, size: 0x8, addend: 0x0, symName: '__ZN4core6result19Result$LT$T$C$E$GT$14unwrap_or_else17h0d68c3cf482b6086E', symObjAddr: 0x2A98, symBinAddr: 0x18920, symSize: 0x8C }
  - { offset: 0xA6007, size: 0x8, addend: 0x0, symName: '__ZN4core6result19Result$LT$T$C$E$GT$3map17h0250633c7a0472a7E', symObjAddr: 0x2C7C, symBinAddr: 0x189AC, symSize: 0x9C }
  - { offset: 0xA60E6, size: 0x8, addend: 0x0, symName: '__ZN4core6result19Result$LT$T$C$E$GT$3map17h1a45f37caa642c92E', symObjAddr: 0x2FAC, symBinAddr: 0x18A48, symSize: 0x9C }
  - { offset: 0xA6179, size: 0x8, addend: 0x0, symName: '__ZN4core6result19Result$LT$T$C$E$GT$3map17h21ed853c510f9281E', symObjAddr: 0x30D8, symBinAddr: 0x18AE4, symSize: 0x90 }
  - { offset: 0xA6220, size: 0x8, addend: 0x0, symName: '__ZN4core6result19Result$LT$T$C$E$GT$3map17h4433256fab218f4dE', symObjAddr: 0x3324, symBinAddr: 0x18B74, symSize: 0xA0 }
  - { offset: 0xA62B3, size: 0x8, addend: 0x0, symName: '__ZN4core6result19Result$LT$T$C$E$GT$3map17h65151e74846c924eE', symObjAddr: 0x3574, symBinAddr: 0x18C14, symSize: 0x90 }
  - { offset: 0xA635E, size: 0x8, addend: 0x0, symName: '__ZN4core6result19Result$LT$T$C$E$GT$3map17hc378669dd19bb098E', symObjAddr: 0x3B48, symBinAddr: 0x18CA4, symSize: 0xA8 }
  - { offset: 0xA640A, size: 0x8, addend: 0x0, symName: '__ZN4core6result19Result$LT$T$C$E$GT$3map17hcd6ffddd9603448aE', symObjAddr: 0x3C80, symBinAddr: 0x18D4C, symSize: 0xBC }
  - { offset: 0xA649D, size: 0x8, addend: 0x0, symName: '__ZN4core6result19Result$LT$T$C$E$GT$3map17hfbb96a22e68c3abbE', symObjAddr: 0x4038, symBinAddr: 0x18E08, symSize: 0x74 }
  - { offset: 0xA653C, size: 0x8, addend: 0x0, symName: '__ZN4core6result19Result$LT$T$C$E$GT$6as_ref17h7ca85eb379b98a4bE', symObjAddr: 0x40AC, symBinAddr: 0x18E7C, symSize: 0x68 }
  - { offset: 0xA65B4, size: 0x8, addend: 0x0, symName: '__ZN4core6result19Result$LT$T$C$E$GT$6expect17h0d0a813de839de76E', symObjAddr: 0x4274, symBinAddr: 0x18EE4, symSize: 0xA4 }
  - { offset: 0xA6617, size: 0x8, addend: 0x0, symName: '__ZN4core6result19Result$LT$T$C$E$GT$6expect17h1940fac25acf71c4E', symObjAddr: 0x4318, symBinAddr: 0x18F88, symSize: 0x78 }
  - { offset: 0xA6679, size: 0x8, addend: 0x0, symName: '__ZN4core6result19Result$LT$T$C$E$GT$6expect17haa2495bec52dd6feE', symObjAddr: 0x46BC, symBinAddr: 0x19000, symSize: 0xB0 }
  - { offset: 0xA66DC, size: 0x8, addend: 0x0, symName: '__ZN4core6result19Result$LT$T$C$E$GT$6expect17hb5725c7622b377e8E', symObjAddr: 0x476C, symBinAddr: 0x190B0, symSize: 0x84 }
  - { offset: 0xA673E, size: 0x8, addend: 0x0, symName: '__ZN4core6result19Result$LT$T$C$E$GT$6expect17hc424f5c165c95d16E', symObjAddr: 0x47F0, symBinAddr: 0x19134, symSize: 0xB0 }
  - { offset: 0xA67E5, size: 0x8, addend: 0x0, symName: '__ZN4core6result19Result$LT$T$C$E$GT$7map_err17h27103bf4dc961993E', symObjAddr: 0x4C2C, symBinAddr: 0x191E4, symSize: 0x30 }
  - { offset: 0xA685B, size: 0x8, addend: 0x0, symName: '__ZN4core6result19Result$LT$T$C$E$GT$7map_err17h2ff548f07d3b9837E', symObjAddr: 0x4CF4, symBinAddr: 0x19214, symSize: 0x30 }
  - { offset: 0xA68D1, size: 0x8, addend: 0x0, symName: '__ZN4core6result19Result$LT$T$C$E$GT$7map_err17h55f968c41b07c03aE', symObjAddr: 0x4F18, symBinAddr: 0x19244, symSize: 0x84 }
  - { offset: 0xA6964, size: 0x8, addend: 0x0, symName: '__ZN4core6result19Result$LT$T$C$E$GT$7map_err17h7a2f720899b7fa06E', symObjAddr: 0x52A0, symBinAddr: 0x192C8, symSize: 0x30 }
  - { offset: 0xA69EE, size: 0x8, addend: 0x0, symName: '__ZN4core6result19Result$LT$T$C$E$GT$7map_err17h907bd98c08b24389E', symObjAddr: 0x53F4, symBinAddr: 0x192F8, symSize: 0xD0 }
  - { offset: 0xA6A89, size: 0x8, addend: 0x0, symName: '__ZN4core6result19Result$LT$T$C$E$GT$7map_err17hb2b23cb72969f759E', symObjAddr: 0x5758, symBinAddr: 0x193C8, symSize: 0x84 }
  - { offset: 0xA6B1C, size: 0x8, addend: 0x0, symName: '__ZN4core6result19Result$LT$T$C$E$GT$7map_err17hfc7eb0b07ca6087bE', symObjAddr: 0x5DAC, symBinAddr: 0x1944C, symSize: 0x98 }
  - { offset: 0xA6BC7, size: 0x8, addend: 0x0, symName: '__ZN4core6result19Result$LT$T$C$E$GT$9unwrap_or17h5cb4fe54b477e908E', symObjAddr: 0x640C, symBinAddr: 0x194E4, symSize: 0x70 }
  - { offset: 0xA6C0B, size: 0x8, addend: 0x0, symName: '__ZN4core6result19Result$LT$T$C$E$GT$9unwrap_or17hff3f4aa24db67259E', symObjAddr: 0x647C, symBinAddr: 0x19554, symSize: 0xF4 }
  - { offset: 0xA6D1F, size: 0x8, addend: 0x0, symName: '__ZN9hashbrown3raw21RawTable$LT$T$C$A$GT$14reserve_rehash28_$u7b$$u7b$closure$u7d$$u7d$17h12909ef1aec14a4bE', symObjAddr: 0x30A8, symBinAddr: 0x1C2A0, symSize: 0xC0 }
  - { offset: 0xA6F03, size: 0x8, addend: 0x0, symName: '__ZN9hashbrown3raw21RawTable$LT$T$C$A$GT$4find28_$u7b$$u7b$closure$u7d$$u7d$17h631d7a7eb88a15f9E', symObjAddr: 0x347C, symBinAddr: 0x1C674, symSize: 0xC4 }
  - { offset: 0xA76E5, size: 0x8, addend: 0x0, symName: '__ZN79_$LT$hashbrown..raw..RawTable$LT$T$C$A$GT$$u20$as$u20$core..ops..drop..Drop$GT$4drop17h53fd9516868f430eE', symObjAddr: 0xCE0, symBinAddr: 0x1A870, symSize: 0x3C }
  - { offset: 0xA78FA, size: 0x8, addend: 0x0, symName: '__ZN9hashbrown3raw13RawTableInner14prepare_resize28_$u7b$$u7b$closure$u7d$$u7d$17hc1478807f3b291edE', symObjAddr: 0x1178, symBinAddr: 0x1AB2C, symSize: 0xAC }
  - { offset: 0xA7ACC, size: 0x8, addend: 0x0, symName: '__ZN9hashbrown3raw13RawTableInner15rehash_in_place28_$u7b$$u7b$closure$u7d$$u7d$17h2cf4beed2798d64eE', symObjAddr: 0x162C, symBinAddr: 0x1AFE0, symSize: 0x1F4 }
  - { offset: 0xA7EF9, size: 0x8, addend: 0x0, symName: __ZN9hashbrown3raw19capacity_to_buckets17hf115e4242ac76cf7E, symObjAddr: 0x2254, symBinAddr: 0x1BC08, symSize: 0x2C8 }
  - { offset: 0xAB7ED, size: 0x8, addend: 0x0, symName: '__ZN4core3cmp5impls54_$LT$impl$u20$core..cmp..PartialEq$u20$for$u20$i32$GT$2ne17h8d026d01addfa42dE', symObjAddr: 0x39C, symBinAddr: 0x1A374, symSize: 0x2C }
  - { offset: 0xAB830, size: 0x8, addend: 0x0, symName: '__ZN4core3cmp5impls54_$LT$impl$u20$core..cmp..PartialEq$u20$for$u20$i64$GT$2eq17h9b617caba6393f0aE', symObjAddr: 0x3C8, symBinAddr: 0x1A3A0, symSize: 0x2C }
  - { offset: 0xAB86D, size: 0x8, addend: 0x0, symName: '__ZN4core3cmp5impls54_$LT$impl$u20$core..cmp..PartialEq$u20$for$u20$i64$GT$2ne17h92c48c1749480789E', symObjAddr: 0x3F4, symBinAddr: 0x1A3CC, symSize: 0x2C }
  - { offset: 0xAB8B0, size: 0x8, addend: 0x0, symName: '__ZN4core3cmp5impls69_$LT$impl$u20$core..cmp..PartialEq$LT$$RF$B$GT$$u20$for$u20$$RF$A$GT$2eq17hf960a5a15f099f2eE', symObjAddr: 0x5C0, symBinAddr: 0x1A3F8, symSize: 0x44 }
  - { offset: 0xABAFF, size: 0x8, addend: 0x0, symName: __ZN4core9ub_checks23maybe_is_nonoverlapping7runtime17haf2adab4c74c94fcE, symObjAddr: 0x624, symBinAddr: 0x1A43C, symSize: 0xD8 }
  - { offset: 0xAC6B1, size: 0x8, addend: 0x0, symName: '__ZN152_$LT$core..result..Result$LT$pyo3..instance..Bound$LT$pyo3..types..any..PyAny$GT$$C$pyo3..err..PyErr$GT$$u20$as$u20$pyo3..py_result_ext..PyResultExt$GT$19cast_into_unchecked28_$u7b$$u7b$closure$u7d$$u7d$17h49e82cc04bee326dE', symObjAddr: 0x120, symBinAddr: 0x1A32C, symSize: 0x24 }
  - { offset: 0xAC6F0, size: 0x8, addend: 0x0, symName: '__ZN152_$LT$core..result..Result$LT$pyo3..instance..Bound$LT$pyo3..types..any..PyAny$GT$$C$pyo3..err..PyErr$GT$$u20$as$u20$pyo3..py_result_ext..PyResultExt$GT$19cast_into_unchecked28_$u7b$$u7b$closure$u7d$$u7d$17ha395146ad45b8af6E', symObjAddr: 0x168, symBinAddr: 0x1A350, symSize: 0x24 }
  - { offset: 0xAC7EC, size: 0x8, addend: 0x0, symName: '__ZN4pyo35impl_8pymodule9ModuleDef11make_module28_$u7b$$u7b$closure$u7d$$u7d$17h6ad19fed8bd920d9E', symObjAddr: 0x91C, symBinAddr: 0x1A6A0, symSize: 0x30 }
  - { offset: 0xAC831, size: 0x8, addend: 0x0, symName: '__ZN4pyo35impl_8pymodule9ModuleDef11make_module28_$u7b$$u7b$closure$u7d$$u7d$17h6ceb238b31b96443E', symObjAddr: 0x94C, symBinAddr: 0x1A6D0, symSize: 0x1A0 }
  - { offset: 0xAD211, size: 0x8, addend: 0x0, symName: __ZN8pyo3_ffi11tupleobject13PyTuple_Check17h1a637d22cea0ad58E, symObjAddr: 0xE58, symBinAddr: 0x1A8AC, symSize: 0x30 }
  - { offset: 0xAD970, size: 0x8, addend: 0x0, symName: __ZN4pyo35impl_8pymodule9ModuleDef11make_module17h3f8e63303e267649E, symObjAddr: 0x790, symBinAddr: 0x1A514, symSize: 0x18C }
  - { offset: 0xADA25, size: 0x8, addend: 0x0, symName: __ZN9hashbrown3raw11TableLayout20calculate_layout_for17ha4daac1f045e8974E, symObjAddr: 0xF28, symBinAddr: 0x1A8DC, symSize: 0x220 }
  - { offset: 0xADDCA, size: 0x8, addend: 0x0, symName: __ZN9hashbrown3raw13RawTableInner13drop_elements17h65d069bfa94dfd9fE, symObjAddr: 0x1148, symBinAddr: 0x1AAFC, symSize: 0x30 }
  - { offset: 0xAE25F, size: 0x8, addend: 0x0, symName: __ZN9hashbrown3raw13RawTableInner15rehash_in_place17h8bc92b71d0864a85E, symObjAddr: 0x1224, symBinAddr: 0x1ABD8, symSize: 0x408 }
  - { offset: 0xAEAD1, size: 0x8, addend: 0x0, symName: __ZN9hashbrown3raw13RawTableInner16drop_inner_table17hc2335b7f0233872aE, symObjAddr: 0x1820, symBinAddr: 0x1B1D4, symSize: 0xAC }
  - { offset: 0xAED92, size: 0x8, addend: 0x0, symName: __ZN9hashbrown3raw13RawTableInner16fix_insert_index17hd79ae398c78ab1e6E, symObjAddr: 0x18CC, symBinAddr: 0x1B280, symSize: 0x100 }
  - { offset: 0xAF004, size: 0x8, addend: 0x0, symName: __ZN9hashbrown3raw13RawTableInner17find_insert_index17h1b2ba79c36cca0c2E, symObjAddr: 0x19CC, symBinAddr: 0x1B380, symSize: 0xFC }
  - { offset: 0xAF1EB, size: 0x8, addend: 0x0, symName: __ZN9hashbrown3raw13RawTableInner17new_uninitialized17h6677b2fc55364dd5E, symObjAddr: 0x1AC8, symBinAddr: 0x1B47C, symSize: 0x248 }
  - { offset: 0xAF442, size: 0x8, addend: 0x0, symName: __ZN9hashbrown3raw13RawTableInner22fallible_with_capacity17hfdb69c3757cde9f0E, symObjAddr: 0x1D10, symBinAddr: 0x1B6C4, symSize: 0x220 }
  - { offset: 0xAF8DB, size: 0x8, addend: 0x0, symName: __ZN9hashbrown3raw13RawTableInner23prepare_rehash_in_place17h2845b02cd9d09278E, symObjAddr: 0x1F30, symBinAddr: 0x1B8E4, symSize: 0x204 }
  - { offset: 0xAFED1, size: 0x8, addend: 0x0, symName: __ZN9hashbrown3raw13RawTableInner26find_insert_index_in_group17h1d07c4387b374e53E, symObjAddr: 0x2134, symBinAddr: 0x1BAE8, symSize: 0x120 }
  - { offset: 0xB0015, size: 0x8, addend: 0x0, symName: '__ZN9hashbrown3raw21RawIterRange$LT$T$GT$3new17hdaa44de285aad9faE', symObjAddr: 0x251C, symBinAddr: 0x1BED0, symSize: 0x98 }
  - { offset: 0xB02A9, size: 0x8, addend: 0x0, symName: '__ZN9hashbrown3raw21RawIterRange$LT$T$GT$9next_impl17he84eb852379cccd1E', symObjAddr: 0x25B4, symBinAddr: 0x1BF68, symSize: 0x1B4 }
  - { offset: 0xB07C6, size: 0x8, addend: 0x0, symName: '__ZN9hashbrown3raw21RawTable$LT$T$C$A$GT$14insert_no_grow17h035cadec622b05ecE', symObjAddr: 0x2768, symBinAddr: 0x1C11C, symSize: 0x184 }
  - { offset: 0xB0FD5, size: 0x8, addend: 0x0, symName: '__ZN9hashbrown3raw21RawTable$LT$T$C$A$GT$14reserve_rehash17h8b3ab87e80c6a3f3E', symObjAddr: 0x28EC, symBinAddr: 0x6EFD8, symSize: 0x7BC }
  - { offset: 0xB1CD2, size: 0x8, addend: 0x0, symName: '__ZN9hashbrown3raw21RawTable$LT$T$C$A$GT$4find17h7fbfbc1567007e48E', symObjAddr: 0x3168, symBinAddr: 0x1C360, symSize: 0x314 }
  - { offset: 0xB22F5, size: 0x8, addend: 0x0, symName: '__ZN9hashbrown3raw21RawTable$LT$T$C$A$GT$7reserve17h5904acc831f7d117E', symObjAddr: 0x3540, symBinAddr: 0x1C738, symSize: 0xB0 }
  - { offset: 0xB3663, size: 0x8, addend: 0x0, symName: __ZN4core3ptr10swap_chunk17h0d79ac3f2260eeedE, symObjAddr: 0xB9C, symBinAddr: 0x1CE54, symSize: 0x3C }
  - { offset: 0xB369C, size: 0x8, addend: 0x0, symName: __ZN4core3ptr10swap_chunk17h348d158f4e52897bE, symObjAddr: 0xBD8, symBinAddr: 0x1CE90, symSize: 0x3C }
  - { offset: 0xB36D5, size: 0x8, addend: 0x0, symName: __ZN4core3ptr10swap_chunk17haec2cc841a0fecdfE, symObjAddr: 0xC14, symBinAddr: 0x1CECC, symSize: 0x3C }
  - { offset: 0xB370E, size: 0x8, addend: 0x0, symName: __ZN4core3ptr10swap_chunk17hca20bdac1842c367E, symObjAddr: 0xC50, symBinAddr: 0x1CF08, symSize: 0x3C }
  - { offset: 0xB374C, size: 0x8, addend: 0x0, symName: __ZN4core3ptr11write_bytes18precondition_check17h5211b6e142bae096E, symObjAddr: 0xC8C, symBinAddr: 0x1CF44, symSize: 0x9C }
  - { offset: 0xB3913, size: 0x8, addend: 0x0, symName: __ZN4core3ptr14read_unaligned17h25d13f1c1d0a0663E, symObjAddr: 0xD28, symBinAddr: 0x1CFE0, symSize: 0x9C }
  - { offset: 0xB3A5E, size: 0x8, addend: 0x0, symName: __ZN4core3ptr15write_unaligned17h85fbfbc314b696ddE, symObjAddr: 0xDC4, symBinAddr: 0x1D07C, symSize: 0x78 }
  - { offset: 0xB3AE9, size: 0x8, addend: 0x0, symName: __ZN4core3ptr19copy_nonoverlapping18precondition_check17h42785d71d255998cE, symObjAddr: 0xE3C, symBinAddr: 0x1D0F4, symSize: 0x168 }
  - { offset: 0xB3D34, size: 0x8, addend: 0x0, symName: __ZN4core3ptr19swap_nonoverlapping18precondition_check17h1b7eff2bf609cbe7E, symObjAddr: 0x1120, symBinAddr: 0x1D318, symSize: 0x16C }
  - { offset: 0xB3F19, size: 0x8, addend: 0x0, symName: __ZN4core3ptr19swap_nonoverlapping17h8e6a7ffe6de0680cE, symObjAddr: 0x1064, symBinAddr: 0x1D25C, symSize: 0xBC }
  - { offset: 0xB4103, size: 0x8, addend: 0x0, symName: '__ZN4core3ptr7mut_ptr31_$LT$impl$u20$$BP$mut$u20$T$GT$7is_null17hec44bbae62941050E', symObjAddr: 0x16D8, symBinAddr: 0x1D868, symSize: 0x18 }
  - { offset: 0xB41CB, size: 0x8, addend: 0x0, symName: __ZN4core3ptr25swap_nonoverlapping_bytes17h7cc4d6bfe892801aE, symObjAddr: 0x12A4, symBinAddr: 0x1D484, symSize: 0xD8 }
  - { offset: 0xB4374, size: 0x8, addend: 0x0, symName: __ZN4core3ptr25swap_nonoverlapping_bytes25swap_nonoverlapping_short17h8b94e5b6e110bef7E, symObjAddr: 0x137C, symBinAddr: 0x1D55C, symSize: 0x11C }
  - { offset: 0xB4500, size: 0x8, addend: 0x0, symName: __ZN4core3ptr25swap_nonoverlapping_bytes26swap_nonoverlapping_chunks17h0bca184cbd32a6a8E, symObjAddr: 0x1498, symBinAddr: 0x1D678, symSize: 0xC0 }
  - { offset: 0xB4683, size: 0x8, addend: 0x0, symName: __ZN4core3ptr4copy18precondition_check17h882a79885375e6f8E, symObjAddr: 0x1558, symBinAddr: 0x1D738, symSize: 0x130 }
  - { offset: 0xB47CF, size: 0x8, addend: 0x0, symName: __ZN4core3ptr7replace18precondition_check17haa329778c17c798eE, symObjAddr: 0x16F0, symBinAddr: 0x1D880, symSize: 0x9C }
  - { offset: 0xB4DF5, size: 0x8, addend: 0x0, symName: __ZN4core3cmp3Ord3max17hde76dba55c573291E, symObjAddr: 0xA54, symBinAddr: 0x1CD3C, symSize: 0x74 }
  - { offset: 0xB4E63, size: 0x8, addend: 0x0, symName: __ZN4core3cmp3Ord3min17hd061456661e311e0E, symObjAddr: 0xAC8, symBinAddr: 0x1CDB0, symSize: 0x74 }
  - { offset: 0xB4ED7, size: 0x8, addend: 0x0, symName: __ZN4core3cmp9PartialEq2ne17h6e8804b6a6916435E, symObjAddr: 0xB6C, symBinAddr: 0x1CE24, symSize: 0x30 }
  - { offset: 0xB512A, size: 0x8, addend: 0x0, symName: '__ZN110_$LT$core..iter..adapters..enumerate..Enumerate$LT$I$GT$$u20$as$u20$core..iter..traits..iterator..Iterator$GT$4next17h01e0f4316bf45758E', symObjAddr: 0x3C, symBinAddr: 0x1C7E8, symSize: 0xE0 }
  - { offset: 0xB5210, size: 0x8, addend: 0x0, symName: '__ZN110_$LT$core..iter..adapters..enumerate..Enumerate$LT$I$GT$$u20$as$u20$core..iter..traits..iterator..Iterator$GT$4next17h5994c8c0084de2efE', symObjAddr: 0x11C, symBinAddr: 0x1C8C8, symSize: 0xEC }
  - { offset: 0xB52F6, size: 0x8, addend: 0x0, symName: '__ZN110_$LT$core..iter..adapters..enumerate..Enumerate$LT$I$GT$$u20$as$u20$core..iter..traits..iterator..Iterator$GT$4next17h8cbc182bad06834bE', symObjAddr: 0x2F4, symBinAddr: 0x1C9B4, symSize: 0xEC }
  - { offset: 0xB5466, size: 0x8, addend: 0x0, symName: '__ZN146_$LT$core..ops..range..Range$LT$usize$GT$$u20$as$u20$core..iter..adapters..step_by..SpecRangeSetup$LT$core..ops..range..Range$LT$usize$GT$$GT$$GT$5setup17ha67479dc627e4c0bE', symObjAddr: 0x76C, symBinAddr: 0x1CBE0, symSize: 0x110 }
  - { offset: 0xB5658, size: 0x8, addend: 0x0, symName: '__ZN63_$LT$I$u20$as$u20$core..iter..traits..collect..IntoIterator$GT$9into_iter17h0d90134223913cf2E', symObjAddr: 0x4E10, symBinAddr: 0x1E548, symSize: 0x14 }
  - { offset: 0xB568F, size: 0x8, addend: 0x0, symName: '__ZN63_$LT$I$u20$as$u20$core..iter..traits..collect..IntoIterator$GT$9into_iter17h5d1f3bf0914b03c4E', symObjAddr: 0x4E38, symBinAddr: 0x1E55C, symSize: 0x14 }
  - { offset: 0xB56C6, size: 0x8, addend: 0x0, symName: '__ZN63_$LT$I$u20$as$u20$core..iter..traits..collect..IntoIterator$GT$9into_iter17h641b4899033356d5E', symObjAddr: 0x4E4C, symBinAddr: 0x1E570, symSize: 0x18 }
  - { offset: 0xB5D38, size: 0x8, addend: 0x0, symName: '__ZN4core3str6traits99_$LT$impl$u20$core..slice..index..SliceIndex$LT$str$GT$$u20$for$u20$core..ops..range..RangeFull$GT$5index17h9a0e6743a8ca7e2fE', symObjAddr: 0x178C, symBinAddr: 0x1D91C, symSize: 0x18 }
  - { offset: 0xB5D7B, size: 0x8, addend: 0x0, symName: '__ZN42_$LT$$RF$T$u20$as$u20$core..fmt..Debug$GT$3fmt17h986aaa4ab3439658E', symObjAddr: 0x9B0, symBinAddr: 0x1CD0C, symSize: 0x30 }
  - { offset: 0xB5E56, size: 0x8, addend: 0x0, symName: '__ZN50_$LT$$BP$mut$u20$T$u20$as$u20$core..fmt..Debug$GT$3fmt17hdb93aca2871acaf3E', symObjAddr: 0x49E4, symBinAddr: 0x1E324, symSize: 0x38 }
  - { offset: 0xB5EC8, size: 0x8, addend: 0x0, symName: '__ZN54_$LT$$BP$const$u20$T$u20$as$u20$core..fmt..Pointer$GT$3fmt17h92ec292ce3b2491eE', symObjAddr: 0x4CC4, symBinAddr: 0x1E47C, symSize: 0xCC }
  - { offset: 0xB6263, size: 0x8, addend: 0x0, symName: __ZN4core9core_arch10arm_shared4neon9generated13vget_lane_u6417h39b16a33ff6d0660E, symObjAddr: 0x1DC8, symBinAddr: 0x1DB04, symSize: 0x18 }
  - { offset: 0xB6292, size: 0x8, addend: 0x0, symName: __ZN4core9core_arch10arm_shared4neon9generated18vreinterpret_s8_u817hd1d5dd8e43be5d6dE, symObjAddr: 0x1DE0, symBinAddr: 0x1DB1C, symSize: 0xC }
  - { offset: 0xB62C0, size: 0x8, addend: 0x0, symName: __ZN4core9core_arch10arm_shared4neon9generated19vreinterpret_u64_u817h369aa914c3ad5579E, symObjAddr: 0x1DEC, symBinAddr: 0x1DB28, symSize: 0xC }
  - { offset: 0xB62EE, size: 0x8, addend: 0x0, symName: __ZN4core9core_arch10arm_shared4neon9generated7vceq_u817h93a49e2a4dcb484fE, symObjAddr: 0x1DF8, symBinAddr: 0x1DB34, symSize: 0x14 }
  - { offset: 0xB632B, size: 0x8, addend: 0x0, symName: __ZN4core9core_arch10arm_shared4neon9generated7vorr_u817hdda880ff8a3b2758E, symObjAddr: 0x1E0C, symBinAddr: 0x1DB48, symSize: 0x14 }
  - { offset: 0xB6368, size: 0x8, addend: 0x0, symName: __ZN4core9core_arch10arm_shared4neon9generated9vdup_n_u817h9df3036bb78ddde6E, symObjAddr: 0x1E20, symBinAddr: 0x1DB5C, symSize: 0x2C }
  - { offset: 0xB648A, size: 0x8, addend: 0x0, symName: __ZN4core4char7methods25encode_utf8_raw_unchecked17hf73eb7b179b979cfE, symObjAddr: 0x1A60, symBinAddr: 0x1D934, symSize: 0x188 }
  - { offset: 0xB6640, size: 0x8, addend: 0x0, symName: '__ZN4core5slice29_$LT$impl$u20$$u5b$T$u5d$$GT$8contains17h59a26378b1fb3120E', symObjAddr: 0x1D80, symBinAddr: 0x1DABC, symSize: 0x48 }
  - { offset: 0xB6748, size: 0x8, addend: 0x0, symName: '__ZN53_$LT$T$u20$as$u20$core..slice..cmp..SliceContains$GT$14slice_contains17h1d9944056bdf73c8E', symObjAddr: 0x4C4C, symBinAddr: 0x1E404, symSize: 0x78 }
  - { offset: 0xB6CB4, size: 0x8, addend: 0x0, symName: __ZN4pyo35types6module7__all__8INTERNED17hff9bae34ab500060E, symObjAddr: 0x72B0, symBinAddr: 0xB4508, symSize: 0x0 }
  - { offset: 0xB6CCC, size: 0x8, addend: 0x0, symName: '__ZN115_$LT$pyo3..instance..Bound$LT$pyo3..types..module..PyModule$GT$$u20$as$u20$pyo3..types..module..PyModuleMethods$GT$3add5inner17h069df649b8996d0aE', symObjAddr: 0x5C4, symBinAddr: 0x1CAA0, symSize: 0x140 }
  - { offset: 0xB6D5B, size: 0x8, addend: 0x0, symName: __ZN4pyo35types6module7__all__17h25129e3da7fe85a6E, symObjAddr: 0x3414, symBinAddr: 0x1E114, symSize: 0x24 }
  - { offset: 0xB6EDA, size: 0x8, addend: 0x0, symName: '__ZN79_$LT$pyo3..types..string..PyString$u20$as$u20$pyo3..type_object..PyTypeInfo$GT$10is_type_of17h48280cb6b8ab3f29E', symObjAddr: 0x5120, symBinAddr: 0x1E660, symSize: 0x30 }
  - { offset: 0xB6F06, size: 0x8, addend: 0x0, symName: '__ZN79_$LT$pyo3..types..string..PyString$u20$as$u20$pyo3..type_object..PyTypeInfo$GT$15type_object_raw17h1a1e784a3571a47aE', symObjAddr: 0x5150, symBinAddr: 0x1E690, symSize: 0x24 }
  - { offset: 0xB6F42, size: 0x8, addend: 0x0, symName: '__ZN79_$LT$pyo3..types..string..PyString$u20$as$u20$pyo3..type_object..PyTypeInfo$GT$15type_object_raw28_$u7b$$u7b$closure$u7d$$u7d$17h9f0a6e0ab8b7694fE', symObjAddr: 0x5174, symBinAddr: 0x1E6B4, symSize: 0x18 }
  - { offset: 0xB6FB2, size: 0x8, addend: 0x0, symName: '__ZN4pyo35types5float64_$LT$impl$u20$pyo3..conversion..FromPyObject$u20$for$u20$f64$GT$7extract17ha1200c7343e07415E', symObjAddr: 0x3274, symBinAddr: 0x1DF94, symSize: 0x150 }
  - { offset: 0xB705C, size: 0x8, addend: 0x0, symName: '__ZN77_$LT$pyo3..types..float..PyFloat$u20$as$u20$pyo3..type_object..PyTypeInfo$GT$15type_object_raw17h7d3940e3fb744c84E', symObjAddr: 0x5008, symBinAddr: 0x1E5B4, symSize: 0x24 }
  - { offset: 0xB7098, size: 0x8, addend: 0x0, symName: '__ZN77_$LT$pyo3..types..float..PyFloat$u20$as$u20$pyo3..type_object..PyTypeInfo$GT$15type_object_raw28_$u7b$$u7b$closure$u7d$$u7d$17hed39c31e2571efb3E', symObjAddr: 0x502C, symBinAddr: 0x1E5D8, symSize: 0x18 }
  - { offset: 0xB7159, size: 0x8, addend: 0x0, symName: __ZN4pyo321interpreter_lifecycle5START17h78fb5d0703b7fd76E, symObjAddr: 0x72A8, symBinAddr: 0xB4500, symSize: 0x0 }
  - { offset: 0xB7166, size: 0x8, addend: 0x0, symName: __ZN4pyo321interpreter_lifecycle10initialize17h4cdb68a88930801aE, symObjAddr: 0x3008, symBinAddr: 0x1DE78, symSize: 0x1C }
  - { offset: 0xB7184, size: 0x8, addend: 0x0, symName: '__ZN4pyo321interpreter_lifecycle10initialize28_$u7b$$u7b$closure$u7d$$u7d$17h7a4c8c97857d3df2E', symObjAddr: 0x3024, symBinAddr: 0x1DE94, symSize: 0x38 }
  - { offset: 0xB71BA, size: 0x8, addend: 0x0, symName: __ZN4pyo321interpreter_lifecycle18ensure_initialized17hcc064449eed10430E, symObjAddr: 0x305C, symBinAddr: 0x1DECC, symSize: 0x38 }
  - { offset: 0xB71D8, size: 0x8, addend: 0x0, symName: '__ZN4pyo321interpreter_lifecycle18ensure_initialized28_$u7b$$u7b$closure$u7d$$u7d$17ha6020b36e78dfc03E', symObjAddr: 0x3094, symBinAddr: 0x1DF04, symSize: 0x90 }
  - { offset: 0xB751B, size: 0x8, addend: 0x0, symName: '__ZN79_$LT$pyo3..exceptions..PyTypeError$u20$as$u20$pyo3..type_object..PyTypeInfo$GT$15type_object_raw17h9dc2f5aa06bd00caE', symObjAddr: 0x5044, symBinAddr: 0x1E5F0, symSize: 0x24 }
  - { offset: 0xB7557, size: 0x8, addend: 0x0, symName: '__ZN79_$LT$pyo3..exceptions..PyTypeError$u20$as$u20$pyo3..type_object..PyTypeInfo$GT$15type_object_raw28_$u7b$$u7b$closure$u7d$$u7d$17h1bfb78a7bb09115aE', symObjAddr: 0x5068, symBinAddr: 0x1E614, symSize: 0x4C }
  - { offset: 0xB75A6, size: 0x8, addend: 0x0, symName: '__ZN80_$LT$pyo3..exceptions..PyValueError$u20$as$u20$pyo3..type_object..PyTypeInfo$GT$15type_object_raw17hf486e6174f656fa0E', symObjAddr: 0x518C, symBinAddr: 0x1E6CC, symSize: 0x24 }
  - { offset: 0xB75E2, size: 0x8, addend: 0x0, symName: '__ZN80_$LT$pyo3..exceptions..PyValueError$u20$as$u20$pyo3..type_object..PyTypeInfo$GT$15type_object_raw28_$u7b$$u7b$closure$u7d$$u7d$17h52d65d6fcde8f967E', symObjAddr: 0x51B0, symBinAddr: 0x1E6F0, symSize: 0x4C }
  - { offset: 0xB7631, size: 0x8, addend: 0x0, symName: '__ZN81_$LT$pyo3..exceptions..PyImportError$u20$as$u20$pyo3..type_object..PyTypeInfo$GT$15type_object_raw17ha37ac7269de1cf34E', symObjAddr: 0x522C, symBinAddr: 0x1E73C, symSize: 0x24 }
  - { offset: 0xB766D, size: 0x8, addend: 0x0, symName: '__ZN81_$LT$pyo3..exceptions..PyImportError$u20$as$u20$pyo3..type_object..PyTypeInfo$GT$15type_object_raw28_$u7b$$u7b$closure$u7d$$u7d$17hc38e3ce945092e52E', symObjAddr: 0x5250, symBinAddr: 0x1E760, symSize: 0x4C }
  - { offset: 0xB76BC, size: 0x8, addend: 0x0, symName: '__ZN82_$LT$pyo3..exceptions..PyRuntimeError$u20$as$u20$pyo3..type_object..PyTypeInfo$GT$15type_object_raw17h6c3f4359fdd38e4bE', symObjAddr: 0x530C, symBinAddr: 0x1E7AC, symSize: 0x24 }
  - { offset: 0xB76F8, size: 0x8, addend: 0x0, symName: '__ZN82_$LT$pyo3..exceptions..PyRuntimeError$u20$as$u20$pyo3..type_object..PyTypeInfo$GT$15type_object_raw28_$u7b$$u7b$closure$u7d$$u7d$17ha35421f28bbc135dE', symObjAddr: 0x5330, symBinAddr: 0x1E7D0, symSize: 0x4C }
  - { offset: 0xB7747, size: 0x8, addend: 0x0, symName: '__ZN83_$LT$pyo3..exceptions..PyBaseException$u20$as$u20$pyo3..type_object..PyTypeInfo$GT$10is_type_of17hbcb0f236857b56e5E', symObjAddr: 0x53EC, symBinAddr: 0x1E81C, symSize: 0x30 }
  - { offset: 0xB7773, size: 0x8, addend: 0x0, symName: '__ZN83_$LT$pyo3..exceptions..PyBaseException$u20$as$u20$pyo3..type_object..PyTypeInfo$GT$15type_object_raw17hd805357b0223f9f5E', symObjAddr: 0x541C, symBinAddr: 0x1E84C, symSize: 0x24 }
  - { offset: 0xB77AF, size: 0x8, addend: 0x0, symName: '__ZN83_$LT$pyo3..exceptions..PyBaseException$u20$as$u20$pyo3..type_object..PyTypeInfo$GT$15type_object_raw28_$u7b$$u7b$closure$u7d$$u7d$17hde7868cf72c9b0e6E', symObjAddr: 0x5440, symBinAddr: 0x1E870, symSize: 0x4C }
  - { offset: 0xB77FE, size: 0x8, addend: 0x0, symName: '__ZN84_$LT$pyo3..exceptions..PyAttributeError$u20$as$u20$pyo3..type_object..PyTypeInfo$GT$15type_object_raw17h2530af2e4cfb3d10E', symObjAddr: 0x54FC, symBinAddr: 0x1E8BC, symSize: 0x24 }
  - { offset: 0xB783A, size: 0x8, addend: 0x0, symName: '__ZN84_$LT$pyo3..exceptions..PyAttributeError$u20$as$u20$pyo3..type_object..PyTypeInfo$GT$15type_object_raw28_$u7b$$u7b$closure$u7d$$u7d$17h11953b9b2f832048E', symObjAddr: 0x5520, symBinAddr: 0x1E8E0, symSize: 0x4C }
  - { offset: 0xB79B0, size: 0x8, addend: 0x0, symName: __ZN4pyo311type_object10PyTypeInfo11type_object17h01bcc3f717d4ddcdE, symObjAddr: 0x2A40, symBinAddr: 0x1DCA0, symSize: 0x30 }
  - { offset: 0xB79F0, size: 0x8, addend: 0x0, symName: __ZN4pyo311type_object10PyTypeInfo11type_object17h34ff365432fe1aeeE, symObjAddr: 0x2B30, symBinAddr: 0x1DCD0, symSize: 0x30 }
  - { offset: 0xB7A30, size: 0x8, addend: 0x0, symName: __ZN4pyo311type_object10PyTypeInfo11type_object17h4744b103a55a9716E, symObjAddr: 0x2BC0, symBinAddr: 0x1DD00, symSize: 0x30 }
  - { offset: 0xB7A70, size: 0x8, addend: 0x0, symName: __ZN4pyo311type_object10PyTypeInfo11type_object17h591e3f94dd08b201E, symObjAddr: 0x2BF0, symBinAddr: 0x1DD30, symSize: 0x30 }
  - { offset: 0xB7AB0, size: 0x8, addend: 0x0, symName: __ZN4pyo311type_object10PyTypeInfo11type_object17h59cb1579b7201342E, symObjAddr: 0x2C20, symBinAddr: 0x1DD60, symSize: 0x30 }
  - { offset: 0xB7AF0, size: 0x8, addend: 0x0, symName: __ZN4pyo311type_object10PyTypeInfo11type_object17h63ec3bea06449eedE, symObjAddr: 0x2C80, symBinAddr: 0x1DD90, symSize: 0x30 }
  - { offset: 0xB7B30, size: 0x8, addend: 0x0, symName: __ZN4pyo311type_object10PyTypeInfo11type_object17h8dfe597efaabd2bfE, symObjAddr: 0x2DA0, symBinAddr: 0x1DDC0, symSize: 0x30 }
  - { offset: 0xB7B70, size: 0x8, addend: 0x0, symName: __ZN4pyo311type_object10PyTypeInfo11type_object17ha497ee85d1ef397cE, symObjAddr: 0x2DD0, symBinAddr: 0x1DDF0, symSize: 0x30 }
  - { offset: 0xB7BB0, size: 0x8, addend: 0x0, symName: __ZN4pyo311type_object10PyTypeInfo16is_exact_type_of17hed561a104483df6eE, symObjAddr: 0x2FB0, symBinAddr: 0x1DE20, symSize: 0x58 }
  - { offset: 0xB7C10, size: 0x8, addend: 0x0, symName: '__ZN52_$LT$T$u20$as$u20$pyo3..type_object..PyTypeCheck$GT$10type_check17haf699bd84aa50972E', symObjAddr: 0x4A78, symBinAddr: 0x1E35C, symSize: 0x24 }
  - { offset: 0xB7C45, size: 0x8, addend: 0x0, symName: '__ZN52_$LT$T$u20$as$u20$pyo3..type_object..PyTypeCheck$GT$10type_check17he4cc041a657def40E', symObjAddr: 0x4B08, symBinAddr: 0x1E380, symSize: 0x24 }
  - { offset: 0xB7C7A, size: 0x8, addend: 0x0, symName: '__ZN52_$LT$T$u20$as$u20$pyo3..type_object..PyTypeCheck$GT$16classinfo_object17h47a1bb9ed805a133E', symObjAddr: 0x4B4C, symBinAddr: 0x1E3A4, symSize: 0x20 }
  - { offset: 0xB7CBA, size: 0x8, addend: 0x0, symName: '__ZN52_$LT$T$u20$as$u20$pyo3..type_object..PyTypeCheck$GT$16classinfo_object17h5a10017206815f89E', symObjAddr: 0x4B8C, symBinAddr: 0x1E3C4, symSize: 0x20 }
  - { offset: 0xB7CFA, size: 0x8, addend: 0x0, symName: '__ZN52_$LT$T$u20$as$u20$pyo3..type_object..PyTypeCheck$GT$16classinfo_object17h5e17c47a33bd8117E', symObjAddr: 0x4BAC, symBinAddr: 0x1E3E4, symSize: 0x20 }
  - { offset: 0xB852B, size: 0x8, addend: 0x0, symName: __ZN8pyo3_ffi7objimpl12PyType_IS_GC17h18aac63c6d6f8819E, symObjAddr: 0x5A5C, symBinAddr: 0x1E92C, symSize: 0x2C }
  - { offset: 0xB8AE0, size: 0x8, addend: 0x0, symName: '__ZN66_$LT$std..thread..id..ThreadId$u20$as$u20$core..cmp..PartialEq$GT$2eq17h03d1108c01ba27ceE', symObjAddr: 0x4E94, symBinAddr: 0x1E588, symSize: 0x2C }
  - { offset: 0xB90EF, size: 0x8, addend: 0x0, symName: __ZN3std6thread6thread6Thread2id17haddb41f28d33c14aE, symObjAddr: 0x964, symBinAddr: 0x1CCF0, symSize: 0x1C }
  - { offset: 0xB93A9, size: 0x8, addend: 0x0, symName: __ZN4pyo310exceptions11PyTypeError7new_err17h21c3d83c942761bcE, symObjAddr: 0x1E4C, symBinAddr: 0x1DB88, symSize: 0x34 }
  - { offset: 0xB93D5, size: 0x8, addend: 0x0, symName: __ZN4pyo310exceptions11PyTypeError7new_err17h453450b14bc282cbE, symObjAddr: 0x1E80, symBinAddr: 0x1DBBC, symSize: 0x2C }
  - { offset: 0xB9400, size: 0x8, addend: 0x0, symName: __ZN4pyo310exceptions11PyTypeError7new_err17hc0ff49b1dcacd519E, symObjAddr: 0x1EAC, symBinAddr: 0x1DBE8, symSize: 0x28 }
  - { offset: 0xB942B, size: 0x8, addend: 0x0, symName: __ZN4pyo310exceptions12PyValueError7new_err17h88c28d6cec0eec86E, symObjAddr: 0x1FBC, symBinAddr: 0x1DC10, symSize: 0x34 }
  - { offset: 0xB9457, size: 0x8, addend: 0x0, symName: __ZN4pyo310exceptions13PyImportError7new_err17h95a719fc5afb810dE, symObjAddr: 0x204C, symBinAddr: 0x1DC44, symSize: 0x28 }
  - { offset: 0xB9482, size: 0x8, addend: 0x0, symName: __ZN4pyo310exceptions14PyRuntimeError7new_err17h60a835ea4a861a79E, symObjAddr: 0x2098, symBinAddr: 0x1DC6C, symSize: 0x34 }
  - { offset: 0xB94E9, size: 0x8, addend: 0x0, symName: __ZN4pyo35types5float7PyFloat3new17hd3fdc0cfe9392e96E, symObjAddr: 0x33E4, symBinAddr: 0x1E0E4, symSize: 0x30 }
  - { offset: 0xB9531, size: 0x8, addend: 0x0, symName: __ZN4pyo35types6module8PyModule6import17h400a70c8cfd06e26E, symObjAddr: 0x34D0, symBinAddr: 0x1E138, symSize: 0xF8 }
  - { offset: 0xB95D6, size: 0x8, addend: 0x0, symName: __ZN4pyo35types6string8PyString3new17h8cdbe681a804c1d4E, symObjAddr: 0x4570, symBinAddr: 0x1E230, symSize: 0x68 }
  - { offset: 0xB964B, size: 0x8, addend: 0x0, symName: __ZN4pyo35types6string8PyString6intern17hc3c9dae366ea1d8cE, symObjAddr: 0x45D8, symBinAddr: 0x1E298, symSize: 0x8C }
  - { offset: 0xB9B0F, size: 0x8, addend: 0x0, symName: '__ZN45_$LT$T$u20$as$u20$alloc..string..ToString$GT$9to_string17h0a654283db320effE', symObjAddr: 0x6F0, symBinAddr: 0x1ED4C, symSize: 0x24 }
  - { offset: 0xB9B46, size: 0x8, addend: 0x0, symName: '__ZN45_$LT$T$u20$as$u20$alloc..string..ToString$GT$9to_string17hfa693682d99891a9E', symObjAddr: 0x858, symBinAddr: 0x1ED70, symSize: 0x24 }
  - { offset: 0xB9B83, size: 0x8, addend: 0x0, symName: '__ZN49_$LT$T$u20$as$u20$alloc..string..SpecToString$GT$14spec_to_string17h92ddfa53e84cd63dE', symObjAddr: 0x1190, symBinAddr: 0x1EF08, symSize: 0xF4 }
  - { offset: 0xB9C71, size: 0x8, addend: 0x0, symName: '__ZN76_$LT$alloc..string..String$u20$as$u20$core..convert..From$LT$$RF$str$GT$$GT$4from17h06c76c45c4118389E', symObjAddr: 0x2CA8, symBinAddr: 0x1FF4C, symSize: 0x50 }
  - { offset: 0xB9D5E, size: 0x8, addend: 0x0, symName: '__ZN55_$LT$$RF$str$u20$as$u20$alloc..string..SpecToString$GT$14spec_to_string17hed00e24b7b67985cE', symObjAddr: 0x2378, symBinAddr: 0x1F7E4, symSize: 0x5C }
  - { offset: 0xB9EC3, size: 0x8, addend: 0x0, symName: '__ZN65_$LT$alloc..string..String$u20$as$u20$core..ops..deref..Deref$GT$5deref17h5d8a3df4366cc857E', symObjAddr: 0x2878, symBinAddr: 0x1FBBC, symSize: 0x24 }
  - { offset: 0xB9EF7, size: 0x8, addend: 0x0, symName: '__ZN58_$LT$alloc..string..String$u20$as$u20$core..fmt..Debug$GT$3fmt17h69e48f6875cf9b95E', symObjAddr: 0x23D4, symBinAddr: 0x1F840, symSize: 0x80 }
  - { offset: 0xBA05C, size: 0x8, addend: 0x0, symName: '__ZN58_$LT$alloc..string..String$u20$as$u20$core..fmt..Write$GT$10write_char17h8c4590b8222e4a80E', symObjAddr: 0x2454, symBinAddr: 0x1F8C0, symSize: 0x30 }
  - { offset: 0xBA099, size: 0x8, addend: 0x0, symName: '__ZN58_$LT$alloc..string..String$u20$as$u20$core..fmt..Write$GT$9write_str17h4e60763add572804E', symObjAddr: 0x2484, symBinAddr: 0x1F8F0, symSize: 0x38 }
  - { offset: 0xBA0DC, size: 0x8, addend: 0x0, symName: '__ZN60_$LT$alloc..string..String$u20$as$u20$core..fmt..Display$GT$3fmt17h5980c64840707904E', symObjAddr: 0x27F8, symBinAddr: 0x1FB3C, symSize: 0x80 }
  - { offset: 0xBA241, size: 0x8, addend: 0x0, symName: '__ZN74_$LT$alloc..string..String$u20$as$u20$core..ops..index..Index$LT$I$GT$$GT$5index17h4ef867b706e894b5E', symObjAddr: 0x2B94, symBinAddr: 0x1FE38, symSize: 0x7C }
  - { offset: 0xBA9A3, size: 0x8, addend: 0x0, symName: '__ZN66_$LT$T$u20$as$u20$alloc..ffi..c_str..CString..new..SpecNewImpl$GT$13spec_new_impl17h739a43d662383aa7E', symObjAddr: 0x289C, symBinAddr: 0x1FBE0, symSize: 0x174 }
  - { offset: 0xBAAC0, size: 0x8, addend: 0x0, symName: '__ZN68_$LT$alloc..ffi..c_str..CString$u20$as$u20$core..ops..drop..Drop$GT$4drop17hbf2954283724eb14E', symObjAddr: 0x2A10, symBinAddr: 0x1FD54, symSize: 0x70 }
  - { offset: 0xBAB2C, size: 0x8, addend: 0x0, symName: '__ZN70_$LT$alloc..ffi..c_str..CString$u20$as$u20$core..ops..deref..Deref$GT$5deref17h50ff5646b21bb299E', symObjAddr: 0x2B20, symBinAddr: 0x1FDC4, symSize: 0x20 }
  - { offset: 0xBABE1, size: 0x8, addend: 0x0, symName: '__ZN5alloc3str83_$LT$impl$u20$core..borrow..Borrow$LT$str$GT$$u20$for$u20$alloc..string..String$GT$6borrow17hcab71adcb0bd4c25E', symObjAddr: 0x24F8, symBinAddr: 0x1F93C, symSize: 0x2C }
  - { offset: 0xBAF2F, size: 0x8, addend: 0x0, symName: '__ZN4core3ptr9const_ptr33_$LT$impl$u20$$BP$const$u20$T$GT$20offset_from_unsigned18precondition_check17h37b883e1d3d24fd2E', symObjAddr: 0x15F4, symBinAddr: 0x1F218, symSize: 0x60 }
  - { offset: 0xBB018, size: 0x8, addend: 0x0, symName: '__ZN4core3ptr9const_ptr33_$LT$impl$u20$$BP$const$u20$T$GT$6offset18precondition_check17h0e53107d80576880E', symObjAddr: 0x1654, symBinAddr: 0x1F278, symSize: 0xC4 }
  - { offset: 0xBB211, size: 0x8, addend: 0x0, symName: '__ZN4core3ptr9const_ptr33_$LT$impl$u20$$BP$const$u20$T$GT$7is_null17h8b77ab6d9c3ddecbE', symObjAddr: 0x1730, symBinAddr: 0x1F33C, symSize: 0x18 }
  - { offset: 0xBB6B7, size: 0x8, addend: 0x0, symName: '__ZN70_$LT$core..num..error..TryFromIntError$u20$as$u20$core..fmt..Debug$GT$3fmt17h5bab47c3e7ebe930E', symObjAddr: 0x2B40, symBinAddr: 0x1FDE4, symSize: 0x54 }
  - { offset: 0xBB7F8, size: 0x8, addend: 0x0, symName: '__ZN50_$LT$T$u20$as$u20$core..convert..Into$LT$U$GT$$GT$4into17h3d3468fe1561e5a2E', symObjAddr: 0x2364, symBinAddr: 0x1F7D0, symSize: 0x14 }
  - { offset: 0xBD90D, size: 0x8, addend: 0x0, symName: __ZN4core3mem4drop17h211a0f3d0af7bf82E, symObjAddr: 0x13AC, symBinAddr: 0x1F030, symSize: 0x2C }
  - { offset: 0xBD940, size: 0x8, addend: 0x0, symName: __ZN4core3mem4drop17h349c45e23a79aefeE, symObjAddr: 0x13D8, symBinAddr: 0x1F05C, symSize: 0x2C }
  - { offset: 0xBD973, size: 0x8, addend: 0x0, symName: __ZN4core3mem4drop17h934ec5f6d79c87d2E, symObjAddr: 0x1404, symBinAddr: 0x1F088, symSize: 0x2C }
  - { offset: 0xBD9D9, size: 0x8, addend: 0x0, symName: __ZN4core3mem4take17h1be6dfa501158ea8E, symObjAddr: 0x1430, symBinAddr: 0x1F0B4, symSize: 0x54 }
  - { offset: 0xBDA69, size: 0x8, addend: 0x0, symName: __ZN4core3mem4take17h5a8dcc64c9a900f8E, symObjAddr: 0x1484, symBinAddr: 0x1F108, symSize: 0x54 }
  - { offset: 0xBDAF9, size: 0x8, addend: 0x0, symName: __ZN4core3mem4take17h5d7bff9b6e24c304E, symObjAddr: 0x14D8, symBinAddr: 0x1F15C, symSize: 0x54 }
  - { offset: 0xBDB89, size: 0x8, addend: 0x0, symName: __ZN4core3mem4take17hf1f659e6a83ffde4E, symObjAddr: 0x152C, symBinAddr: 0x1F1B0, symSize: 0x54 }
  - { offset: 0xBDBE6, size: 0x8, addend: 0x0, symName: __ZN4core3mem6forget17h49091e3ad13486baE, symObjAddr: 0x1580, symBinAddr: 0x1F204, symSize: 0x14 }
  - { offset: 0xBDCAB, size: 0x8, addend: 0x0, symName: '__ZN36_$LT$T$u20$as$u20$core..any..Any$GT$7type_id17h6e6a98cc35a1bc86E', symObjAddr: 0x18, symBinAddr: 0x1E958, symSize: 0x20 }
  - { offset: 0xBDD00, size: 0x8, addend: 0x0, symName: '__ZN42_$LT$$RF$T$u20$as$u20$core..fmt..Debug$GT$3fmt17h7fb56aa452f3e726E', symObjAddr: 0x6C0, symBinAddr: 0x1ED1C, symSize: 0x30 }
  - { offset: 0xBDDC5, size: 0x8, addend: 0x0, symName: __ZN4core3fmt5Write9write_fmt17ha681e516c9053603E, symObjAddr: 0x1378, symBinAddr: 0x1EFFC, symSize: 0x34 }
  - { offset: 0xBDE12, size: 0x8, addend: 0x0, symName: '__ZN75_$LT$$RF$mut$u20$W$u20$as$u20$core..fmt..Write..write_fmt..SpecWriteFmt$GT$14spec_write_fmt17he2e9da8ba65bdc13E', symObjAddr: 0x2C10, symBinAddr: 0x1FEB4, symSize: 0x98 }
  - { offset: 0xBDF5B, size: 0x8, addend: 0x0, symName: __ZN4core4hint16assert_unchecked18precondition_check17h4933dca11b428e2cE, symObjAddr: 0x17A0, symBinAddr: 0x1F3AC, symSize: 0x58 }
  - { offset: 0xBDFA6, size: 0x8, addend: 0x0, symName: __ZN4core4hint21unreachable_unchecked18precondition_check17h1d5ce480b4c9c966E, symObjAddr: 0x17F8, symBinAddr: 0x1F404, symSize: 0x3C }
  - { offset: 0xBE31B, size: 0x8, addend: 0x0, symName: '__ZN9once_cell3imp17OnceCell$LT$T$GT$10initialize28_$u7b$$u7b$closure$u7d$$u7d$17h0c3d5ccdadb4f468E', symObjAddr: 0x3FB4, symBinAddr: 0x20388, symSize: 0x248 }
  - { offset: 0xBE3CF, size: 0x8, addend: 0x0, symName: '__ZN9once_cell3imp17OnceCell$LT$T$GT$10initialize28_$u7b$$u7b$closure$u7d$$u7d$17h9a57fee996a2de27E', symObjAddr: 0x48E4, symBinAddr: 0x205D0, symSize: 0x180 }
  - { offset: 0xBE46A, size: 0x8, addend: 0x0, symName: '__ZN9once_cell3imp17OnceCell$LT$T$GT$10initialize28_$u7b$$u7b$closure$u7d$$u7d$17hf871812d479d36acE', symObjAddr: 0x4CAC, symBinAddr: 0x20750, symSize: 0x1A8 }
  - { offset: 0xBE7C0, size: 0x8, addend: 0x0, symName: '__ZN9once_cell4sync17OnceCell$LT$T$GT$11get_or_init28_$u7b$$u7b$closure$u7d$$u7d$17h505e871d85eda307E', symObjAddr: 0x545C, symBinAddr: 0x20C54, symSize: 0x38 }
  - { offset: 0xBE802, size: 0x8, addend: 0x0, symName: '__ZN9once_cell4sync17OnceCell$LT$T$GT$11get_or_init28_$u7b$$u7b$closure$u7d$$u7d$17hd7b8c89c157530e6E', symObjAddr: 0x5494, symBinAddr: 0x20C8C, symSize: 0x34 }
  - { offset: 0xBEFCB, size: 0x8, addend: 0x0, symName: '__ZN4pyo35types5tuple74_$LT$impl$u20$pyo3..conversion..IntoPyObject$u20$for$u20$$LP$T0$C$$RP$$GT$13into_pyobject17h0b8966035d55e201E', symObjAddr: 0x228C, symBinAddr: 0x1F6F8, symSize: 0xD8 }
  - { offset: 0xBF119, size: 0x8, addend: 0x0, symName: '__ZN47_$LT$T$u20$as$u20$pyo3..err..PyErrArguments$GT$9arguments17hded31c5f2cd2f6f9E', symObjAddr: 0x87C, symBinAddr: 0x1ED94, symSize: 0x4C }
  - { offset: 0xBF187, size: 0x8, addend: 0x0, symName: '__ZN47_$LT$T$u20$as$u20$pyo3..err..PyErrArguments$GT$9arguments17hf5b43ad96e415807E', symObjAddr: 0x8C8, symBinAddr: 0x1EDE0, symSize: 0x128 }
  - { offset: 0xBF24A, size: 0x8, addend: 0x0, symName: '__ZN4pyo33err5impls83_$LT$impl$u20$pyo3..err..PyErrArguments$u20$for$u20$alloc..ffi..c_str..NulError$GT$9arguments17hc9556f3833b87e73E', symObjAddr: 0x1C38, symBinAddr: 0x1F60C, symSize: 0xA4 }
  - { offset: 0xBF306, size: 0x8, addend: 0x0, symName: '__ZN4pyo311conversions3std6string82_$LT$impl$u20$pyo3..conversion..FromPyObject$u20$for$u20$alloc..string..String$GT$7extract17hf5a8f7dc0711bde5E', symObjAddr: 0x19BC, symBinAddr: 0x1F500, symSize: 0x98 }
  - { offset: 0xBF355, size: 0x8, addend: 0x0, symName: '__ZN4pyo311conversions3std6string82_$LT$impl$u20$pyo3..conversion..IntoPyObject$u20$for$u20$alloc..string..String$GT$13into_pyobject17hc21483f33479ffcfE', symObjAddr: 0x1A54, symBinAddr: 0x1F598, symSize: 0x74 }
  - { offset: 0xBF4B2, size: 0x8, addend: 0x0, symName: __ZN4pyo310conversion15IntoPyObjectExt11into_py_any17h35fead254a168f44E, symObjAddr: 0x18FC, symBinAddr: 0x1F440, symSize: 0x60 }
  - { offset: 0xBF51E, size: 0x8, addend: 0x0, symName: __ZN4pyo310conversion15IntoPyObjectExt17into_bound_py_any17hf7adb7d2e33bfa1cE, symObjAddr: 0x195C, symBinAddr: 0x1F4A0, symSize: 0x60 }
  - { offset: 0xC0565, size: 0x8, addend: 0x0, symName: __ZN3std4sync6poison10map_result17hcb1cf3ef470d8aa9E, symObjAddr: 0x31C, symBinAddr: 0x1E978, symSize: 0xC4 }
  - { offset: 0xC05F9, size: 0x8, addend: 0x0, symName: __ZN3std4sync6poison10map_result17hd6b472598666151fE, symObjAddr: 0x3E0, symBinAddr: 0x1EA3C, symSize: 0xC4 }
  - { offset: 0xC068D, size: 0x8, addend: 0x0, symName: __ZN3std4sync6poison10map_result17hffb42f8f38468e93E, symObjAddr: 0x4A4, symBinAddr: 0x1EB00, symSize: 0xC4 }
  - { offset: 0xC0759, size: 0x8, addend: 0x0, symName: '__ZN76_$LT$std..sync..poison..PoisonError$LT$T$GT$$u20$as$u20$core..fmt..Debug$GT$3fmt17h5b1a393be1709526E', symObjAddr: 0x2CF8, symBinAddr: 0x1FF9C, symSize: 0x50 }
  - { offset: 0xC079C, size: 0x8, addend: 0x0, symName: '__ZN76_$LT$std..sync..poison..PoisonError$LT$T$GT$$u20$as$u20$core..fmt..Debug$GT$3fmt17h6a43894601e9d58fE', symObjAddr: 0x2D48, symBinAddr: 0x1FFEC, symSize: 0x50 }
  - { offset: 0xC07DF, size: 0x8, addend: 0x0, symName: '__ZN76_$LT$std..sync..poison..PoisonError$LT$T$GT$$u20$as$u20$core..fmt..Debug$GT$3fmt17h83a62e901b099245E', symObjAddr: 0x2D98, symBinAddr: 0x2003C, symSize: 0x50 }
  - { offset: 0xC0C71, size: 0x8, addend: 0x0, symName: __ZN3std4sync6poison4Flag4done17h1f4957a95e1a09c4E, symObjAddr: 0x568, symBinAddr: 0x1EBC4, symSize: 0x8C }
  - { offset: 0xC0D5F, size: 0x8, addend: 0x0, symName: __ZN3std4sync6poison4Flag5guard17hbdcad42cb4113483E, symObjAddr: 0x5F4, symBinAddr: 0x1EC50, symSize: 0xCC }
  - { offset: 0xC0F3D, size: 0x8, addend: 0x0, symName: '__ZN4core4cell13Cell$LT$T$GT$3get17h886d5148b97a294cE', symObjAddr: 0x1748, symBinAddr: 0x1F354, symSize: 0x18 }
  - { offset: 0xC0F91, size: 0x8, addend: 0x0, symName: '__ZN4core4cell13Cell$LT$T$GT$3set17h0c071492d653dc0aE', symObjAddr: 0x1760, symBinAddr: 0x1F36C, symSize: 0x1C }
  - { offset: 0xC1007, size: 0x8, addend: 0x0, symName: '__ZN4core4cell13Cell$LT$T$GT$7replace17hf914a0f1006bde9eE', symObjAddr: 0x177C, symBinAddr: 0x1F388, symSize: 0x24 }
  - { offset: 0xC10D2, size: 0x8, addend: 0x0, symName: __ZN4pyo35types4dict13borrowed_iter16BorrowedDictIter3new17h4ee2459fa0b9b569E, symObjAddr: 0x2244, symBinAddr: 0x1F6B0, symSize: 0x48 }
  - { offset: 0xC124B, size: 0x8, addend: 0x0, symName: __ZN5alloc3ffi5c_str7CString3new17h1fc5c944a74de64eE, symObjAddr: 0x24E4, symBinAddr: 0x1F928, symSize: 0x14 }
  - { offset: 0xC1466, size: 0x8, addend: 0x0, symName: __ZN5alloc6string6String4push17hba3180051c3c0542E, symObjAddr: 0x2600, symBinAddr: 0x1F968, symSize: 0x114 }
  - { offset: 0xC1729, size: 0x8, addend: 0x0, symName: __ZN5alloc6string6String6as_str17h57a6a8a78f434fd5E, symObjAddr: 0x2714, symBinAddr: 0x1FA7C, symSize: 0x70 }
  - { offset: 0xC18F7, size: 0x8, addend: 0x0, symName: __ZN5alloc6string6String8push_str17h75394b2b2c4c9a5dE, symObjAddr: 0x27A8, symBinAddr: 0x1FAEC, symSize: 0x50 }
  - { offset: 0xC1F72, size: 0x8, addend: 0x0, symName: '__ZN92_$LT$hashbrown..map..Iter$LT$K$C$V$GT$$u20$as$u20$core..iter..traits..iterator..Iterator$GT$4next17hc80d5b0e59264cbfE', symObjAddr: 0x30E0, symBinAddr: 0x2008C, symSize: 0xF0 }
  - { offset: 0xC21FD, size: 0x8, addend: 0x0, symName: '__ZN9hashbrown3map11make_hasher28_$u7b$$u7b$closure$u7d$$u7d$17h0083c57a4fd7d879E', symObjAddr: 0x3964, symBinAddr: 0x202A4, symSize: 0x3C }
  - { offset: 0xC2534, size: 0x8, addend: 0x0, symName: '__ZN9hashbrown11rustc_entry62_$LT$impl$u20$hashbrown..map..HashMap$LT$K$C$V$C$S$C$A$GT$$GT$11rustc_entry17h51a4ca6e22d801d2E', symObjAddr: 0x383C, symBinAddr: 0x2017C, symSize: 0x128 }
  - { offset: 0xC2751, size: 0x8, addend: 0x0, symName: '__ZN9hashbrown3map28HashMap$LT$K$C$V$C$S$C$A$GT$4iter17hef506be61137b54dE', symObjAddr: 0x39A0, symBinAddr: 0x202E0, symSize: 0xA8 }
  - { offset: 0xC291F, size: 0x8, addend: 0x0, symName: '__ZN9once_cell3imp17OnceCell$LT$T$GT$10initialize17h0258be4701791287E', symObjAddr: 0x3A48, symBinAddr: 0x6F794, symSize: 0xAC }
  - { offset: 0xC2A3C, size: 0x8, addend: 0x0, symName: '__ZN9once_cell3imp17OnceCell$LT$T$GT$10initialize17h9d68943cb12a47fdE', symObjAddr: 0x3D6C, symBinAddr: 0x6F840, symSize: 0xD0 }
  - { offset: 0xC2AF4, size: 0x8, addend: 0x0, symName: '__ZN9once_cell3imp17OnceCell$LT$T$GT$10initialize17hca3ed7569316ecf6E', symObjAddr: 0x3E3C, symBinAddr: 0x6F910, symSize: 0xA8 }
  - { offset: 0xC2BB1, size: 0x8, addend: 0x0, symName: '__ZN9once_cell3imp17OnceCell$LT$T$GT$13get_unchecked17h01c3e9b68425d7bbE', symObjAddr: 0x4E54, symBinAddr: 0x208F8, symSize: 0xC0 }
  - { offset: 0xC2C06, size: 0x8, addend: 0x0, symName: '__ZN9once_cell3imp17OnceCell$LT$T$GT$13get_unchecked17h21a1dc3249cc8bf2E', symObjAddr: 0x4F14, symBinAddr: 0x209B8, symSize: 0xC0 }
  - { offset: 0xC2C68, size: 0x8, addend: 0x0, symName: '__ZN9once_cell3imp17OnceCell$LT$T$GT$13get_unchecked17h89becd62e9222d56E', symObjAddr: 0x5094, symBinAddr: 0x20A78, symSize: 0xC0 }
  - { offset: 0xC2CB0, size: 0x8, addend: 0x0, symName: '__ZN9once_cell3imp17OnceCell$LT$T$GT$14is_initialized17h5a372275cfe548d3E', symObjAddr: 0x5214, symBinAddr: 0x20B38, symSize: 0x30 }
  - { offset: 0xC2CDB, size: 0x8, addend: 0x0, symName: '__ZN9once_cell3imp17OnceCell$LT$T$GT$14is_initialized17hb3b7aea1f086d999E', symObjAddr: 0x5244, symBinAddr: 0x20B68, symSize: 0x30 }
  - { offset: 0xC2D06, size: 0x8, addend: 0x0, symName: '__ZN9once_cell3imp17OnceCell$LT$T$GT$14is_initialized17hea6f8ffb73e099b3E', symObjAddr: 0x52D4, symBinAddr: 0x20B98, symSize: 0x30 }
  - { offset: 0xC2D3E, size: 0x8, addend: 0x0, symName: '__ZN9once_cell4sync17OnceCell$LT$T$GT$11get_or_init17h190a2a6b066b2081E', symObjAddr: 0x53D0, symBinAddr: 0x20BC8, symSize: 0x48 }
  - { offset: 0xC2D90, size: 0x8, addend: 0x0, symName: '__ZN9once_cell4sync17OnceCell$LT$T$GT$11get_or_init17h80a9dc4645ed002dE', symObjAddr: 0x5418, symBinAddr: 0x20C10, symSize: 0x44 }
  - { offset: 0xC2DD5, size: 0x8, addend: 0x0, symName: '__ZN9once_cell4sync17OnceCell$LT$T$GT$13get_unchecked17h1e5d848715e620fdE', symObjAddr: 0x54C8, symBinAddr: 0x20CC0, symSize: 0x24 }
  - { offset: 0xC2E01, size: 0x8, addend: 0x0, symName: '__ZN9once_cell4sync17OnceCell$LT$T$GT$13get_unchecked17h3a2842e35767ab41E', symObjAddr: 0x54EC, symBinAddr: 0x20CE4, symSize: 0x24 }
  - { offset: 0xC2E3A, size: 0x8, addend: 0x0, symName: '__ZN9once_cell4sync17OnceCell$LT$T$GT$13get_unchecked17h4e194c4a5ef8974aE', symObjAddr: 0x5510, symBinAddr: 0x20D08, symSize: 0x24 }
  - { offset: 0xC2E66, size: 0x8, addend: 0x0, symName: '__ZN9once_cell4sync17OnceCell$LT$T$GT$15get_or_try_init17hab22eb8c080227b7E', symObjAddr: 0x5ADC, symBinAddr: 0x20D2C, symSize: 0x150 }
  - { offset: 0xC2ECA, size: 0x8, addend: 0x0, symName: '__ZN9once_cell4sync17OnceCell$LT$T$GT$15get_or_try_init17hc15d555c3d0f2b17E', symObjAddr: 0x5C2C, symBinAddr: 0x20E7C, symSize: 0x1D4 }
  - { offset: 0xC2F47, size: 0x8, addend: 0x0, symName: '__ZN9once_cell4sync17OnceCell$LT$T$GT$15get_or_try_init17hd93d3ab7331c7c32E', symObjAddr: 0x5E00, symBinAddr: 0x21050, symSize: 0x14C }
  - { offset: 0xC2FAB, size: 0x8, addend: 0x0, symName: '__ZN9once_cell4sync17OnceCell$LT$T$GT$3get17h432cf6a90b010439E', symObjAddr: 0x6114, symBinAddr: 0x2119C, symSize: 0x4C }
  - { offset: 0xC2FD7, size: 0x8, addend: 0x0, symName: '__ZN9once_cell4sync17OnceCell$LT$T$GT$3get17h630bf02b0228f2afE', symObjAddr: 0x61AC, symBinAddr: 0x211E8, symSize: 0x4C }
  - { offset: 0xC3003, size: 0x8, addend: 0x0, symName: '__ZN9once_cell4sync17OnceCell$LT$T$GT$3get17h81d8139f5a0104b3E', symObjAddr: 0x61F8, symBinAddr: 0x21234, symSize: 0x4C }
  - { offset: 0xC42AD, size: 0x8, addend: 0x0, symName: '__ZN64_$LT$core..str..error..Utf8Error$u20$as$u20$core..fmt..Debug$GT$3fmt17hb7358ff0f4b87aa2E', symObjAddr: 0x7F58, symBinAddr: 0x257B4, symSize: 0x88 }
  - { offset: 0xC42EE, size: 0x8, addend: 0x0, symName: '__ZN4core3str21_$LT$impl$u20$str$GT$3len17h569b908d68bedc15E', symObjAddr: 0x7D4, symBinAddr: 0x21454, symSize: 0x1C }
  - { offset: 0xC63A2, size: 0x8, addend: 0x0, symName: '__ZN4core3ops8function5impls79_$LT$impl$u20$core..ops..function..FnMut$LT$A$GT$$u20$for$u20$$RF$mut$u20$F$GT$8call_mut17h25c91cc4e52c84adE', symObjAddr: 0x584, symBinAddr: 0x213E4, symSize: 0x38 }
  - { offset: 0xC63F1, size: 0x8, addend: 0x0, symName: '__ZN4core3ops8function5impls79_$LT$impl$u20$core..ops..function..FnMut$LT$A$GT$$u20$for$u20$$RF$mut$u20$F$GT$8call_mut17hda4beb6633929004E', symObjAddr: 0x5BC, symBinAddr: 0x2141C, symSize: 0x38 }
  - { offset: 0xC6598, size: 0x8, addend: 0x0, symName: '__ZN4core5slice29_$LT$impl$u20$$u5b$T$u5d$$GT$4iter17h7d9ca7dc5e246e88E', symObjAddr: 0xD58, symBinAddr: 0x21540, symSize: 0x28 }
  - { offset: 0xC65E0, size: 0x8, addend: 0x0, symName: '__ZN4core4hash5impls49_$LT$impl$u20$core..hash..Hash$u20$for$u20$i8$GT$10hash_slice17hbc3474fc692dcda4E', symObjAddr: 0xB2C, symBinAddr: 0x21470, symSize: 0x80 }
  - { offset: 0xC66A8, size: 0x8, addend: 0x0, symName: '__ZN4core4hash5impls58_$LT$impl$u20$core..hash..Hash$u20$for$u20$$u5b$T$u5d$$GT$4hash17h3b7a06db1663d2d7E', symObjAddr: 0xBAC, symBinAddr: 0x214F0, symSize: 0x50 }
  - { offset: 0xC6C3C, size: 0x8, addend: 0x0, symName: '__ZN135_$LT$pyo3..impl_..pyclass..lazy_type_object..LazyTypeObjectInner..ensure_init..InitializationGuard$u20$as$u20$core..ops..drop..Drop$GT$4drop17h9c5a56ddc0fff0f6E', symObjAddr: 0xC, symBinAddr: 0x21280, symSize: 0x12C }
  - { offset: 0xC6CB6, size: 0x8, addend: 0x0, symName: '__ZN135_$LT$pyo3..impl_..pyclass..lazy_type_object..LazyTypeObjectInner..ensure_init..InitializationGuard$u20$as$u20$core..ops..drop..Drop$GT$4drop28_$u7b$$u7b$closure$u7d$$u7d$17h957027e59fe68477E', symObjAddr: 0x138, symBinAddr: 0x213AC, symSize: 0x38 }
  - { offset: 0xC6D60, size: 0x8, addend: 0x0, symName: '__ZN4pyo35impl_7pyclass16lazy_type_object19LazyTypeObjectInner11ensure_init28_$u7b$$u7b$closure$u7d$$u7d$17hd79af6ba024fe78eE', symObjAddr: 0x4DBC, symBinAddr: 0x22AC4, symSize: 0x35C }
  - { offset: 0xC6E97, size: 0x8, addend: 0x0, symName: '__ZN4pyo35impl_7pyclass16lazy_type_object19LazyTypeObjectInner15get_or_try_init28_$u7b$$u7b$closure$u7d$$u7d$28_$u7b$$u7b$closure$u7d$$u7d$17heaa042a5f62949e3E', symObjAddr: 0x5450, symBinAddr: 0x23158, symSize: 0x2C }
  - { offset: 0xC6ED5, size: 0x8, addend: 0x0, symName: '__ZN4pyo35impl_7pyclass16lazy_type_object19LazyTypeObjectInner15get_or_try_init28_$u7b$$u7b$closure$u7d$$u7d$17h59fc7435d465d333E', symObjAddr: 0x51B4, symBinAddr: 0x22EBC, symSize: 0x108 }
  - { offset: 0xC6F74, size: 0x8, addend: 0x0, symName: '__ZN4pyo35impl_7pyclass16lazy_type_object19LazyTypeObjectInner15get_or_try_init28_$u7b$$u7b$closure$u7d$$u7d$17hbb0f8bd21d2159c4E', symObjAddr: 0x52BC, symBinAddr: 0x22FC4, symSize: 0x194 }
  - { offset: 0xC70EB, size: 0x8, addend: 0x0, symName: __ZN4pyo35impl_7pyclass16lazy_type_object18initialize_tp_dict17h34747e933ef0696eE, symObjAddr: 0x4348, symBinAddr: 0x22050, symSize: 0x1E8 }
  - { offset: 0xC719C, size: 0x8, addend: 0x0, symName: __ZN4pyo35impl_7pyclass16lazy_type_object21wrap_in_runtime_error17h4c01365c528bc543E, symObjAddr: 0x547C, symBinAddr: 0x70A94, symSize: 0x108 }
  - { offset: 0xC720E, size: 0x8, addend: 0x0, symName: __ZN4pyo35impl_7pyclass16lazy_type_object23type_object_init_failed17h612fcac0a12f3c76E, symObjAddr: 0x5584, symBinAddr: 0x70B9C, symSize: 0x80 }
  - { offset: 0xC74A5, size: 0x8, addend: 0x0, symName: '__ZN4pyo35impl_16extract_argument19FunctionDescription34missing_required_keyword_arguments28_$u7b$$u7b$closure$u7d$$u7d$17haebf16d920346fdcE', symObjAddr: 0x3C5C, symBinAddr: 0x21CDC, symSize: 0x84 }
  - { offset: 0xC7515, size: 0x8, addend: 0x0, symName: '__ZN4pyo35impl_16extract_argument19FunctionDescription37missing_required_positional_arguments28_$u7b$$u7b$closure$u7d$$u7d$17h49d8c888dda57dcdE', symObjAddr: 0x3E28, symBinAddr: 0x21D60, symSize: 0x78 }
  - { offset: 0xC7581, size: 0x8, addend: 0x0, symName: __ZN4pyo35impl_16extract_argument19push_parameter_list17hc7abb8d2e71abd98E, symObjAddr: 0x3FAC, symBinAddr: 0x21EE4, symSize: 0x16C }
  - { offset: 0xC760D, size: 0x8, addend: 0x0, symName: __ZN4pyo35impl_16extract_argument25argument_extraction_error17h70ebf6c63c29dbd9E, symObjAddr: 0x4118, symBinAddr: 0x70864, symSize: 0x230 }
  - { offset: 0xC7B91, size: 0x8, addend: 0x0, symName: '__ZN4pyo34sync20GILOnceCell$LT$T$GT$3set28_$u7b$$u7b$closure$u7d$$u7d$17h7512124215b4c747E', symObjAddr: 0x2B9C, symBinAddr: 0x21A70, symSize: 0x120 }
  - { offset: 0xC7C61, size: 0x8, addend: 0x0, symName: '__ZN4pyo34sync20GILOnceCell$LT$T$GT$3set28_$u7b$$u7b$closure$u7d$$u7d$17h88690400145f712eE', symObjAddr: 0x2CBC, symBinAddr: 0x21B90, symSize: 0xD0 }
  - { offset: 0xC7D04, size: 0x8, addend: 0x0, symName: '__ZN4pyo34sync8Interned3get28_$u7b$$u7b$closure$u7d$$u7d$17hccfb6961d844974cE', symObjAddr: 0x31DC, symBinAddr: 0x21CA8, symSize: 0x34 }
  - { offset: 0xC7FDA, size: 0x8, addend: 0x0, symName: '__ZN4pyo311conversions3std6string68_$LT$impl$u20$pyo3..conversion..IntoPyObject$u20$for$u20$$RF$str$GT$13into_pyobject17h4f7aa482f2bafd35E', symObjAddr: 0x23D0, symBinAddr: 0x21568, symSize: 0x28 }
  - { offset: 0xC8153, size: 0x8, addend: 0x0, symName: '__ZN78_$LT$pyo3..err..cast_error..DisplayClassInfo$u20$as$u20$core..fmt..Display$GT$3fmt17hae25f524b5ceded3E', symObjAddr: 0x8188, symBinAddr: 0x2583C, symSize: 0x4A4 }
  - { offset: 0xC828C, size: 0x8, addend: 0x0, symName: '__ZN78_$LT$pyo3..err..cast_error..DisplayClassInfo$u20$as$u20$core..fmt..Display$GT$3fmt28_$u7b$$u7b$closure$u7d$$u7d$17h3517a82ba74bcac7E', symObjAddr: 0x862C, symBinAddr: 0x25CE0, symSize: 0x1C }
  - { offset: 0xC82C9, size: 0x8, addend: 0x0, symName: '__ZN82_$LT$pyo3..err..cast_error..DisplayDowncastError$u20$as$u20$core..fmt..Display$GT$3fmt17hc4e14dea6aebe6edE', symObjAddr: 0x869C, symBinAddr: 0x25CFC, symSize: 0x178 }
  - { offset: 0xC837D, size: 0x8, addend: 0x0, symName: '__ZN82_$LT$pyo3..err..cast_error..DisplayDowncastError$u20$as$u20$core..fmt..Display$GT$3fmt28_$u7b$$u7b$closure$u7d$$u7d$17h27b44871c7d06397E', symObjAddr: 0x8814, symBinAddr: 0x25E74, symSize: 0x24 }
  - { offset: 0xC83C1, size: 0x8, addend: 0x0, symName: '__ZN87_$LT$pyo3..err..cast_error..CastErrorArguments$u20$as$u20$pyo3..err..PyErrArguments$GT$9arguments17ha7661a3b85929d56E', symObjAddr: 0x887C, symBinAddr: 0x25E98, symSize: 0x1A0 }
  - { offset: 0xC867F, size: 0x8, addend: 0x0, symName: __ZN4pyo37pyclass18create_type_object13GetSetDefType21create_py_get_set_def13getset_getter17hd6a2482f5e947f3bE, symObjAddr: 0x58D0, symBinAddr: 0x23184, symSize: 0x94 }
  - { offset: 0xC86FD, size: 0x8, addend: 0x0, symName: '__ZN4pyo37pyclass18create_type_object13GetSetDefType21create_py_get_set_def13getset_getter28_$u7b$$u7b$closure$u7d$$u7d$17h3bbc06841221a4f6E', symObjAddr: 0x5964, symBinAddr: 0x23218, symSize: 0x34 }
  - { offset: 0xC875C, size: 0x8, addend: 0x0, symName: __ZN4pyo37pyclass18create_type_object13GetSetDefType21create_py_get_set_def13getset_setter17ha800efbf68cc7beeE, symObjAddr: 0x5998, symBinAddr: 0x2324C, symSize: 0xAC }
  - { offset: 0xC87E9, size: 0x8, addend: 0x0, symName: '__ZN4pyo37pyclass18create_type_object13GetSetDefType21create_py_get_set_def13getset_setter28_$u7b$$u7b$closure$u7d$$u7d$17hd2384175e53c656cE', symObjAddr: 0x5A44, symBinAddr: 0x232F8, symSize: 0x38 }
  - { offset: 0xC8857, size: 0x8, addend: 0x0, symName: __ZN4pyo37pyclass18create_type_object13GetSetDefType21create_py_get_set_def6getter17h05219b872e285522E, symObjAddr: 0x5BE4, symBinAddr: 0x23498, symSize: 0x48 }
  - { offset: 0xC88B7, size: 0x8, addend: 0x0, symName: '__ZN4pyo37pyclass18create_type_object13GetSetDefType21create_py_get_set_def6getter28_$u7b$$u7b$closure$u7d$$u7d$17h0fd178674b00a943E', symObjAddr: 0x5C2C, symBinAddr: 0x234E0, symSize: 0x34 }
  - { offset: 0xC8916, size: 0x8, addend: 0x0, symName: __ZN4pyo37pyclass18create_type_object13GetSetDefType21create_py_get_set_def6setter17h2586400822618ea7E, symObjAddr: 0x5C60, symBinAddr: 0x23514, symSize: 0x5C }
  - { offset: 0xC8985, size: 0x8, addend: 0x0, symName: '__ZN4pyo37pyclass18create_type_object13GetSetDefType21create_py_get_set_def6setter28_$u7b$$u7b$closure$u7d$$u7d$17h8f3180ca270fd3f1E', symObjAddr: 0x5CBC, symBinAddr: 0x23570, symSize: 0x38 }
  - { offset: 0xC8D00, size: 0x8, addend: 0x0, symName: '__ZN4pyo37pyclass18create_type_object13PyTypeBuilder31finalize_methods_and_properties28_$u7b$$u7b$closure$u7d$$u7d$17h1a969df860ee6582E', symObjAddr: 0x6924, symBinAddr: 0x241D8, symSize: 0xE8 }
  - { offset: 0xC8DBC, size: 0x8, addend: 0x0, symName: __ZN4pyo37pyclass18create_type_object16call_super_clear17hd2f8d2413f1cf799E, symObjAddr: 0x7A60, symBinAddr: 0x25314, symSize: 0x44 }
  - { offset: 0xC8DEF, size: 0x8, addend: 0x0, symName: '__ZN4pyo37pyclass18create_type_object16call_super_clear28_$u7b$$u7b$closure$u7d$$u7d$17hf65aa6b533ac1387E', symObjAddr: 0x7AA4, symBinAddr: 0x25358, symSize: 0x18 }
  - { offset: 0xC8E3C, size: 0x8, addend: 0x0, symName: __ZN4pyo37pyclass18create_type_object18create_type_object5inner17h1d96f1b64efedff2E, symObjAddr: 0x7ABC, symBinAddr: 0x25370, symSize: 0x2F4 }
  - { offset: 0xC8F48, size: 0x8, addend: 0x0, symName: __ZN4pyo37pyclass18create_type_object23py_class_qualified_name17hf5af1b2d8a6911f6E, symObjAddr: 0x7DB0, symBinAddr: 0x25664, symSize: 0x150 }
  - { offset: 0xC9007, size: 0x8, addend: 0x0, symName: '__ZN94_$LT$pyo3..pyclass..create_type_object..GetSetDefBuilder$u20$as$u20$core..default..Default$GT$7default17hddff3648e49ca604E', symObjAddr: 0x8A94, symBinAddr: 0x26038, symSize: 0x54 }
  - { offset: 0xC9F36, size: 0x8, addend: 0x0, symName: __ZN4pyo33err10cast_error13CastIntoError10into_inner17h44bb4dc25f95c084E, symObjAddr: 0x23F8, symBinAddr: 0x21590, symSize: 0x38 }
  - { offset: 0xC9F58, size: 0x8, addend: 0x0, symName: __ZN4pyo33err10cast_error13CastIntoError3new17h4bb81a8f6790cc4fE, symObjAddr: 0x2430, symBinAddr: 0x215C8, symSize: 0x1C }
  - { offset: 0xC9F88, size: 0x8, addend: 0x0, symName: __ZN4pyo33err10cast_error9CastError3new17hd877d9485d2a8387E, symObjAddr: 0x244C, symBinAddr: 0x215E4, symSize: 0x1C }
  - { offset: 0xCA0D2, size: 0x8, addend: 0x0, symName: '__ZN4pyo34sync20GILOnceCell$LT$T$GT$15get_or_try_init17h9e9a05992c0133f7E', symObjAddr: 0x272C, symBinAddr: 0x21600, symSize: 0xE8 }
  - { offset: 0xCA198, size: 0x8, addend: 0x0, symName: '__ZN4pyo34sync20GILOnceCell$LT$T$GT$15get_or_try_init17hdc84d9aa0c5a9314E', symObjAddr: 0x2814, symBinAddr: 0x216E8, symSize: 0xCC }
  - { offset: 0xCA212, size: 0x8, addend: 0x0, symName: '__ZN4pyo34sync20GILOnceCell$LT$T$GT$3get17hd275057ede2b8c51E', symObjAddr: 0x28E0, symBinAddr: 0x217B4, symSize: 0xA8 }
  - { offset: 0xCA256, size: 0x8, addend: 0x0, symName: '__ZN4pyo34sync20GILOnceCell$LT$T$GT$3get17hd348e629c6801bc4E', symObjAddr: 0x2988, symBinAddr: 0x2185C, symSize: 0xA8 }
  - { offset: 0xCA29A, size: 0x8, addend: 0x0, symName: '__ZN4pyo34sync20GILOnceCell$LT$T$GT$3set17hb55b806df67f7799E', symObjAddr: 0x2A30, symBinAddr: 0x21904, symSize: 0xA0 }
  - { offset: 0xCA324, size: 0x8, addend: 0x0, symName: '__ZN4pyo34sync20GILOnceCell$LT$T$GT$3set17he254f457fee1bdb6E', symObjAddr: 0x2AD0, symBinAddr: 0x219A4, symSize: 0xCC }
  - { offset: 0xCA4E1, size: 0x8, addend: 0x0, symName: '__ZN4pyo34sync20GILOnceCell$LT$T$GT$4init17h41419e36827615c4E', symObjAddr: 0x2D8C, symBinAddr: 0x6F9B8, symSize: 0x1D0 }
  - { offset: 0xCA5E4, size: 0x8, addend: 0x0, symName: '__ZN4pyo34sync20GILOnceCell$LT$T$GT$4init17hdb3f582c22a99b6dE', symObjAddr: 0x2F5C, symBinAddr: 0x6FB88, symSize: 0x198 }
  - { offset: 0xCA6D6, size: 0x8, addend: 0x0, symName: __ZN4pyo34sync8Interned3get17h7d0216452c7ec714E, symObjAddr: 0x3194, symBinAddr: 0x21C60, symSize: 0x48 }
  - { offset: 0xCA76F, size: 0x8, addend: 0x0, symName: __ZN4pyo35impl_16extract_argument19FunctionDescription26missing_required_arguments17hc3f8f57bf691428fE, symObjAddr: 0x3260, symBinAddr: 0x6FD20, symSize: 0x1F8 }
  - { offset: 0xCA834, size: 0x8, addend: 0x0, symName: __ZN4pyo35impl_16extract_argument19FunctionDescription27unexpected_keyword_argument17h661d8b1d3ffa1485E, symObjAddr: 0x3458, symBinAddr: 0x6FF18, symSize: 0x124 }
  - { offset: 0xCA8C2, size: 0x8, addend: 0x0, symName: __ZN4pyo35impl_16extract_argument19FunctionDescription28multiple_values_for_argument17hd1bdaa9795445d40E, symObjAddr: 0x357C, symBinAddr: 0x7003C, symSize: 0x110 }
  - { offset: 0xCA948, size: 0x8, addend: 0x0, symName: __ZN4pyo35impl_16extract_argument19FunctionDescription29too_many_positional_arguments17h68565bf1d277ed9eE, symObjAddr: 0x368C, symBinAddr: 0x7014C, symSize: 0x304 }
  - { offset: 0xCAA5B, size: 0x8, addend: 0x0, symName: __ZN4pyo35impl_16extract_argument19FunctionDescription33positional_only_keyword_arguments17h7d9be998956dfe88E, symObjAddr: 0x3990, symBinAddr: 0x70450, symSize: 0x148 }
  - { offset: 0xCAB1E, size: 0x8, addend: 0x0, symName: __ZN4pyo35impl_16extract_argument19FunctionDescription34missing_required_keyword_arguments17hdc80e7e60c3f9c90E, symObjAddr: 0x3AD8, symBinAddr: 0x70598, symSize: 0x184 }
  - { offset: 0xCABB5, size: 0x8, addend: 0x0, symName: __ZN4pyo35impl_16extract_argument19FunctionDescription37missing_required_positional_arguments17h309f96b6efad1c86E, symObjAddr: 0x3CE0, symBinAddr: 0x7071C, symSize: 0x148 }
  - { offset: 0xCABFE, size: 0x8, addend: 0x0, symName: __ZN4pyo35impl_16extract_argument19FunctionDescription9full_name17h81a4e5a585b223cbE, symObjAddr: 0x3EA0, symBinAddr: 0x21DD8, symSize: 0x10C }
  - { offset: 0xCADBD, size: 0x8, addend: 0x0, symName: __ZN4pyo35impl_7pyclass16lazy_type_object19LazyTypeObjectInner11ensure_init17hb0479f055e8a3f15E, symObjAddr: 0x4530, symBinAddr: 0x22238, symSize: 0x88C }
  - { offset: 0xCB0DD, size: 0x8, addend: 0x0, symName: __ZN4pyo35impl_7pyclass16lazy_type_object19LazyTypeObjectInner15get_or_try_init17h1419b1c58c309189E, symObjAddr: 0x5118, symBinAddr: 0x22E20, symSize: 0x9C }
  - { offset: 0xCB15D, size: 0x8, addend: 0x0, symName: __ZN4pyo37pyclass18create_type_object13GetSetDefType21create_py_get_set_def17h1aea007da12014e3E, symObjAddr: 0x5A7C, symBinAddr: 0x23330, symSize: 0x168 }
  - { offset: 0xCB354, size: 0x8, addend: 0x0, symName: __ZN4pyo37pyclass18create_type_object13PyTypeBuilder11class_items17hbda29275ee972384E, symObjAddr: 0x5CF4, symBinAddr: 0x235A8, symSize: 0x2A8 }
  - { offset: 0xCB4B3, size: 0x8, addend: 0x0, symName: __ZN4pyo37pyclass18create_type_object13PyTypeBuilder12pymethod_def17h7961a478e0071d31E, symObjAddr: 0x5F9C, symBinAddr: 0x23850, symSize: 0x1CC }
  - { offset: 0xCB558, size: 0x8, addend: 0x0, symName: __ZN4pyo37pyclass18create_type_object13PyTypeBuilder15set_is_basetype17h4fc684b06a33f4e2E, symObjAddr: 0x6168, symBinAddr: 0x23A1C, symSize: 0x54 }
  - { offset: 0xCB609, size: 0x8, addend: 0x0, symName: __ZN4pyo37pyclass18create_type_object13PyTypeBuilder17push_raw_vec_slot17h01594be8a14f7f4fE, symObjAddr: 0x61BC, symBinAddr: 0x23A70, symSize: 0x1A8 }
  - { offset: 0xCB7FB, size: 0x8, addend: 0x0, symName: __ZN4pyo37pyclass18create_type_object13PyTypeBuilder17push_raw_vec_slot17h399d04387f6bfea4E, symObjAddr: 0x6364, symBinAddr: 0x23C18, symSize: 0x194 }
  - { offset: 0xCB9E4, size: 0x8, addend: 0x0, symName: __ZN4pyo37pyclass18create_type_object13PyTypeBuilder17push_raw_vec_slot17h50eaf0a01c8d1d9eE, symObjAddr: 0x64F8, symBinAddr: 0x23DAC, symSize: 0x1A8 }
  - { offset: 0xCBB58, size: 0x8, addend: 0x0, symName: __ZN4pyo37pyclass18create_type_object13PyTypeBuilder31finalize_methods_and_properties17hd94da80f06a1b2ceE, symObjAddr: 0x66A0, symBinAddr: 0x23F54, symSize: 0x284 }
  - { offset: 0xCBC3B, size: 0x8, addend: 0x0, symName: __ZN4pyo37pyclass18create_type_object13PyTypeBuilder5build17h5bba0481b1ad12adE, symObjAddr: 0x6A0C, symBinAddr: 0x242C0, symSize: 0x7BC }
  - { offset: 0xCBEAF, size: 0x8, addend: 0x0, symName: __ZN4pyo37pyclass18create_type_object13PyTypeBuilder7offsets17h9c8175acad0254caE, symObjAddr: 0x71C8, symBinAddr: 0x24A7C, symSize: 0x1E4 }
  - { offset: 0xCBF6E, size: 0x8, addend: 0x0, symName: __ZN4pyo37pyclass18create_type_object13PyTypeBuilder8type_doc17heb37e9a2244d9746E, symObjAddr: 0x73AC, symBinAddr: 0x24C60, symSize: 0xE0 }
  - { offset: 0xCBFB7, size: 0x8, addend: 0x0, symName: __ZN4pyo37pyclass18create_type_object13PyTypeBuilder9push_slot17h4907e3b1c04a0ebcE, symObjAddr: 0x748C, symBinAddr: 0x24D40, symSize: 0x10C }
  - { offset: 0xCBFFE, size: 0x8, addend: 0x0, symName: __ZN4pyo37pyclass18create_type_object13PyTypeBuilder9push_slot17h93eb696f6c52fe58E, symObjAddr: 0x7598, symBinAddr: 0x24E4C, symSize: 0x10C }
  - { offset: 0xCC045, size: 0x8, addend: 0x0, symName: __ZN4pyo37pyclass18create_type_object13PyTypeBuilder9push_slot17hc4a2c4f0f83e5a28E, symObjAddr: 0x76A4, symBinAddr: 0x24F58, symSize: 0x10C }
  - { offset: 0xCC0A6, size: 0x8, addend: 0x0, symName: __ZN4pyo37pyclass18create_type_object16GetSetDefBuilder10add_getter17h22e0870792a30dcaE, symObjAddr: 0x77B0, symBinAddr: 0x25064, symSize: 0x64 }
  - { offset: 0xCC0E5, size: 0x8, addend: 0x0, symName: __ZN4pyo37pyclass18create_type_object16GetSetDefBuilder10add_setter17h4dcd90c6a7dd2381E, symObjAddr: 0x7814, symBinAddr: 0x250C8, symSize: 0x64 }
  - { offset: 0xCC142, size: 0x8, addend: 0x0, symName: __ZN4pyo37pyclass18create_type_object16GetSetDefBuilder14as_get_set_def17h5eb6b11961e1edd9E, symObjAddr: 0x7878, symBinAddr: 0x2512C, symSize: 0x1E8 }
  - { offset: 0xCD0AF, size: 0x8, addend: 0x0, symName: __ZN4pyo35impl_10trampoline10trampoline17h4b894725f22200b0E, symObjAddr: 0x3234, symBinAddr: 0x27B60, symSize: 0x15C }
  - { offset: 0xCD152, size: 0x8, addend: 0x0, symName: __ZN4pyo35impl_10trampoline10trampoline17h621c7f227c9c389eE, symObjAddr: 0x3390, symBinAddr: 0x27CBC, symSize: 0x158 }
  - { offset: 0xCD1F5, size: 0x8, addend: 0x0, symName: __ZN4pyo35impl_10trampoline10trampoline17h6ffc39e935cbe300E, symObjAddr: 0x34E8, symBinAddr: 0x27E14, symSize: 0x158 }
  - { offset: 0xCD298, size: 0x8, addend: 0x0, symName: __ZN4pyo35impl_10trampoline10trampoline17ha4022dac53d73e0cE, symObjAddr: 0x3640, symBinAddr: 0x27F6C, symSize: 0x15C }
  - { offset: 0xCD33B, size: 0x8, addend: 0x0, symName: __ZN4pyo35impl_10trampoline10trampoline17hcececa2776b0bfe8E, symObjAddr: 0x379C, symBinAddr: 0x280C8, symSize: 0x15C }
  - { offset: 0xCD3E3, size: 0x8, addend: 0x0, symName: '__ZN4pyo35impl_10trampoline10trampoline28_$u7b$$u7b$closure$u7d$$u7d$17h0c8096fd73b5b48eE', symObjAddr: 0x38F8, symBinAddr: 0x28224, symSize: 0x2C }
  - { offset: 0xCD431, size: 0x8, addend: 0x0, symName: '__ZN4pyo35impl_10trampoline10trampoline28_$u7b$$u7b$closure$u7d$$u7d$17h165fc6ed420b9ba1E', symObjAddr: 0x3924, symBinAddr: 0x28250, symSize: 0x34 }
  - { offset: 0xCD480, size: 0x8, addend: 0x0, symName: '__ZN4pyo35impl_10trampoline10trampoline28_$u7b$$u7b$closure$u7d$$u7d$17h7f8c0e8ad6b38047E', symObjAddr: 0x3958, symBinAddr: 0x28284, symSize: 0x2C }
  - { offset: 0xCD4CE, size: 0x8, addend: 0x0, symName: '__ZN4pyo35impl_10trampoline10trampoline28_$u7b$$u7b$closure$u7d$$u7d$17hb9cca1dbc46e4b1dE', symObjAddr: 0x3984, symBinAddr: 0x282B0, symSize: 0x34 }
  - { offset: 0xCD51D, size: 0x8, addend: 0x0, symName: '__ZN4pyo35impl_10trampoline10trampoline28_$u7b$$u7b$closure$u7d$$u7d$17hf182e34d1db9fc52E', symObjAddr: 0x39B8, symBinAddr: 0x282E4, symSize: 0x34 }
  - { offset: 0xCD56D, size: 0x8, addend: 0x0, symName: __ZN4pyo35impl_10trampoline33panic_result_into_callback_output17h277c331dc959f9d6E, symObjAddr: 0x39EC, symBinAddr: 0x28318, symSize: 0x114 }
  - { offset: 0xCD631, size: 0x8, addend: 0x0, symName: __ZN4pyo35impl_10trampoline33panic_result_into_callback_output17h3bba46d8e3caaaa8E, symObjAddr: 0x3B00, symBinAddr: 0x2842C, symSize: 0x12C }
  - { offset: 0xCD73B, size: 0x8, addend: 0x0, symName: '__ZN71_$LT$pyo3..impl_..panic..PanicTrap$u20$as$u20$core..ops..drop..Drop$GT$4drop17h5824a4365fd48f6cE', symObjAddr: 0x5328, symBinAddr: 0x289C4, symSize: 0x20 }
  - { offset: 0xCF1AA, size: 0x8, addend: 0x0, symName: '__ZN4core3ptr8non_null16NonNull$LT$T$GT$13new_unchecked18precondition_check17hac26ac052e4004b9E', symObjAddr: 0xFE0, symBinAddr: 0x2629C, symSize: 0x58 }
  - { offset: 0xCFD8E, size: 0x8, addend: 0x0, symName: '__ZN90_$LT$core..ptr..non_null..NonNull$LT$T$GT$$u20$as$u20$core..convert..From$LT$$RF$T$GT$$GT$4from17h0245d27cfd3330edE', symObjAddr: 0x57AC, symBinAddr: 0x28CE0, symSize: 0x14 }
  - { offset: 0xCFDC5, size: 0x8, addend: 0x0, symName: '__ZN90_$LT$core..ptr..non_null..NonNull$LT$T$GT$$u20$as$u20$core..convert..From$LT$$RF$T$GT$$GT$4from17h03750189fc024b77E', symObjAddr: 0x57C0, symBinAddr: 0x28CF4, symSize: 0x14 }
  - { offset: 0xCFDFC, size: 0x8, addend: 0x0, symName: '__ZN90_$LT$core..ptr..non_null..NonNull$LT$T$GT$$u20$as$u20$core..convert..From$LT$$RF$T$GT$$GT$4from17h4610d868e2f24b6aE', symObjAddr: 0x57E8, symBinAddr: 0x28D08, symSize: 0x14 }
  - { offset: 0xCFE33, size: 0x8, addend: 0x0, symName: '__ZN90_$LT$core..ptr..non_null..NonNull$LT$T$GT$$u20$as$u20$core..convert..From$LT$$RF$T$GT$$GT$4from17h4ada3df8949c3230E', symObjAddr: 0x57FC, symBinAddr: 0x28D1C, symSize: 0x14 }
  - { offset: 0xCFE6A, size: 0x8, addend: 0x0, symName: '__ZN90_$LT$core..ptr..non_null..NonNull$LT$T$GT$$u20$as$u20$core..convert..From$LT$$RF$T$GT$$GT$4from17h582065b486604d94E', symObjAddr: 0x5824, symBinAddr: 0x28D30, symSize: 0x14 }
  - { offset: 0xCFEA1, size: 0x8, addend: 0x0, symName: '__ZN90_$LT$core..ptr..non_null..NonNull$LT$T$GT$$u20$as$u20$core..convert..From$LT$$RF$T$GT$$GT$4from17h610e9bfdcd7acb1eE', symObjAddr: 0x584C, symBinAddr: 0x28D44, symSize: 0x14 }
  - { offset: 0xCFED8, size: 0x8, addend: 0x0, symName: '__ZN90_$LT$core..ptr..non_null..NonNull$LT$T$GT$$u20$as$u20$core..convert..From$LT$$RF$T$GT$$GT$4from17h66f8382a61999ad9E', symObjAddr: 0x5860, symBinAddr: 0x28D58, symSize: 0x14 }
  - { offset: 0xCFF0F, size: 0x8, addend: 0x0, symName: '__ZN90_$LT$core..ptr..non_null..NonNull$LT$T$GT$$u20$as$u20$core..convert..From$LT$$RF$T$GT$$GT$4from17hb9e831afebd94d2eE', symObjAddr: 0x5930, symBinAddr: 0x28D6C, symSize: 0x14 }
  - { offset: 0xCFF46, size: 0x8, addend: 0x0, symName: '__ZN90_$LT$core..ptr..non_null..NonNull$LT$T$GT$$u20$as$u20$core..convert..From$LT$$RF$T$GT$$GT$4from17hbe9aa956f0d54216E', symObjAddr: 0x5944, symBinAddr: 0x28D80, symSize: 0x14 }
  - { offset: 0xCFF7D, size: 0x8, addend: 0x0, symName: '__ZN90_$LT$core..ptr..non_null..NonNull$LT$T$GT$$u20$as$u20$core..convert..From$LT$$RF$T$GT$$GT$4from17hc0458d33b8fd48dcE', symObjAddr: 0x5958, symBinAddr: 0x28D94, symSize: 0x14 }
  - { offset: 0xCFFB4, size: 0x8, addend: 0x0, symName: '__ZN90_$LT$core..ptr..non_null..NonNull$LT$T$GT$$u20$as$u20$core..convert..From$LT$$RF$T$GT$$GT$4from17hd33caa44c5f8843eE', symObjAddr: 0x5994, symBinAddr: 0x28DA8, symSize: 0x14 }
  - { offset: 0xCFFEB, size: 0x8, addend: 0x0, symName: '__ZN90_$LT$core..ptr..non_null..NonNull$LT$T$GT$$u20$as$u20$core..convert..From$LT$$RF$T$GT$$GT$4from17hf55a64a7cb5cfc9cE', symObjAddr: 0x59D0, symBinAddr: 0x28DBC, symSize: 0x14 }
  - { offset: 0xD0022, size: 0x8, addend: 0x0, symName: '__ZN90_$LT$core..ptr..non_null..NonNull$LT$T$GT$$u20$as$u20$core..convert..From$LT$$RF$T$GT$$GT$4from17hf9197aacb5e76566E', symObjAddr: 0x59E4, symBinAddr: 0x28DD0, symSize: 0x14 }
  - { offset: 0xD07B4, size: 0x8, addend: 0x0, symName: __ZN4core4sync6atomic11atomic_load17h3ece123872180dc5E, symObjAddr: 0x2018, symBinAddr: 0x26A28, symSize: 0xF8 }
  - { offset: 0xD07FA, size: 0x8, addend: 0x0, symName: __ZN4core4sync6atomic11atomic_load17hca1feb5291fc5c02E, symObjAddr: 0x2110, symBinAddr: 0x26B20, symSize: 0xF8 }
  - { offset: 0xD0840, size: 0x8, addend: 0x0, symName: __ZN4core4sync6atomic12atomic_store17h751cc4eb5116da0eE, symObjAddr: 0x2208, symBinAddr: 0x26C18, symSize: 0xFC }
  - { offset: 0xD0891, size: 0x8, addend: 0x0, symName: __ZN4core4sync6atomic23atomic_compare_exchange17h0e8f018bf97dced8E, symObjAddr: 0x2320, symBinAddr: 0x26D14, symSize: 0x4B4 }
  - { offset: 0xD092C, size: 0x8, addend: 0x0, symName: __ZN4core4sync6atomic23atomic_compare_exchange17h4aefe67f5fc892ccE, symObjAddr: 0x27D4, symBinAddr: 0x271C8, symSize: 0x4B4 }
  - { offset: 0xD09C7, size: 0x8, addend: 0x0, symName: __ZN4core4sync6atomic23atomic_compare_exchange17hb57a005dc65afa28E, symObjAddr: 0x2C88, symBinAddr: 0x2767C, symSize: 0x4B4 }
  - { offset: 0xD0BD8, size: 0x8, addend: 0x0, symName: '__ZN102_$LT$core..iter..adapters..map..Map$LT$I$C$F$GT$$u20$as$u20$core..iter..traits..iterator..Iterator$GT$4next17hea47cf95bfb118bcE', symObjAddr: 0x264, symBinAddr: 0x2608C, symSize: 0xB4 }
  - { offset: 0xD0C74, size: 0x8, addend: 0x0, symName: '__ZN102_$LT$core..iter..adapters..map..Map$LT$I$C$F$GT$$u20$as$u20$core..iter..traits..iterator..Iterator$GT$9size_hint17hd0d66faaeb190444E', symObjAddr: 0x3FC, symBinAddr: 0x26140, symSize: 0x24 }
  - { offset: 0xD0D00, size: 0x8, addend: 0x0, symName: __ZN4core4iter6traits8iterator8Iterator7collect17hee6283c38a158f49E, symObjAddr: 0x1B04, symBinAddr: 0x268AC, symSize: 0x14 }
  - { offset: 0xD0D4D, size: 0x8, addend: 0x0, symName: '__ZN63_$LT$I$u20$as$u20$core..iter..traits..collect..IntoIterator$GT$9into_iter17h7d0130a4dad93064E', symObjAddr: 0x5154, symBinAddr: 0x28994, symSize: 0x30 }
  - { offset: 0xD170B, size: 0x8, addend: 0x0, symName: '__ZN185_$LT$core..ops..control_flow..ControlFlow$LT$B$C$C$GT$$u20$as$u20$core..ops..try_trait..FromResidual$LT$core..ops..control_flow..ControlFlow$LT$B$C$core..convert..Infallible$GT$$GT$$GT$13from_residual17h04969c2fcc2d178cE', symObjAddr: 0x594, symBinAddr: 0x261C4, symSize: 0x18 }
  - { offset: 0xD174F, size: 0x8, addend: 0x0, symName: '__ZN95_$LT$core..ops..control_flow..ControlFlow$LT$B$C$C$GT$$u20$as$u20$core..ops..try_trait..Try$GT$11from_output17h1724f71996d2c0e6E', symObjAddr: 0x59F8, symBinAddr: 0x28DE4, symSize: 0x10 }
  - { offset: 0xD178D, size: 0x8, addend: 0x0, symName: '__ZN95_$LT$core..ops..control_flow..ControlFlow$LT$B$C$C$GT$$u20$as$u20$core..ops..try_trait..Try$GT$6branch17h160b657c7bbd7c5cE', symObjAddr: 0x5A54, symBinAddr: 0x28DF4, symSize: 0x54 }
  - { offset: 0xD199D, size: 0x8, addend: 0x0, symName: '__ZN104_$LT$core..ops..index_range..IndexRange$u20$as$u20$core..slice..index..SliceIndex$LT$$u5b$T$u5d$$GT$$GT$17get_unchecked_mut18precondition_check17hb66c18d867ddbd84E', symObjAddr: 0x420, symBinAddr: 0x26164, symSize: 0x60 }
  - { offset: 0xD19FC, size: 0x8, addend: 0x0, symName: '__ZN75_$LT$usize$u20$as$u20$core..slice..index..SliceIndex$LT$$u5b$T$u5d$$GT$$GT$13get_unchecked18precondition_check17ha611f4e41af29f6aE', symObjAddr: 0x5568, symBinAddr: 0x28AFC, symSize: 0x60 }
  - { offset: 0xD1A55, size: 0x8, addend: 0x0, symName: '__ZN75_$LT$usize$u20$as$u20$core..slice..index..SliceIndex$LT$$u5b$T$u5d$$GT$$GT$17get_unchecked_mut18precondition_check17hb032324f5d02ab87E', symObjAddr: 0x55C8, symBinAddr: 0x28B5C, symSize: 0x60 }
  - { offset: 0xD1B28, size: 0x8, addend: 0x0, symName: __ZN4core4hash11BuildHasher8hash_one17h21422b50a89d18d8E, symObjAddr: 0x1934, symBinAddr: 0x267C4, symSize: 0x84 }
  - { offset: 0xD1B93, size: 0x8, addend: 0x0, symName: __ZN4core4hash6Hasher11write_usize17h683c86ab34f72961E, symObjAddr: 0x19B8, symBinAddr: 0x26848, symSize: 0x3C }
  - { offset: 0xD1BF3, size: 0x8, addend: 0x0, symName: __ZN4core4hash6Hasher19write_length_prefix17hde1fd884979b631bE, symObjAddr: 0x19F4, symBinAddr: 0x26884, symSize: 0x28 }
  - { offset: 0xD25DB, size: 0x8, addend: 0x0, symName: __ZN8pyo3_ffi10listobject12PyList_Check17h00648d7832a0e6a9E, symObjAddr: 0x577C, symBinAddr: 0x28CB0, symSize: 0x30 }
  - { offset: 0xD2CCD, size: 0x8, addend: 0x0, symName: '__ZN3std4hash6random11RandomState3new28_$u7b$$u7b$closure$u7d$$u7d$17h2edc787d86da6c3cE', symObjAddr: 0x5C0, symBinAddr: 0x261DC, symSize: 0x2C }
  - { offset: 0xD2D89, size: 0x8, addend: 0x0, symName: __ZN3std4hash6random11RandomState3new4KEYS27__rust_std_internal_init_fn17hb5c6735a8e3a7279E, symObjAddr: 0x5EC, symBinAddr: 0x26208, symSize: 0x24 }
  - { offset: 0xD2DAB, size: 0x8, addend: 0x0, symName: '__ZN3std4hash6random11RandomState3new4KEYS29_$u7b$$u7b$constant$u7d$$u7d$28_$u7b$$u7b$closure$u7d$$u7d$17h67dd9245fdc3ac04E', symObjAddr: 0x610, symBinAddr: 0x2622C, symSize: 0x34 }
  - { offset: 0xD2DF8, size: 0x8, addend: 0x0, symName: '__ZN71_$LT$std..hash..random..DefaultHasher$u20$as$u20$core..hash..Hasher$GT$5write17h6142dc9d9920b70bE', symObjAddr: 0x5348, symBinAddr: 0x289E4, symSize: 0x2C }
  - { offset: 0xD2E52, size: 0x8, addend: 0x0, symName: '__ZN71_$LT$std..hash..random..DefaultHasher$u20$as$u20$core..hash..Hasher$GT$6finish17ha30d765ff91eff1bE', symObjAddr: 0x5374, symBinAddr: 0x28A10, symSize: 0x20 }
  - { offset: 0xD2EA0, size: 0x8, addend: 0x0, symName: '__ZN74_$LT$std..hash..random..RandomState$u20$as$u20$core..hash..BuildHasher$GT$12build_hasher17hf81e19e71c2b483eE', symObjAddr: 0x549C, symBinAddr: 0x28A30, symSize: 0xCC }
  - { offset: 0xD32D5, size: 0x8, addend: 0x0, symName: '__ZN87_$LT$T$u20$as$u20$alloc..slice..$LT$impl$u20$$u5b$T$u5d$$GT$..to_vec_in..ConvertVec$GT$6to_vec17h857e8dfe77feda1bE', symObjAddr: 0x5654, symBinAddr: 0x28BBC, symSize: 0xF4 }
  - { offset: 0xD37C7, size: 0x8, addend: 0x0, symName: '__ZN4core3ptr8non_null16NonNull$LT$T$GT$13new_unchecked17h5f09cb8c2d852fcbE', symObjAddr: 0xFA4, symBinAddr: 0x26260, symSize: 0x3C }
  - { offset: 0xD382F, size: 0x8, addend: 0x0, symName: '__ZN4core3ptr8non_null16NonNull$LT$T$GT$20offset_from_unsigned17h40aa739e40faaf81E', symObjAddr: 0x10B4, symBinAddr: 0x262F4, symSize: 0x7C }
  - { offset: 0xD3957, size: 0x8, addend: 0x0, symName: '__ZN4core3ptr8non_null16NonNull$LT$T$GT$20offset_from_unsigned17hb145680bc67f2be7E', symObjAddr: 0x11AC, symBinAddr: 0x26370, symSize: 0x7C }
  - { offset: 0xD3AA9, size: 0x8, addend: 0x0, symName: '__ZN4core3ptr8non_null16NonNull$LT$T$GT$20offset_from_unsigned17hb33867dd7ce11f34E', symObjAddr: 0x1228, symBinAddr: 0x263EC, symSize: 0x7C }
  - { offset: 0xD3BB3, size: 0x8, addend: 0x0, symName: '__ZN4core3ptr8non_null16NonNull$LT$T$GT$20offset_from_unsigned17hbe1ebfbd805f2628E', symObjAddr: 0x12A4, symBinAddr: 0x26468, symSize: 0x7C }
  - { offset: 0xD3CCA, size: 0x8, addend: 0x0, symName: '__ZN4core3ptr8non_null16NonNull$LT$T$GT$20offset_from_unsigned17hc9eac7c9c6b58ddbE', symObjAddr: 0x1320, symBinAddr: 0x264E4, symSize: 0x7C }
  - { offset: 0xD3DD4, size: 0x8, addend: 0x0, symName: '__ZN4core3ptr8non_null16NonNull$LT$T$GT$20offset_from_unsigned17hde674e6c06b87455E', symObjAddr: 0x139C, symBinAddr: 0x26560, symSize: 0x7C }
  - { offset: 0xD3EC3, size: 0x8, addend: 0x0, symName: '__ZN4core3ptr8non_null16NonNull$LT$T$GT$3new17h1b87d03bcd7b0718E', symObjAddr: 0x1494, symBinAddr: 0x265DC, symSize: 0x58 }
  - { offset: 0xD3F2C, size: 0x8, addend: 0x0, symName: '__ZN4core3ptr8non_null16NonNull$LT$T$GT$4cast17h05176d662ec3c026E', symObjAddr: 0x15B0, symBinAddr: 0x26634, symSize: 0x14 }
  - { offset: 0xD3F6E, size: 0x8, addend: 0x0, symName: '__ZN4core3ptr8non_null16NonNull$LT$T$GT$4cast17h071a1d84afa71289E', symObjAddr: 0x15C4, symBinAddr: 0x26648, symSize: 0x14 }
  - { offset: 0xD3FBD, size: 0x8, addend: 0x0, symName: '__ZN4core3ptr8non_null16NonNull$LT$T$GT$4cast17h2a95fb21f76e6466E', symObjAddr: 0x1614, symBinAddr: 0x2665C, symSize: 0x14 }
  - { offset: 0xD400C, size: 0x8, addend: 0x0, symName: '__ZN4core3ptr8non_null16NonNull$LT$T$GT$4cast17h3c63c522da68dbeeE', symObjAddr: 0x163C, symBinAddr: 0x26670, symSize: 0x14 }
  - { offset: 0xD404E, size: 0x8, addend: 0x0, symName: '__ZN4core3ptr8non_null16NonNull$LT$T$GT$4cast17h3ce0557565815dbeE', symObjAddr: 0x1650, symBinAddr: 0x26684, symSize: 0x14 }
  - { offset: 0xD409D, size: 0x8, addend: 0x0, symName: '__ZN4core3ptr8non_null16NonNull$LT$T$GT$4cast17h4c54a58133634e15E', symObjAddr: 0x16A0, symBinAddr: 0x26698, symSize: 0x14 }
  - { offset: 0xD40EC, size: 0x8, addend: 0x0, symName: '__ZN4core3ptr8non_null16NonNull$LT$T$GT$4cast17h56ee5057dab187cfE', symObjAddr: 0x16C8, symBinAddr: 0x266AC, symSize: 0x14 }
  - { offset: 0xD4148, size: 0x8, addend: 0x0, symName: '__ZN4core3ptr8non_null16NonNull$LT$T$GT$4cast17h6fc6edf27b639f7aE', symObjAddr: 0x16F0, symBinAddr: 0x266C0, symSize: 0x14 }
  - { offset: 0xD418A, size: 0x8, addend: 0x0, symName: '__ZN4core3ptr8non_null16NonNull$LT$T$GT$4cast17h7ac8ac731c6ac0a7E', symObjAddr: 0x172C, symBinAddr: 0x266D4, symSize: 0x14 }
  - { offset: 0xD41BF, size: 0x8, addend: 0x0, symName: '__ZN4core3ptr8non_null16NonNull$LT$T$GT$4cast17h7d87575d12609dcbE', symObjAddr: 0x1754, symBinAddr: 0x266E8, symSize: 0x14 }
  - { offset: 0xD4201, size: 0x8, addend: 0x0, symName: '__ZN4core3ptr8non_null16NonNull$LT$T$GT$4cast17h9267d8a46498adefE', symObjAddr: 0x1768, symBinAddr: 0x266FC, symSize: 0x14 }
  - { offset: 0xD4236, size: 0x8, addend: 0x0, symName: '__ZN4core3ptr8non_null16NonNull$LT$T$GT$4cast17ha480642090d31f7dE', symObjAddr: 0x1790, symBinAddr: 0x26710, symSize: 0x14 }
  - { offset: 0xD4278, size: 0x8, addend: 0x0, symName: '__ZN4core3ptr8non_null16NonNull$LT$T$GT$4cast17hbf8dde1727aa33dfE', symObjAddr: 0x17F4, symBinAddr: 0x26724, symSize: 0x14 }
  - { offset: 0xD42BA, size: 0x8, addend: 0x0, symName: '__ZN4core3ptr8non_null16NonNull$LT$T$GT$4cast17hc2fe6c36abaf6677E', symObjAddr: 0x1808, symBinAddr: 0x26738, symSize: 0x14 }
  - { offset: 0xD42EF, size: 0x8, addend: 0x0, symName: '__ZN4core3ptr8non_null16NonNull$LT$T$GT$4cast17hcd904e694a8b3573E', symObjAddr: 0x181C, symBinAddr: 0x2674C, symSize: 0x14 }
  - { offset: 0xD434B, size: 0x8, addend: 0x0, symName: '__ZN4core3ptr8non_null16NonNull$LT$T$GT$4cast17hdc5df6f33a1e574fE', symObjAddr: 0x186C, symBinAddr: 0x26760, symSize: 0x14 }
  - { offset: 0xD438D, size: 0x8, addend: 0x0, symName: '__ZN4core3ptr8non_null16NonNull$LT$T$GT$4cast17hdd67a75f547fd33eE', symObjAddr: 0x1880, symBinAddr: 0x26774, symSize: 0x14 }
  - { offset: 0xD43CF, size: 0x8, addend: 0x0, symName: '__ZN4core3ptr8non_null16NonNull$LT$T$GT$4cast17he2ae0fdc1e71b94aE', symObjAddr: 0x18A8, symBinAddr: 0x26788, symSize: 0x14 }
  - { offset: 0xD4404, size: 0x8, addend: 0x0, symName: '__ZN4core3ptr8non_null16NonNull$LT$T$GT$4cast17hf07ce8eecb8f02bbE', symObjAddr: 0x18D0, symBinAddr: 0x2679C, symSize: 0x14 }
  - { offset: 0xD4453, size: 0x8, addend: 0x0, symName: '__ZN4core3ptr8non_null16NonNull$LT$T$GT$4cast17hf85017eb1eb0f723E', symObjAddr: 0x190C, symBinAddr: 0x267B0, symSize: 0x14 }
  - { offset: 0xD44AF, size: 0x8, addend: 0x0, symName: __ZN4core4sync6atomic11AtomicUsize16compare_exchange17hac8c518d4a4b52feE, symObjAddr: 0x1EB0, symBinAddr: 0x268C0, symSize: 0x30 }
  - { offset: 0xD450E, size: 0x8, addend: 0x0, symName: __ZN4core4sync6atomic11AtomicUsize4load17h22652356a4d71be5E, symObjAddr: 0x1EE0, symBinAddr: 0x268F0, symSize: 0x24 }
  - { offset: 0xD4540, size: 0x8, addend: 0x0, symName: __ZN4core4sync6atomic11AtomicUsize5store17h036034993de0ee1cE, symObjAddr: 0x1F04, symBinAddr: 0x26914, symSize: 0x28 }
  - { offset: 0xD45B7, size: 0x8, addend: 0x0, symName: __ZN4core4sync6atomic11AtomicUsize9fetch_sub17he91b7faf4713001cE, symObjAddr: 0x1F2C, symBinAddr: 0x2693C, symSize: 0xEC }
  - { offset: 0xD4652, size: 0x8, addend: 0x0, symName: __ZN4core4sync6atomic9AtomicI6416compare_exchange17h511ec42ab185d3dcE, symObjAddr: 0x31EC, symBinAddr: 0x27B30, symSize: 0x30 }
  - { offset: 0xD46B1, size: 0x8, addend: 0x0, symName: __ZN4pyo35impl_5panic9PanicTrap3new17h9761f94f3f24e87bE, symObjAddr: 0x3C2C, symBinAddr: 0x28558, symSize: 0x18 }
  - { offset: 0xD46D3, size: 0x8, addend: 0x0, symName: __ZN4pyo35impl_5panic9PanicTrap6disarm17h80b81117fd185c99E, symObjAddr: 0x3C44, symBinAddr: 0x28570, symSize: 0x28 }
  - { offset: 0xD4729, size: 0x8, addend: 0x0, symName: __ZN4pyo36marker6Python15assume_attached17h235386224fc1a126E, symObjAddr: 0x479C, symBinAddr: 0x28598, symSize: 0x4 }
  - { offset: 0xD4749, size: 0x8, addend: 0x0, symName: __ZN4pyo36marker6Python4None17he2f2d83a2cf0eb58E, symObjAddr: 0x4978, symBinAddr: 0x2859C, symSize: 0x28 }
  - { offset: 0xD47C0, size: 0x8, addend: 0x0, symName: __ZN4pyo36marker6Python6attach17h25e335e95b86c922E, symObjAddr: 0x4AD8, symBinAddr: 0x285C4, symSize: 0xE8 }
  - { offset: 0xD4825, size: 0x8, addend: 0x0, symName: __ZN4pyo36marker6Python6attach17hd63bd7d9bdd03e3fE, symObjAddr: 0x4D84, symBinAddr: 0x286AC, symSize: 0xE8 }
  - { offset: 0xD4870, size: 0x8, addend: 0x0, symName: __ZN4pyo36marker6Python6attach17hfcb12111b1b6a8a2E, symObjAddr: 0x4E6C, symBinAddr: 0x28794, symSize: 0xF4 }
  - { offset: 0xD48C9, size: 0x8, addend: 0x0, symName: __ZN4pyo36marker6Python6detach17hb8601f8bc3916c01E, symObjAddr: 0x4F60, symBinAddr: 0x28888, symSize: 0xB0 }
  - { offset: 0xD4944, size: 0x8, addend: 0x0, symName: __ZN4pyo36marker6Python6import17h75d1daa7c27e7b33E, symObjAddr: 0x5010, symBinAddr: 0x28938, symSize: 0x24 }
  - { offset: 0xD498B, size: 0x8, addend: 0x0, symName: __ZN4pyo36marker6Python8get_type17h1757bc02195a18f1E, symObjAddr: 0x50A8, symBinAddr: 0x2895C, symSize: 0x1C }
  - { offset: 0xD49C3, size: 0x8, addend: 0x0, symName: __ZN4pyo36marker6Python8get_type17hdf144ffbec97980fE, symObjAddr: 0x50C4, symBinAddr: 0x28978, symSize: 0x1C }
  - { offset: 0xD4F7E, size: 0x8, addend: 0x0, symName: '__ZN102_$LT$pyo3..internal..get_slot..Slot$LT$47_i32$GT$$u20$as$u20$pyo3..internal..get_slot..GetSlotImpl$GT$8get_slot17hf469920eef31b845E', symObjAddr: 0x0, symBinAddr: 0x28E48, symSize: 0x74 }
  - { offset: 0xD4FBF, size: 0x8, addend: 0x0, symName: '__ZN3std4sync4once4Once15call_once_force28_$u7b$$u7b$closure$u7d$$u7d$17h01c48deb8bb5070bE', symObjAddr: 0x8AC, symBinAddr: 0x2950C, symSize: 0x84 }
  - { offset: 0xD5051, size: 0x8, addend: 0x0, symName: '__ZN3std4sync4once4Once15call_once_force28_$u7b$$u7b$closure$u7d$$u7d$17h0fca1d37299c5eb3E', symObjAddr: 0x930, symBinAddr: 0x29590, symSize: 0x84 }
  - { offset: 0xD50E3, size: 0x8, addend: 0x0, symName: '__ZN3std4sync4once4Once15call_once_force28_$u7b$$u7b$closure$u7d$$u7d$17h5cfe4a75ec430b79E', symObjAddr: 0x9B4, symBinAddr: 0x29614, symSize: 0x68 }
  - { offset: 0xD5175, size: 0x8, addend: 0x0, symName: '__ZN3std4sync4once4Once15call_once_force28_$u7b$$u7b$closure$u7d$$u7d$17h7428ecf4ea8735abE', symObjAddr: 0xA1C, symBinAddr: 0x2967C, symSize: 0x68 }
  - { offset: 0xD5207, size: 0x8, addend: 0x0, symName: '__ZN3std4sync4once4Once15call_once_force28_$u7b$$u7b$closure$u7d$$u7d$17hbacaa7100d2806d4E', symObjAddr: 0xA84, symBinAddr: 0x296E4, symSize: 0x84 }
  - { offset: 0xD529F, size: 0x8, addend: 0x0, symName: '__ZN3std4sync4once4Once9call_once28_$u7b$$u7b$closure$u7d$$u7d$17h8ab76e4089a77c28E', symObjAddr: 0xCE0, symBinAddr: 0x29940, symSize: 0x60 }
  - { offset: 0xD532D, size: 0x8, addend: 0x0, symName: '__ZN3std4sync4once4Once9call_once28_$u7b$$u7b$closure$u7d$$u7d$17heca8f870e74d21b0E', symObjAddr: 0xD40, symBinAddr: 0x299A0, symSize: 0x68 }
  - { offset: 0xD5770, size: 0x8, addend: 0x0, symName: '__ZN3std4sync6poison5mutex19MutexGuard$LT$T$GT$3new28_$u7b$$u7b$closure$u7d$$u7d$17h2f8045548cadbf19E', symObjAddr: 0xF24, symBinAddr: 0x29B84, symSize: 0x18 }
  - { offset: 0xD57B8, size: 0x8, addend: 0x0, symName: '__ZN3std4sync6poison5mutex19MutexGuard$LT$T$GT$3new28_$u7b$$u7b$closure$u7d$$u7d$17hae025590e9d292acE', symObjAddr: 0xF3C, symBinAddr: 0x29B9C, symSize: 0x18 }
  - { offset: 0xD5800, size: 0x8, addend: 0x0, symName: '__ZN3std4sync6poison5mutex19MutexGuard$LT$T$GT$3new28_$u7b$$u7b$closure$u7d$$u7d$17hc4916635830575feE', symObjAddr: 0xF54, symBinAddr: 0x29BB4, symSize: 0x18 }
  - { offset: 0xD584F, size: 0x8, addend: 0x0, symName: '__ZN87_$LT$std..sync..poison..mutex..MutexGuard$LT$T$GT$$u20$as$u20$core..ops..drop..Drop$GT$4drop17h52dc4f9ad83dd5cfE', symObjAddr: 0x5698, symBinAddr: 0x2B9D8, symSize: 0x58 }
  - { offset: 0xD58CD, size: 0x8, addend: 0x0, symName: '__ZN87_$LT$std..sync..poison..mutex..MutexGuard$LT$T$GT$$u20$as$u20$core..ops..drop..Drop$GT$4drop17h6af50c8979326409E', symObjAddr: 0x56F0, symBinAddr: 0x2BA30, symSize: 0x58 }
  - { offset: 0xD594B, size: 0x8, addend: 0x0, symName: '__ZN87_$LT$std..sync..poison..mutex..MutexGuard$LT$T$GT$$u20$as$u20$core..ops..drop..Drop$GT$4drop17h9b50f329c178a058E', symObjAddr: 0x5748, symBinAddr: 0x2BA88, symSize: 0x58 }
  - { offset: 0xD59CF, size: 0x8, addend: 0x0, symName: '__ZN89_$LT$std..sync..poison..mutex..MutexGuard$LT$T$GT$$u20$as$u20$core..ops..deref..Deref$GT$5deref17h7f4779d0343598c5E', symObjAddr: 0x57A0, symBinAddr: 0x2BAE0, symSize: 0x1C }
  - { offset: 0xD5A1B, size: 0x8, addend: 0x0, symName: '__ZN89_$LT$std..sync..poison..mutex..MutexGuard$LT$T$GT$$u20$as$u20$core..ops..deref..Deref$GT$5deref17ha56f75e58e55aa79E', symObjAddr: 0x57BC, symBinAddr: 0x2BAFC, symSize: 0x1C }
  - { offset: 0xD5A67, size: 0x8, addend: 0x0, symName: '__ZN89_$LT$std..sync..poison..mutex..MutexGuard$LT$T$GT$$u20$as$u20$core..ops..deref..Deref$GT$5deref17hadc596c58cf1d563E', symObjAddr: 0x57D8, symBinAddr: 0x2BB18, symSize: 0x1C }
  - { offset: 0xD5AB9, size: 0x8, addend: 0x0, symName: '__ZN92_$LT$std..sync..poison..mutex..MutexGuard$LT$T$GT$$u20$as$u20$core..ops..deref..DerefMut$GT$9deref_mut17h0370dce2dedc241cE', symObjAddr: 0x5994, symBinAddr: 0x2BC60, symSize: 0x1C }
  - { offset: 0xD5B05, size: 0x8, addend: 0x0, symName: '__ZN92_$LT$std..sync..poison..mutex..MutexGuard$LT$T$GT$$u20$as$u20$core..ops..deref..DerefMut$GT$9deref_mut17h34cfa86461a93603E', symObjAddr: 0x59B0, symBinAddr: 0x2BC7C, symSize: 0x1C }
  - { offset: 0xD5B51, size: 0x8, addend: 0x0, symName: '__ZN92_$LT$std..sync..poison..mutex..MutexGuard$LT$T$GT$$u20$as$u20$core..ops..deref..DerefMut$GT$9deref_mut17hdb4dfb703036da99E', symObjAddr: 0x59CC, symBinAddr: 0x2BC98, symSize: 0x1C }
  - { offset: 0xD5D8D, size: 0x8, addend: 0x0, symName: '__ZN84_$LT$std..sys..sync..once_box..OnceBox$LT$T$GT$$u20$as$u20$core..ops..drop..Drop$GT$4drop17h73ab64a282920782E', symObjAddr: 0x5624, symBinAddr: 0x2B964, symSize: 0x74 }
  - { offset: 0xD7065, size: 0x8, addend: 0x0, symName: '__ZN145_$LT$core..option..Option$LT$T$GT$$u20$as$u20$core..ops..try_trait..FromResidual$LT$core..option..Option$LT$core..convert..Infallible$GT$$GT$$GT$13from_residual17h9ad07bb47ea3ccf4E', symObjAddr: 0x248, symBinAddr: 0x28FA4, symSize: 0x10 }
  - { offset: 0xD853C, size: 0x8, addend: 0x0, symName: '__ZN66_$LT$core..option..Option$LT$T$GT$$u20$as$u20$core..fmt..Debug$GT$3fmt17hcf39da0bfdda03f7E', symObjAddr: 0x538C, symBinAddr: 0x2B86C, symSize: 0xA0 }
  - { offset: 0xD85A6, size: 0x8, addend: 0x0, symName: '__ZN72_$LT$core..option..Option$LT$T$GT$$u20$as$u20$core..default..Default$GT$7default17h01c14b3a67e17c21E', symObjAddr: 0x542C, symBinAddr: 0x2B90C, symSize: 0x8 }
  - { offset: 0xD85CE, size: 0x8, addend: 0x0, symName: '__ZN72_$LT$core..option..Option$LT$T$GT$$u20$as$u20$core..default..Default$GT$7default17h9da56c9c083903c6E', symObjAddr: 0x5434, symBinAddr: 0x2B914, symSize: 0x8 }
  - { offset: 0xD85F6, size: 0x8, addend: 0x0, symName: '__ZN72_$LT$core..option..Option$LT$T$GT$$u20$as$u20$core..default..Default$GT$7default17hfca8ee8c8e0d51e4E', symObjAddr: 0x5444, symBinAddr: 0x2B91C, symSize: 0x8 }
  - { offset: 0xD8624, size: 0x8, addend: 0x0, symName: '__ZN75_$LT$core..option..Option$LT$T$GT$$u20$as$u20$core..ops..try_trait..Try$GT$6branch17hbb196be22e9f11cdE', symObjAddr: 0x54C4, symBinAddr: 0x2B924, symSize: 0x40 }
  - { offset: 0xD8A7E, size: 0x8, addend: 0x0, symName: '__ZN4core3ptr7mut_ptr31_$LT$impl$u20$$BP$mut$u20$T$GT$6offset18precondition_check17h05fd98262e949120E', symObjAddr: 0x12DC, symBinAddr: 0x29DDC, symSize: 0xC4 }
  - { offset: 0xDA278, size: 0x8, addend: 0x0, symName: '__ZN4core5slice4iter87_$LT$impl$u20$core..iter..traits..collect..IntoIterator$u20$for$u20$$RF$$u5b$T$u5d$$GT$9into_iter17hb7cc69c3084a9909E', symObjAddr: 0x13A0, symBinAddr: 0x29EA0, symSize: 0x50 }
  - { offset: 0xDA41E, size: 0x8, addend: 0x0, symName: __ZN4core5slice6memchr6memchr17hb0775348105bc377E, symObjAddr: 0x13F0, symBinAddr: 0x29EF0, symSize: 0x114 }
  - { offset: 0xDAA94, size: 0x8, addend: 0x0, symName: '__ZN102_$LT$pyo3..internal..get_slot..Slot$LT$47_i32$GT$$u20$as$u20$pyo3..internal..get_slot..GetSlotImpl$GT$8get_slot17hf469920eef31b845E', symObjAddr: 0x0, symBinAddr: 0x28E48, symSize: 0x74 }
  - { offset: 0xDAADF, size: 0x8, addend: 0x0, symName: '__ZN102_$LT$pyo3..internal..get_slot..Slot$LT$48_i32$GT$$u20$as$u20$pyo3..internal..get_slot..GetSlotImpl$GT$8get_slot17h84d9c9e2bdc43fcbE', symObjAddr: 0x74, symBinAddr: 0x28EBC, symSize: 0x74 }
  - { offset: 0xDAB2A, size: 0x8, addend: 0x0, symName: '__ZN102_$LT$pyo3..internal..get_slot..Slot$LT$51_i32$GT$$u20$as$u20$pyo3..internal..get_slot..GetSlotImpl$GT$8get_slot17hfd9d937882e98ae5E', symObjAddr: 0xE8, symBinAddr: 0x28F30, symSize: 0x74 }
  - { offset: 0xDAD16, size: 0x8, addend: 0x0, symName: '__ZN4pyo34sync9once_lock19PyOnceLock$LT$T$GT$15get_or_try_init28_$u7b$$u7b$closure$u7d$$u7d$17hdaf1c29d44f2557eE', symObjAddr: 0x39B4, symBinAddr: 0x2B194, symSize: 0x2C }
  - { offset: 0xDADD6, size: 0x8, addend: 0x0, symName: '__ZN4pyo34sync9once_lock19PyOnceLock$LT$T$GT$11get_or_init28_$u7b$$u7b$closure$u7d$$u7d$17h6e2289095d8c4574E', symObjAddr: 0x3554, symBinAddr: 0x2B084, symSize: 0x38 }
  - { offset: 0xDAE35, size: 0x8, addend: 0x0, symName: '__ZN4pyo34sync9once_lock19PyOnceLock$LT$T$GT$11get_or_init28_$u7b$$u7b$closure$u7d$$u7d$17h91b5c6b6c405e818E', symObjAddr: 0x358C, symBinAddr: 0x2B0BC, symSize: 0x28 }
  - { offset: 0xDB19C, size: 0x8, addend: 0x0, symName: '__ZN4pyo34sync9once_lock26init_once_cell_py_attached28_$u7b$$u7b$closure$u7d$$u7d$17h42836efccf76cbcdE', symObjAddr: 0x3BD0, symBinAddr: 0x2B1C0, symSize: 0x80 }
  - { offset: 0xDB1EC, size: 0x8, addend: 0x0, symName: '__ZN4pyo34sync9once_lock26init_once_cell_py_attached28_$u7b$$u7b$closure$u7d$$u7d$17ha18362fefc3a56b7E', symObjAddr: 0x3C50, symBinAddr: 0x2B240, symSize: 0x90 }
  - { offset: 0xDB260, size: 0x8, addend: 0x0, symName: '__ZN4pyo34sync9once_lock30try_init_once_cell_py_attached28_$u7b$$u7b$closure$u7d$$u7d$17h659ceafdf255ccfeE', symObjAddr: 0x40DC, symBinAddr: 0x2B2D0, symSize: 0x84 }
  - { offset: 0xDB2BA, size: 0x8, addend: 0x0, symName: __ZN4pyo34sync9once_lock26init_once_cell_py_attached17h18b336560271845dE, symObjAddr: 0x3A70, symBinAddr: 0x70CF4, symSize: 0xAC }
  - { offset: 0xDB33C, size: 0x8, addend: 0x0, symName: __ZN4pyo34sync9once_lock26init_once_cell_py_attached17h3da054927fb1c253E, symObjAddr: 0x3B1C, symBinAddr: 0x70DA0, symSize: 0xB4 }
  - { offset: 0xDB3BF, size: 0x8, addend: 0x0, symName: __ZN4pyo34sync9once_lock30try_init_once_cell_py_attached17h2ceac5fa87f796eeE, symObjAddr: 0x3CE0, symBinAddr: 0x70E54, symSize: 0xBC }
  - { offset: 0xDBDDD, size: 0x8, addend: 0x0, symName: __ZN4pyo35impl_9pymethods11_call_clear17he6bf2e717a527bb1E, symObjAddr: 0x4B8C, symBinAddr: 0x2B428, symSize: 0x48 }
  - { offset: 0xDBE2E, size: 0x8, addend: 0x0, symName: '__ZN4pyo35impl_9pymethods11_call_clear28_$u7b$$u7b$closure$u7d$$u7d$17h48879f9985bc9cebE', symObjAddr: 0x4BD4, symBinAddr: 0x2B470, symSize: 0x10C }
  - { offset: 0xDBEDC, size: 0x8, addend: 0x0, symName: __ZN4pyo35impl_9pymethods16call_super_clear17h58564cd82cd566d5E, symObjAddr: 0x4CE0, symBinAddr: 0x2B57C, symSize: 0x268 }
  - { offset: 0xDBFB4, size: 0x8, addend: 0x0, symName: __ZN4pyo35impl_9pymethods8BoundRef17habb20fe69c885ee6E, symObjAddr: 0x50F8, symBinAddr: 0x2B834, symSize: 0x14 }
  - { offset: 0xDCA5D, size: 0x8, addend: 0x0, symName: __ZN8pyo3_ffi7cpython11floatobject13_PyFloat_CAST17h6344a158246d2d97E, symObjAddr: 0x581C, symBinAddr: 0x2BB5C, symSize: 0x8C }
  - { offset: 0xDCAD2, size: 0x8, addend: 0x0, symName: __ZN8pyo3_ffi7cpython11floatobject17PyFloat_AS_DOUBLE17h67abba07554e0501E, symObjAddr: 0x58A8, symBinAddr: 0x2BBE8, symSize: 0x78 }
  - { offset: 0xDCDF0, size: 0x8, addend: 0x0, symName: __ZN8pyo3_ffi10modsupport15PyModule_Create17hfb6d2028b1ec123cE, symObjAddr: 0x57F4, symBinAddr: 0x2BB34, symSize: 0x28 }
  - { offset: 0xDD659, size: 0x8, addend: 0x0, symName: '__ZN3std3sys4sync8once_box16OnceBox$LT$T$GT$10initialize17hb7bd28cfa4fa5de3E', symObjAddr: 0x27C, symBinAddr: 0x70C1C, symSize: 0xD8 }
  - { offset: 0xDD830, size: 0x8, addend: 0x0, symName: '__ZN3std3sys4sync8once_box16OnceBox$LT$T$GT$11get_or_init17h16a406d017a1bc23E', symObjAddr: 0x354, symBinAddr: 0x28FB4, symSize: 0xB4 }
  - { offset: 0xDD95E, size: 0x8, addend: 0x0, symName: __ZN3std4sync4once4Once12is_completed17h83ecee1b50eb57d7E, symObjAddr: 0x408, symBinAddr: 0x29068, symSize: 0x38 }
  - { offset: 0xDDA01, size: 0x8, addend: 0x0, symName: __ZN3std4sync4once4Once15call_once_force17h25e2a945ace084ceE, symObjAddr: 0x440, symBinAddr: 0x290A0, symSize: 0xEC }
  - { offset: 0xDDAC6, size: 0x8, addend: 0x0, symName: __ZN3std4sync4once4Once15call_once_force17h38472fd2f93ddfcbE, symObjAddr: 0x52C, symBinAddr: 0x2918C, symSize: 0xD4 }
  - { offset: 0xDDB8B, size: 0x8, addend: 0x0, symName: __ZN3std4sync4once4Once15call_once_force17h71f7f12b78f80843E, symObjAddr: 0x600, symBinAddr: 0x29260, symSize: 0xD4 }
  - { offset: 0xDDC50, size: 0x8, addend: 0x0, symName: __ZN3std4sync4once4Once15call_once_force17hc03de33f68d653d8E, symObjAddr: 0x6D4, symBinAddr: 0x29334, symSize: 0xEC }
  - { offset: 0xDDD15, size: 0x8, addend: 0x0, symName: __ZN3std4sync4once4Once15call_once_force17hdbb0b2f7c403b5ceE, symObjAddr: 0x7C0, symBinAddr: 0x29420, symSize: 0xEC }
  - { offset: 0xDDF18, size: 0x8, addend: 0x0, symName: __ZN3std4sync4once4Once3new17hd41829dcf9d3e3a3E, symObjAddr: 0xB08, symBinAddr: 0x29768, symSize: 0x28 }
  - { offset: 0xDDF90, size: 0x8, addend: 0x0, symName: __ZN3std4sync4once4Once9call_once17h3c04d1c3e2db7750E, symObjAddr: 0xB30, symBinAddr: 0x29790, symSize: 0xD4 }
  - { offset: 0xDE055, size: 0x8, addend: 0x0, symName: __ZN3std4sync4once4Once9call_once17hb37ba389a874d926E, symObjAddr: 0xC04, symBinAddr: 0x29864, symSize: 0xDC }
  - { offset: 0xDE19F, size: 0x8, addend: 0x0, symName: '__ZN3std4sync6poison5mutex14Mutex$LT$T$GT$3new17h03b1ce3e5a93427bE', symObjAddr: 0xDA8, symBinAddr: 0x29A08, symSize: 0x44 }
  - { offset: 0xDE276, size: 0x8, addend: 0x0, symName: '__ZN3std4sync6poison5mutex14Mutex$LT$T$GT$3new17h887b21b1e255e7ecE', symObjAddr: 0xDEC, symBinAddr: 0x29A4C, symSize: 0x60 }
  - { offset: 0xDE37A, size: 0x8, addend: 0x0, symName: '__ZN3std4sync6poison5mutex14Mutex$LT$T$GT$4lock17h4c7fa4cd446fc526E', symObjAddr: 0xE4C, symBinAddr: 0x29AAC, symSize: 0x48 }
  - { offset: 0xDE44C, size: 0x8, addend: 0x0, symName: '__ZN3std4sync6poison5mutex14Mutex$LT$T$GT$4lock17haa0e6cb4d0993b19E', symObjAddr: 0xE94, symBinAddr: 0x29AF4, symSize: 0x48 }
  - { offset: 0xDE51E, size: 0x8, addend: 0x0, symName: '__ZN3std4sync6poison5mutex14Mutex$LT$T$GT$4lock17hcced803602009314E', symObjAddr: 0xEDC, symBinAddr: 0x29B3C, symSize: 0x48 }
  - { offset: 0xDE5BD, size: 0x8, addend: 0x0, symName: __ZN4core3fmt2rt8Argument11new_display17h0f440f28928af2bdE, symObjAddr: 0xF6C, symBinAddr: 0x29BCC, symSize: 0x2C }
  - { offset: 0xDE602, size: 0x8, addend: 0x0, symName: __ZN4core3fmt2rt8Argument11new_display17h19075c8eb79d261bE, symObjAddr: 0xF98, symBinAddr: 0x29BF8, symSize: 0x2C }
  - { offset: 0xDE63A, size: 0x8, addend: 0x0, symName: __ZN4core3fmt2rt8Argument11new_display17h3203749f0cc9b4f3E, symObjAddr: 0xFF0, symBinAddr: 0x29C24, symSize: 0x2C }
  - { offset: 0xDE68C, size: 0x8, addend: 0x0, symName: __ZN4core3fmt2rt8Argument11new_display17h4290f9de719db062E, symObjAddr: 0x1048, symBinAddr: 0x29C50, symSize: 0x2C }
  - { offset: 0xDE6D1, size: 0x8, addend: 0x0, symName: __ZN4core3fmt2rt8Argument11new_display17h6f15ed02f6c6aefdE, symObjAddr: 0x10A0, symBinAddr: 0x29C7C, symSize: 0x2C }
  - { offset: 0xDE723, size: 0x8, addend: 0x0, symName: __ZN4core3fmt2rt8Argument11new_display17h78db86a3519d343eE, symObjAddr: 0x10CC, symBinAddr: 0x29CA8, symSize: 0x2C }
  - { offset: 0xDE74E, size: 0x8, addend: 0x0, symName: __ZN4core3fmt2rt8Argument11new_display17h8736b252fe21ace4E, symObjAddr: 0x10F8, symBinAddr: 0x29CD4, symSize: 0x2C }
  - { offset: 0xDE786, size: 0x8, addend: 0x0, symName: __ZN4core3fmt2rt8Argument11new_display17h89033ab121546a86E, symObjAddr: 0x1124, symBinAddr: 0x29D00, symSize: 0x2C }
  - { offset: 0xDE7B1, size: 0x8, addend: 0x0, symName: __ZN4core3fmt2rt8Argument11new_display17hafb6a486c62d6badE, symObjAddr: 0x1150, symBinAddr: 0x29D2C, symSize: 0x2C }
  - { offset: 0xDE810, size: 0x8, addend: 0x0, symName: __ZN4core3fmt2rt8Argument11new_display17hec5240eb9b0972c8E, symObjAddr: 0x11D4, symBinAddr: 0x29D58, symSize: 0x2C }
  - { offset: 0xDE848, size: 0x8, addend: 0x0, symName: __ZN4core3fmt2rt8Argument11new_display17hf3ba077b59a5c2faE, symObjAddr: 0x1200, symBinAddr: 0x29D84, symSize: 0x2C }
  - { offset: 0xDE880, size: 0x8, addend: 0x0, symName: __ZN4core3fmt2rt8Argument9new_debug17h6b29f460131b8aecE, symObjAddr: 0x122C, symBinAddr: 0x29DB0, symSize: 0x2C }
  - { offset: 0xDEC73, size: 0x8, addend: 0x0, symName: '__ZN4core6option15Option$LT$T$GT$11map_or_else17h54a8a5b503c590d1E', symObjAddr: 0x1B60, symBinAddr: 0x2A004, symSize: 0xC0 }
  - { offset: 0xDED79, size: 0x8, addend: 0x0, symName: '__ZN4core6option15Option$LT$T$GT$11map_or_else17ha46d6e0bfac9ecedE', symObjAddr: 0x1C20, symBinAddr: 0x2A0C4, symSize: 0xC4 }
  - { offset: 0xDEE17, size: 0x8, addend: 0x0, symName: '__ZN4core6option15Option$LT$T$GT$14unwrap_or_else17h0fd88016858c5b10E', symObjAddr: 0x1DAC, symBinAddr: 0x2A188, symSize: 0x6C }
  - { offset: 0xDEE5C, size: 0x8, addend: 0x0, symName: '__ZN4core6option15Option$LT$T$GT$14unwrap_or_else17h6005106edb4a33e9E', symObjAddr: 0x1E18, symBinAddr: 0x2A1F4, symSize: 0x68 }
  - { offset: 0xDEEA1, size: 0x8, addend: 0x0, symName: '__ZN4core6option15Option$LT$T$GT$14unwrap_or_else17hde4b7af4e19a1d89E', symObjAddr: 0x1E80, symBinAddr: 0x2A25C, symSize: 0x58 }
  - { offset: 0xDEEFF, size: 0x8, addend: 0x0, symName: '__ZN4core6option15Option$LT$T$GT$16unwrap_unchecked17h02d0ab3edccffa37E', symObjAddr: 0x1ED8, symBinAddr: 0x2A2B4, symSize: 0x5C }
  - { offset: 0xDEF41, size: 0x8, addend: 0x0, symName: '__ZN4core6option15Option$LT$T$GT$16unwrap_unchecked17h75c048dc6f04f5b5E', symObjAddr: 0x203C, symBinAddr: 0x2A310, symSize: 0x4C }
  - { offset: 0xDEF82, size: 0x8, addend: 0x0, symName: '__ZN4core6option15Option$LT$T$GT$16unwrap_unchecked17h7b1aea298edc8ce4E', symObjAddr: 0x2088, symBinAddr: 0x2A35C, symSize: 0x60 }
  - { offset: 0xDEFC4, size: 0x8, addend: 0x0, symName: '__ZN4core6option15Option$LT$T$GT$16unwrap_unchecked17h870724e4c31d14fbE', symObjAddr: 0x20E8, symBinAddr: 0x2A3BC, symSize: 0x4C }
  - { offset: 0xDF005, size: 0x8, addend: 0x0, symName: '__ZN4core6option15Option$LT$T$GT$16unwrap_unchecked17he9c71fe2195800c1E', symObjAddr: 0x223C, symBinAddr: 0x2A408, symSize: 0x60 }
  - { offset: 0xDF047, size: 0x8, addend: 0x0, symName: '__ZN4core6option15Option$LT$T$GT$16unwrap_unchecked17hf5973593ec60e65dE', symObjAddr: 0x229C, symBinAddr: 0x2A468, symSize: 0x4C }
  - { offset: 0xDF0A6, size: 0x8, addend: 0x0, symName: '__ZN4core6option15Option$LT$T$GT$3map17h0d989997c07234f7E', symObjAddr: 0x233C, symBinAddr: 0x2A4B4, symSize: 0x50 }
  - { offset: 0xDF129, size: 0x8, addend: 0x0, symName: '__ZN4core6option15Option$LT$T$GT$3map17h334d3c7a196bc937E', symObjAddr: 0x238C, symBinAddr: 0x2A504, symSize: 0x7C }
  - { offset: 0xDF194, size: 0x8, addend: 0x0, symName: '__ZN4core6option15Option$LT$T$GT$3map17h5bb90bed9d72580cE', symObjAddr: 0x2408, symBinAddr: 0x2A580, symSize: 0x84 }
  - { offset: 0xDF218, size: 0x8, addend: 0x0, symName: '__ZN4core6option15Option$LT$T$GT$3map17hb43125b05fe08fcbE', symObjAddr: 0x2508, symBinAddr: 0x2A604, symSize: 0x50 }
  - { offset: 0xDF283, size: 0x8, addend: 0x0, symName: '__ZN4core6option15Option$LT$T$GT$3map17hbe2cef46a0a295feE', symObjAddr: 0x2558, symBinAddr: 0x2A654, symSize: 0x50 }
  - { offset: 0xDF2EE, size: 0x8, addend: 0x0, symName: '__ZN4core6option15Option$LT$T$GT$3map17hc20bd08d967891d5E', symObjAddr: 0x25A8, symBinAddr: 0x2A6A4, symSize: 0x78 }
  - { offset: 0xDF359, size: 0x8, addend: 0x0, symName: '__ZN4core6option15Option$LT$T$GT$3map17hd310a4ccc1b947d9E', symObjAddr: 0x2620, symBinAddr: 0x2A71C, symSize: 0x5C }
  - { offset: 0xDF3F4, size: 0x8, addend: 0x0, symName: '__ZN4core6option15Option$LT$T$GT$3map17hefc299b51a1ec027E', symObjAddr: 0x26F8, symBinAddr: 0x2A778, symSize: 0x50 }
  - { offset: 0xDF477, size: 0x8, addend: 0x0, symName: '__ZN4core6option15Option$LT$T$GT$4take17h4fc97810a0fff8b4E', symObjAddr: 0x2880, symBinAddr: 0x2A7C8, symSize: 0x20 }
  - { offset: 0xDF4CE, size: 0x8, addend: 0x0, symName: '__ZN4core6option15Option$LT$T$GT$4take17h9f4399965e0312ccE', symObjAddr: 0x28A0, symBinAddr: 0x2A7E8, symSize: 0x38 }
  - { offset: 0xDF525, size: 0x8, addend: 0x0, symName: '__ZN4core6option15Option$LT$T$GT$4take17hbd962c32d29dc9f0E', symObjAddr: 0x2934, symBinAddr: 0x2A820, symSize: 0x5C }
  - { offset: 0xDF57C, size: 0x8, addend: 0x0, symName: '__ZN4core6option15Option$LT$T$GT$4take17hd99315b92f14074bE', symObjAddr: 0x2990, symBinAddr: 0x2A87C, symSize: 0x3C }
  - { offset: 0xDF5C6, size: 0x8, addend: 0x0, symName: '__ZN4core6option15Option$LT$T$GT$4take17hf8110aa3818b7f30E', symObjAddr: 0x2A08, symBinAddr: 0x2A8B8, symSize: 0x60 }
  - { offset: 0xDF61D, size: 0x8, addend: 0x0, symName: '__ZN4core6option15Option$LT$T$GT$4take17hfc1c3e7b8bcd6751E', symObjAddr: 0x2A68, symBinAddr: 0x2A918, symSize: 0x3C }
  - { offset: 0xDF681, size: 0x8, addend: 0x0, symName: '__ZN4core6option15Option$LT$T$GT$6as_ref17h31ec9313e09963daE', symObjAddr: 0x2B24, symBinAddr: 0x2A954, symSize: 0x4C }
  - { offset: 0xDF6F2, size: 0x8, addend: 0x0, symName: '__ZN4core6option15Option$LT$T$GT$6as_ref17h7035c896c28c8e66E', symObjAddr: 0x2BBC, symBinAddr: 0x2A9A0, symSize: 0x4C }
  - { offset: 0xDF749, size: 0x8, addend: 0x0, symName: '__ZN4core6option15Option$LT$T$GT$6as_ref17h9252f153ab3247f5E', symObjAddr: 0x2C54, symBinAddr: 0x2A9EC, symSize: 0x4C }
  - { offset: 0xDF7A0, size: 0x8, addend: 0x0, symName: '__ZN4core6option15Option$LT$T$GT$6as_ref17hbe92bfbc8945075fE', symObjAddr: 0x2CA0, symBinAddr: 0x2AA38, symSize: 0x4C }
  - { offset: 0xDF7F7, size: 0x8, addend: 0x0, symName: '__ZN4core6option15Option$LT$T$GT$6as_ref17hc84d14ec90b8abe4E', symObjAddr: 0x2CEC, symBinAddr: 0x2AA84, symSize: 0x4C }
  - { offset: 0xDF84E, size: 0x8, addend: 0x0, symName: '__ZN4core6option15Option$LT$T$GT$6as_ref17he5659c460646454eE', symObjAddr: 0x2D84, symBinAddr: 0x2AAD0, symSize: 0x4C }
  - { offset: 0xDF898, size: 0x8, addend: 0x0, symName: '__ZN4core6option15Option$LT$T$GT$6expect17h8c8f0ce14fb3d71bE', symObjAddr: 0x2DD0, symBinAddr: 0x2AB1C, symSize: 0x5C }
  - { offset: 0xDF8D3, size: 0x8, addend: 0x0, symName: '__ZN4core6option15Option$LT$T$GT$6expect17hd2593cf16bdef67aE', symObjAddr: 0x2E2C, symBinAddr: 0x2AB78, symSize: 0x60 }
  - { offset: 0xDF927, size: 0x8, addend: 0x0, symName: '__ZN4core6option15Option$LT$T$GT$6map_or17h329fd84fd80a789dE', symObjAddr: 0x2E8C, symBinAddr: 0x2ABD8, symSize: 0x9C }
  - { offset: 0xDF9B1, size: 0x8, addend: 0x0, symName: '__ZN4core6option15Option$LT$T$GT$6map_or17h8c471d89786a63b2E', symObjAddr: 0x2F28, symBinAddr: 0x2AC74, symSize: 0xA8 }
  - { offset: 0xDFA3B, size: 0x8, addend: 0x0, symName: '__ZN4core6option15Option$LT$T$GT$6map_or17he46f580caceaa80aE', symObjAddr: 0x306C, symBinAddr: 0x2AD1C, symSize: 0x9C }
  - { offset: 0xDFAD6, size: 0x8, addend: 0x0, symName: '__ZN4core6option15Option$LT$T$GT$7is_none17h6d74c3b4abce591bE', symObjAddr: 0x3154, symBinAddr: 0x2ADB8, symSize: 0x28 }
  - { offset: 0xDFB3C, size: 0x8, addend: 0x0, symName: '__ZN4core6option15Option$LT$T$GT$7is_none17h918646b6b6bbb6f9E', symObjAddr: 0x317C, symBinAddr: 0x2ADE0, symSize: 0x28 }
  - { offset: 0xDFB93, size: 0x8, addend: 0x0, symName: '__ZN4core6option15Option$LT$T$GT$7is_some17h4e172ff427b83e72E', symObjAddr: 0x31CC, symBinAddr: 0x2AE08, symSize: 0x28 }
  - { offset: 0xDFBCC, size: 0x8, addend: 0x0, symName: '__ZN4core6option15Option$LT$T$GT$7is_some17h8ded1685675a83b9E', symObjAddr: 0x31F4, symBinAddr: 0x2AE30, symSize: 0x28 }
  - { offset: 0xDFC05, size: 0x8, addend: 0x0, symName: '__ZN4core6option15Option$LT$T$GT$7replace17h25fc5bc9266b1c56E', symObjAddr: 0x321C, symBinAddr: 0x2AE58, symSize: 0x24 }
  - { offset: 0xDFC5E, size: 0x8, addend: 0x0, symName: '__ZN4core6option15Option$LT$T$GT$9unwrap_or17h4dd24c19965a4722E', symObjAddr: 0x3288, symBinAddr: 0x2AE7C, symSize: 0x68 }
  - { offset: 0xDFC99, size: 0x8, addend: 0x0, symName: '__ZN4core6option15Option$LT$T$GT$9unwrap_or17ha6fc22fc93a457b7E', symObjAddr: 0x32F0, symBinAddr: 0x2AEE4, symSize: 0x48 }
  - { offset: 0xDFCDB, size: 0x8, addend: 0x0, symName: '__ZN4pyo34sync9once_lock19PyOnceLock$LT$T$GT$11get_or_init17h6beff5f25c55cd20E', symObjAddr: 0x33FC, symBinAddr: 0x2AF2C, symSize: 0xB0 }
  - { offset: 0xDFD37, size: 0x8, addend: 0x0, symName: '__ZN4pyo34sync9once_lock19PyOnceLock$LT$T$GT$11get_or_init17hab9497fa0618bedcE', symObjAddr: 0x34AC, symBinAddr: 0x2AFDC, symSize: 0xA8 }
  - { offset: 0xDFD92, size: 0x8, addend: 0x0, symName: '__ZN4pyo34sync9once_lock19PyOnceLock$LT$T$GT$15get_or_try_init17he2a71d2ab1a2240fE', symObjAddr: 0x3844, symBinAddr: 0x2B0E4, symSize: 0xB0 }
  - { offset: 0xDFDF6, size: 0x8, addend: 0x0, symName: __ZN4pyo35impl_9pymethods11PyMethodDef8into_raw17hb0968a7d7b7efcd0E, symObjAddr: 0x4A78, symBinAddr: 0x2B354, symSize: 0xD4 }
  - { offset: 0xDFE9A, size: 0x8, addend: 0x0, symName: '__ZN4pyo35impl_9pymethods39BoundRef$LT$pyo3..types..any..PyAny$GT$12ref_from_ptr17h9ad658151e0e88bdE', symObjAddr: 0x5084, symBinAddr: 0x2B7E4, symSize: 0x24 }
  - { offset: 0xDFEE5, size: 0x8, addend: 0x0, symName: '__ZN4pyo35impl_9pymethods39BoundRef$LT$pyo3..types..any..PyAny$GT$19ref_from_ptr_or_opt17h1b3f26e01e7d69c0E', symObjAddr: 0x50CC, symBinAddr: 0x2B808, symSize: 0x2C }
  - { offset: 0xDFF30, size: 0x8, addend: 0x0, symName: __ZN4pyo35types4none6PyNone3get17h03f870b495ba6e7bE, symObjAddr: 0x510C, symBinAddr: 0x2B848, symSize: 0x24 }
  - { offset: 0xE02B2, size: 0x8, addend: 0x0, symName: '__ZN102_$LT$$RF$mut$u20$alloc..vec..Vec$LT$T$C$A$GT$$u20$as$u20$core..iter..traits..collect..IntoIterator$GT$9into_iter17h3d6adedce2b12785E', symObjAddr: 0x0, symBinAddr: 0x2BCB4, symSize: 0xA4 }
  - { offset: 0xE2C2F, size: 0x8, addend: 0x0, symName: '__ZN31_$LT$dyn$u20$core..any..Any$GT$12downcast_ref17h4872a63a17249cebE', symObjAddr: 0xA24, symBinAddr: 0x2C5A8, symSize: 0xA4 }
  - { offset: 0xE2D20, size: 0x8, addend: 0x0, symName: '__ZN31_$LT$dyn$u20$core..any..Any$GT$12downcast_ref17h8962d2f8e4cee431E', symObjAddr: 0xAC8, symBinAddr: 0x2C64C, symSize: 0xA4 }
  - { offset: 0xE2E8B, size: 0x8, addend: 0x0, symName: '__ZN54_$LT$dyn$u20$core..any..Any$u2b$core..marker..Send$GT$12downcast_ref17h2035af7d8e36a639E', symObjAddr: 0xFF4, symBinAddr: 0x2C6F0, symSize: 0x2C }
  - { offset: 0xE2EC2, size: 0x8, addend: 0x0, symName: '__ZN54_$LT$dyn$u20$core..any..Any$u2b$core..marker..Send$GT$12downcast_ref17h820328bf7e3b25abE', symObjAddr: 0x1020, symBinAddr: 0x2C71C, symSize: 0x2C }
  - { offset: 0xE4FAE, size: 0x8, addend: 0x0, symName: '__ZN102_$LT$$RF$mut$u20$alloc..vec..Vec$LT$T$C$A$GT$$u20$as$u20$core..iter..traits..collect..IntoIterator$GT$9into_iter17h3d6adedce2b12785E', symObjAddr: 0x0, symBinAddr: 0x2BCB4, symSize: 0xA4 }
  - { offset: 0xE5414, size: 0x8, addend: 0x0, symName: '__ZN111_$LT$alloc..vec..Vec$LT$T$GT$$u20$as$u20$alloc..vec..spec_from_iter_nested..SpecFromIterNested$LT$T$C$I$GT$$GT$9from_iter17h30d52c6d33826963E', symObjAddr: 0xA4, symBinAddr: 0x2BD58, symSize: 0x24C }
  - { offset: 0xE5673, size: 0x8, addend: 0x0, symName: '__ZN111_$LT$alloc..vec..Vec$LT$T$GT$$u20$as$u20$alloc..vec..spec_from_iter_nested..SpecFromIterNested$LT$T$C$I$GT$$GT$9from_iter17h91c57fbc7dc34124E', symObjAddr: 0x420, symBinAddr: 0x2BFA4, symSize: 0x244 }
  - { offset: 0xE58D1, size: 0x8, addend: 0x0, symName: '__ZN111_$LT$alloc..vec..Vec$LT$T$GT$$u20$as$u20$alloc..vec..spec_from_iter_nested..SpecFromIterNested$LT$T$C$I$GT$$GT$9from_iter17he57c294c4d48ac00E', symObjAddr: 0x664, symBinAddr: 0x2C1E8, symSize: 0x24C }
  - { offset: 0xE5FCA, size: 0x8, addend: 0x0, symName: '__ZN112_$LT$alloc..vec..Vec$LT$T$C$A$GT$..retain_mut..BackshiftOnDrop$LT$T$C$A$GT$$u20$as$u20$core..ops..drop..Drop$GT$4drop17h324db32d48a5f16dE', symObjAddr: 0x8B0, symBinAddr: 0x2C434, symSize: 0x174 }
  - { offset: 0xE61DD, size: 0x8, addend: 0x0, symName: '__ZN5alloc3vec16Vec$LT$T$C$A$GT$10retain_mut12process_loop17h8a7baba26d425726E', symObjAddr: 0x1120, symBinAddr: 0x2C81C, symSize: 0xCC }
  - { offset: 0xE6331, size: 0x8, addend: 0x0, symName: '__ZN5alloc3vec16Vec$LT$T$C$A$GT$10retain_mut12process_loop17h9ebdc7be0ea2b291E', symObjAddr: 0x11EC, symBinAddr: 0x2C8E8, symSize: 0x16C }
  - { offset: 0xE6586, size: 0x8, addend: 0x0, symName: '__ZN5alloc3vec16Vec$LT$T$C$A$GT$6retain28_$u7b$$u7b$closure$u7d$$u7d$17h2cf9e042dcc4c64aE', symObjAddr: 0x25C4, symBinAddr: 0x2D84C, symSize: 0x30 }
  - { offset: 0xE65E7, size: 0x8, addend: 0x0, symName: '__ZN5alloc3vec16Vec$LT$T$C$A$GT$7set_len18precondition_check17h48743e72d899d663E', symObjAddr: 0x27EC, symBinAddr: 0x2D9CC, symSize: 0x60 }
  - { offset: 0xE6D8A, size: 0x8, addend: 0x0, symName: '__ZN67_$LT$alloc..vec..Vec$LT$T$GT$$u20$as$u20$core..default..Default$GT$7default17h3e20cf0d86bfd1abE', symObjAddr: 0x3318, symBinAddr: 0x2E2D8, symSize: 0x14 }
  - { offset: 0xE6DAC, size: 0x8, addend: 0x0, symName: '__ZN67_$LT$alloc..vec..Vec$LT$T$GT$$u20$as$u20$core..default..Default$GT$7default17h3e20cf0d86bfd1abE', symObjAddr: 0x3318, symBinAddr: 0x2E2D8, symSize: 0x14 }
  - { offset: 0xE6DC7, size: 0x8, addend: 0x0, symName: '__ZN67_$LT$alloc..vec..Vec$LT$T$GT$$u20$as$u20$core..default..Default$GT$7default17h8a1c8fa24f071af4E', symObjAddr: 0x332C, symBinAddr: 0x2E2EC, symSize: 0x14 }
  - { offset: 0xE6DE9, size: 0x8, addend: 0x0, symName: '__ZN67_$LT$alloc..vec..Vec$LT$T$GT$$u20$as$u20$core..default..Default$GT$7default17h8a1c8fa24f071af4E', symObjAddr: 0x332C, symBinAddr: 0x2E2EC, symSize: 0x14 }
  - { offset: 0xE6E04, size: 0x8, addend: 0x0, symName: '__ZN67_$LT$alloc..vec..Vec$LT$T$GT$$u20$as$u20$core..default..Default$GT$7default17hbdf6a3ca723ee9a7E', symObjAddr: 0x3340, symBinAddr: 0x2E300, symSize: 0x14 }
  - { offset: 0xE6E26, size: 0x8, addend: 0x0, symName: '__ZN67_$LT$alloc..vec..Vec$LT$T$GT$$u20$as$u20$core..default..Default$GT$7default17hbdf6a3ca723ee9a7E', symObjAddr: 0x3340, symBinAddr: 0x2E300, symSize: 0x14 }
  - { offset: 0xE6E41, size: 0x8, addend: 0x0, symName: '__ZN67_$LT$alloc..vec..Vec$LT$T$GT$$u20$as$u20$core..default..Default$GT$7default17hfb5bdaffbc77d490E', symObjAddr: 0x3354, symBinAddr: 0x2E314, symSize: 0x14 }
  - { offset: 0xE6E63, size: 0x8, addend: 0x0, symName: '__ZN67_$LT$alloc..vec..Vec$LT$T$GT$$u20$as$u20$core..default..Default$GT$7default17hfb5bdaffbc77d490E', symObjAddr: 0x3354, symBinAddr: 0x2E314, symSize: 0x14 }
  - { offset: 0xE6E84, size: 0x8, addend: 0x0, symName: '__ZN70_$LT$alloc..vec..Vec$LT$T$C$A$GT$$u20$as$u20$core..ops..drop..Drop$GT$4drop17h2ee09d4a681def49E', symObjAddr: 0x3368, symBinAddr: 0x2E328, symSize: 0x38 }
  - { offset: 0xE6F34, size: 0x8, addend: 0x0, symName: '__ZN70_$LT$alloc..vec..Vec$LT$T$C$A$GT$$u20$as$u20$core..ops..drop..Drop$GT$4drop17h3c83a8becf831688E', symObjAddr: 0x33A0, symBinAddr: 0x2E360, symSize: 0x38 }
  - { offset: 0xE6FE4, size: 0x8, addend: 0x0, symName: '__ZN70_$LT$alloc..vec..Vec$LT$T$C$A$GT$$u20$as$u20$core..ops..drop..Drop$GT$4drop17h487ac76c270b6e06E', symObjAddr: 0x33D8, symBinAddr: 0x2E398, symSize: 0x24 }
  - { offset: 0xE7094, size: 0x8, addend: 0x0, symName: '__ZN70_$LT$alloc..vec..Vec$LT$T$C$A$GT$$u20$as$u20$core..ops..drop..Drop$GT$4drop17h50f58d7035f261baE', symObjAddr: 0x3420, symBinAddr: 0x2E3BC, symSize: 0x24 }
  - { offset: 0xE7144, size: 0x8, addend: 0x0, symName: '__ZN70_$LT$alloc..vec..Vec$LT$T$C$A$GT$$u20$as$u20$core..ops..drop..Drop$GT$4drop17h746981c83c393984E', symObjAddr: 0x3444, symBinAddr: 0x2E3E0, symSize: 0x24 }
  - { offset: 0xE71F4, size: 0x8, addend: 0x0, symName: '__ZN70_$LT$alloc..vec..Vec$LT$T$C$A$GT$$u20$as$u20$core..ops..drop..Drop$GT$4drop17hc67358dac422344cE', symObjAddr: 0x348C, symBinAddr: 0x2E404, symSize: 0x24 }
  - { offset: 0xE72A4, size: 0x8, addend: 0x0, symName: '__ZN70_$LT$alloc..vec..Vec$LT$T$C$A$GT$$u20$as$u20$core..ops..drop..Drop$GT$4drop17hd6e8fcfee8379f69E', symObjAddr: 0x34B0, symBinAddr: 0x2E428, symSize: 0x38 }
  - { offset: 0xE7354, size: 0x8, addend: 0x0, symName: '__ZN70_$LT$alloc..vec..Vec$LT$T$C$A$GT$$u20$as$u20$core..ops..drop..Drop$GT$4drop17hfed39d9e0c790c1fE', symObjAddr: 0x34E8, symBinAddr: 0x2E460, symSize: 0x24 }
  - { offset: 0xE7404, size: 0x8, addend: 0x0, symName: '__ZN70_$LT$alloc..vec..Vec$LT$T$C$A$GT$$u20$as$u20$core..ops..drop..Drop$GT$4drop17hff6cfd95a1661f3eE', symObjAddr: 0x350C, symBinAddr: 0x2E484, symSize: 0x24 }
  - { offset: 0xE74BA, size: 0x8, addend: 0x0, symName: '__ZN72_$LT$alloc..vec..Vec$LT$T$C$A$GT$$u20$as$u20$core..ops..deref..Deref$GT$5deref17hd2a070b64cbd8fcaE', symObjAddr: 0x3554, symBinAddr: 0x2E4A8, symSize: 0x24 }
  - { offset: 0xE74FA, size: 0x8, addend: 0x0, symName: '__ZN72_$LT$alloc..vec..Vec$LT$T$C$A$GT$$u20$as$u20$core..ops..deref..Deref$GT$5deref17hec9b658707ae5546E', symObjAddr: 0x3578, symBinAddr: 0x2E4CC, symSize: 0x24 }
  - { offset: 0xE7540, size: 0x8, addend: 0x0, symName: '__ZN90_$LT$alloc..vec..Vec$LT$T$C$A$GT$$u20$as$u20$core..iter..traits..collect..IntoIterator$GT$9into_iter17h85bb0a79ff9a5344E', symObjAddr: 0x3648, symBinAddr: 0x2E4F0, symSize: 0x98 }
  - { offset: 0xE7723, size: 0x8, addend: 0x0, symName: '__ZN90_$LT$alloc..vec..Vec$LT$T$C$A$GT$$u20$as$u20$core..iter..traits..collect..IntoIterator$GT$9into_iter17hce51a331a2476c90E', symObjAddr: 0x36E0, symBinAddr: 0x2E588, symSize: 0x98 }
  - { offset: 0xE7906, size: 0x8, addend: 0x0, symName: '__ZN90_$LT$alloc..vec..Vec$LT$T$C$A$GT$$u20$as$u20$core..iter..traits..collect..IntoIterator$GT$9into_iter17he755806ff4e6208bE', symObjAddr: 0x3778, symBinAddr: 0x2E620, symSize: 0xA0 }
  - { offset: 0xE7AEF, size: 0x8, addend: 0x0, symName: '__ZN95_$LT$alloc..vec..Vec$LT$T$GT$$u20$as$u20$core..iter..traits..collect..FromIterator$LT$T$GT$$GT$9from_iter17h7fec9901a59e824bE', symObjAddr: 0x3860, symBinAddr: 0x2E6C0, symSize: 0x34 }
  - { offset: 0xE7B30, size: 0x8, addend: 0x0, symName: '__ZN95_$LT$alloc..vec..Vec$LT$T$GT$$u20$as$u20$core..iter..traits..collect..FromIterator$LT$T$GT$$GT$9from_iter17h95d2b8d04d00b015E', symObjAddr: 0x3894, symBinAddr: 0x2E6F4, symSize: 0x34 }
  - { offset: 0xE7B71, size: 0x8, addend: 0x0, symName: '__ZN95_$LT$alloc..vec..Vec$LT$T$GT$$u20$as$u20$core..iter..traits..collect..FromIterator$LT$T$GT$$GT$9from_iter17hc1473c8c41847a1aE', symObjAddr: 0x38C8, symBinAddr: 0x2E728, symSize: 0x34 }
  - { offset: 0xE7BBD, size: 0x8, addend: 0x0, symName: '__ZN97_$LT$alloc..vec..Vec$LT$T$C$A$GT$$u20$as$u20$alloc..vec..spec_extend..SpecExtend$LT$T$C$I$GT$$GT$11spec_extend17h03a4bfb1f09688b6E', symObjAddr: 0x391C, symBinAddr: 0x2E75C, symSize: 0x24 }
  - { offset: 0xE7C0F, size: 0x8, addend: 0x0, symName: '__ZN97_$LT$alloc..vec..Vec$LT$T$C$A$GT$$u20$as$u20$alloc..vec..spec_extend..SpecExtend$LT$T$C$I$GT$$GT$11spec_extend17h23b970c0675b7b93E', symObjAddr: 0x3940, symBinAddr: 0x2E780, symSize: 0x24 }
  - { offset: 0xE7C61, size: 0x8, addend: 0x0, symName: '__ZN97_$LT$alloc..vec..Vec$LT$T$C$A$GT$$u20$as$u20$alloc..vec..spec_extend..SpecExtend$LT$T$C$I$GT$$GT$11spec_extend17hcb887aad80980821E', symObjAddr: 0x3964, symBinAddr: 0x2E7A4, symSize: 0x24 }
  - { offset: 0xE7CBF, size: 0x8, addend: 0x0, symName: '__ZN98_$LT$alloc..vec..Vec$LT$T$GT$$u20$as$u20$alloc..vec..spec_from_iter..SpecFromIter$LT$T$C$I$GT$$GT$9from_iter17h652dcf0052fb3778E', symObjAddr: 0x39B4, symBinAddr: 0x2E7C8, symSize: 0x14 }
  - { offset: 0xE7CFE, size: 0x8, addend: 0x0, symName: '__ZN98_$LT$alloc..vec..Vec$LT$T$GT$$u20$as$u20$alloc..vec..spec_from_iter..SpecFromIter$LT$T$C$I$GT$$GT$9from_iter17h82a423f2dded300eE', symObjAddr: 0x39C8, symBinAddr: 0x2E7DC, symSize: 0x14 }
  - { offset: 0xE7D3D, size: 0x8, addend: 0x0, symName: '__ZN98_$LT$alloc..vec..Vec$LT$T$GT$$u20$as$u20$alloc..vec..spec_from_iter..SpecFromIter$LT$T$C$I$GT$$GT$9from_iter17ha502fa458a37643bE', symObjAddr: 0x3A00, symBinAddr: 0x2E7F0, symSize: 0x14 }
  - { offset: 0xE7ECD, size: 0x8, addend: 0x0, symName: '__ZN5alloc6string104_$LT$impl$u20$core..convert..From$LT$alloc..string..String$GT$$u20$for$u20$alloc..vec..Vec$LT$u8$GT$$GT$4from17hebe334a2a388c724E', symObjAddr: 0x3300, symBinAddr: 0x2E2C0, symSize: 0x18 }
  - { offset: 0xE8CE9, size: 0x8, addend: 0x0, symName: '__ZN5alloc3vec12Vec$LT$T$GT$13with_capacity17he8b379819d296c23E', symObjAddr: 0x104C, symBinAddr: 0x2C748, symSize: 0x44 }
  - { offset: 0xE8DA6, size: 0x8, addend: 0x0, symName: '__ZN5alloc3vec12Vec$LT$T$GT$3new17h51977cf103e3d0bdE', symObjAddr: 0x1090, symBinAddr: 0x2C78C, symSize: 0x14 }
  - { offset: 0xE8E0B, size: 0x8, addend: 0x0, symName: '__ZN5alloc3vec12Vec$LT$T$GT$3new17h597cff45954bbf18E', symObjAddr: 0x10A4, symBinAddr: 0x2C7A0, symSize: 0x14 }
  - { offset: 0xE8E28, size: 0x8, addend: 0x0, symName: '__ZN5alloc3vec12Vec$LT$T$GT$3new17h66054f4ee8f8ad8fE', symObjAddr: 0x10B8, symBinAddr: 0x2C7B4, symSize: 0x14 }
  - { offset: 0xE8E45, size: 0x8, addend: 0x0, symName: '__ZN5alloc3vec12Vec$LT$T$GT$3new17h90c58244d36cf55dE', symObjAddr: 0x10CC, symBinAddr: 0x2C7C8, symSize: 0x14 }
  - { offset: 0xE8E62, size: 0x8, addend: 0x0, symName: '__ZN5alloc3vec12Vec$LT$T$GT$3new17hc346182dfbb463c0E', symObjAddr: 0x10E0, symBinAddr: 0x2C7DC, symSize: 0x14 }
  - { offset: 0xE8E7F, size: 0x8, addend: 0x0, symName: '__ZN5alloc3vec12Vec$LT$T$GT$3new17hdf34da8ae5b2ef20E', symObjAddr: 0x10F4, symBinAddr: 0x2C7F0, symSize: 0x14 }
  - { offset: 0xE8EE7, size: 0x8, addend: 0x0, symName: '__ZN5alloc3vec16Vec$LT$T$C$A$GT$10as_mut_ptr17hafa4f31061f49e17E', symObjAddr: 0x1108, symBinAddr: 0x2C804, symSize: 0x18 }
  - { offset: 0xE9160, size: 0x8, addend: 0x0, symName: '__ZN5alloc3vec16Vec$LT$T$C$A$GT$10retain_mut17h9a57c294b239149fE', symObjAddr: 0x1358, symBinAddr: 0x2CA54, symSize: 0x120 }
  - { offset: 0xE93D9, size: 0x8, addend: 0x0, symName: '__ZN5alloc3vec16Vec$LT$T$C$A$GT$13shrink_to_fit17h4eb278feae3001ecE', symObjAddr: 0x1478, symBinAddr: 0x2CB74, symSize: 0xC8 }
  - { offset: 0xE95FB, size: 0x8, addend: 0x0, symName: '__ZN5alloc3vec16Vec$LT$T$C$A$GT$13shrink_to_fit17h54d4b3a9be05d0deE', symObjAddr: 0x1540, symBinAddr: 0x2CC3C, symSize: 0xC8 }
  - { offset: 0xE97F6, size: 0x8, addend: 0x0, symName: '__ZN5alloc3vec16Vec$LT$T$C$A$GT$13shrink_to_fit17h8a0fa3a71ccf93b2E', symObjAddr: 0x16D0, symBinAddr: 0x2CD04, symSize: 0xC8 }
  - { offset: 0xE9A93, size: 0x8, addend: 0x0, symName: '__ZN5alloc3vec16Vec$LT$T$C$A$GT$16extend_desugared17h7babd2c7f7b270c3E', symObjAddr: 0x18FC, symBinAddr: 0x2CDCC, symSize: 0x1C4 }
  - { offset: 0xE9FF3, size: 0x8, addend: 0x0, symName: '__ZN5alloc3vec16Vec$LT$T$C$A$GT$16extend_desugared17h7e9e42d7131fabefE', symObjAddr: 0x1AC0, symBinAddr: 0x2CF90, symSize: 0x1C8 }
  - { offset: 0xEA3F7, size: 0x8, addend: 0x0, symName: '__ZN5alloc3vec16Vec$LT$T$C$A$GT$16extend_desugared17hc54b9dc11fc6204dE', symObjAddr: 0x1C88, symBinAddr: 0x2D158, symSize: 0x1C4 }
  - { offset: 0xEA7FB, size: 0x8, addend: 0x0, symName: '__ZN5alloc3vec16Vec$LT$T$C$A$GT$16into_boxed_slice17h66467956f72a67e0E', symObjAddr: 0x1F58, symBinAddr: 0x2D31C, symSize: 0x10C }
  - { offset: 0xEAAF2, size: 0x8, addend: 0x0, symName: '__ZN5alloc3vec16Vec$LT$T$C$A$GT$16into_boxed_slice17ha45b2a90f561a52aE', symObjAddr: 0x2064, symBinAddr: 0x2D428, symSize: 0x10C }
  - { offset: 0xEADE9, size: 0x8, addend: 0x0, symName: '__ZN5alloc3vec16Vec$LT$T$C$A$GT$16into_boxed_slice17hb0a0a27a7c4522c9E', symObjAddr: 0x2170, symBinAddr: 0x2D534, symSize: 0x10C }
  - { offset: 0xEAFA4, size: 0x8, addend: 0x0, symName: '__ZN5alloc3vec16Vec$LT$T$C$A$GT$4push17h0365248046e0b5b8E', symObjAddr: 0x23B8, symBinAddr: 0x2D640, symSize: 0x24 }
  - { offset: 0xEAFE9, size: 0x8, addend: 0x0, symName: '__ZN5alloc3vec16Vec$LT$T$C$A$GT$4push17h20cddd15a1210541E', symObjAddr: 0x23DC, symBinAddr: 0x2D664, symSize: 0x30 }
  - { offset: 0xEB02D, size: 0x8, addend: 0x0, symName: '__ZN5alloc3vec16Vec$LT$T$C$A$GT$4push17h600fdbf3b2383c8aE', symObjAddr: 0x240C, symBinAddr: 0x2D694, symSize: 0x24 }
  - { offset: 0xEB07F, size: 0x8, addend: 0x0, symName: '__ZN5alloc3vec16Vec$LT$T$C$A$GT$4push17h7f3958db35c3ffa7E', symObjAddr: 0x2430, symBinAddr: 0x2D6B8, symSize: 0x24 }
  - { offset: 0xEB0C4, size: 0x8, addend: 0x0, symName: '__ZN5alloc3vec16Vec$LT$T$C$A$GT$4push17h91a5592a1b107616E', symObjAddr: 0x2454, symBinAddr: 0x2D6DC, symSize: 0x28 }
  - { offset: 0xEB115, size: 0x8, addend: 0x0, symName: '__ZN5alloc3vec16Vec$LT$T$C$A$GT$4push17hb1a6c975220cf178E', symObjAddr: 0x247C, symBinAddr: 0x2D704, symSize: 0x2C }
  - { offset: 0xEB159, size: 0x8, addend: 0x0, symName: '__ZN5alloc3vec16Vec$LT$T$C$A$GT$4push17hc42a52e639f53d16E', symObjAddr: 0x24A8, symBinAddr: 0x2D730, symSize: 0x30 }
  - { offset: 0xEB19D, size: 0x8, addend: 0x0, symName: '__ZN5alloc3vec16Vec$LT$T$C$A$GT$4push17hea63176ba3fac302E', symObjAddr: 0x24D8, symBinAddr: 0x2D760, symSize: 0x24 }
  - { offset: 0xEB2AE, size: 0x8, addend: 0x0, symName: '__ZN5alloc3vec16Vec$LT$T$C$A$GT$5clear17h9da1b848778c906bE', symObjAddr: 0x24FC, symBinAddr: 0x2D784, symSize: 0x7C }
  - { offset: 0xEB3B9, size: 0x8, addend: 0x0, symName: '__ZN5alloc3vec16Vec$LT$T$C$A$GT$6retain17h9a2490dec519afddE', symObjAddr: 0x2578, symBinAddr: 0x2D800, symSize: 0x4C }
  - { offset: 0xEB51C, size: 0x8, addend: 0x0, symName: '__ZN5alloc3vec16Vec$LT$T$C$A$GT$7reserve17h09a23ec289405f20E', symObjAddr: 0x25F4, symBinAddr: 0x2D87C, symSize: 0xA8 }
  - { offset: 0xEB780, size: 0x8, addend: 0x0, symName: '__ZN5alloc3vec16Vec$LT$T$C$A$GT$7reserve17h191af287bce0fba1E', symObjAddr: 0x269C, symBinAddr: 0x2D924, symSize: 0xA8 }
  - { offset: 0xEB994, size: 0x8, addend: 0x0, symName: '__ZN5alloc3vec16Vec$LT$T$C$A$GT$8as_slice17ha9e052ea1f8424cfE', symObjAddr: 0x28B4, symBinAddr: 0x2DA2C, symSize: 0x68 }
  - { offset: 0xEBAE5, size: 0x8, addend: 0x0, symName: '__ZN5alloc3vec16Vec$LT$T$C$A$GT$8as_slice17hc2973c5c9e77dd1fE', symObjAddr: 0x291C, symBinAddr: 0x2DA94, symSize: 0x6C }
  - { offset: 0xEBBD1, size: 0x8, addend: 0x0, symName: '__ZN5alloc3vec16Vec$LT$T$C$A$GT$8is_empty17h51aaef3b302956b4E', symObjAddr: 0x2988, symBinAddr: 0x2DB00, symSize: 0x20 }
  - { offset: 0xEBC49, size: 0x8, addend: 0x0, symName: '__ZN5alloc3vec16Vec$LT$T$C$A$GT$8is_empty17h7b5db44fc4ee52b5E', symObjAddr: 0x29A8, symBinAddr: 0x2DB20, symSize: 0x20 }
  - { offset: 0xEBCC1, size: 0x8, addend: 0x0, symName: '__ZN5alloc3vec16Vec$LT$T$C$A$GT$8is_empty17h92bb45bc391837aeE', symObjAddr: 0x29C8, symBinAddr: 0x2DB40, symSize: 0x20 }
  - { offset: 0xEBD39, size: 0x8, addend: 0x0, symName: '__ZN5alloc3vec16Vec$LT$T$C$A$GT$8is_empty17habc7963019a94f4fE', symObjAddr: 0x29E8, symBinAddr: 0x2DB60, symSize: 0x20 }
  - { offset: 0xEBDB1, size: 0x8, addend: 0x0, symName: '__ZN5alloc3vec16Vec$LT$T$C$A$GT$8is_empty17hc41628f1e6bb231bE', symObjAddr: 0x2A08, symBinAddr: 0x2DB80, symSize: 0x20 }
  - { offset: 0xEBEFE, size: 0x8, addend: 0x0, symName: '__ZN5alloc3vec16Vec$LT$T$C$A$GT$8push_mut17h0d2b5f2077601e21E', symObjAddr: 0x2A28, symBinAddr: 0x2DBA0, symSize: 0xF8 }
  - { offset: 0xEC183, size: 0x8, addend: 0x0, symName: '__ZN5alloc3vec16Vec$LT$T$C$A$GT$8push_mut17h1c6afb0ea35106c8E', symObjAddr: 0x2B20, symBinAddr: 0x2DC98, symSize: 0xDC }
  - { offset: 0xEC3FD, size: 0x8, addend: 0x0, symName: '__ZN5alloc3vec16Vec$LT$T$C$A$GT$8push_mut17h2618af70fa5ee842E', symObjAddr: 0x2BFC, symBinAddr: 0x2DD74, symSize: 0xF8 }
  - { offset: 0xEC668, size: 0x8, addend: 0x0, symName: '__ZN5alloc3vec16Vec$LT$T$C$A$GT$8push_mut17h3b3dbf72bb1ebbc7E', symObjAddr: 0x2CF4, symBinAddr: 0x2DE6C, symSize: 0xE0 }
  - { offset: 0xEC8D3, size: 0x8, addend: 0x0, symName: '__ZN5alloc3vec16Vec$LT$T$C$A$GT$8push_mut17h580abf563d195000E', symObjAddr: 0x2DD4, symBinAddr: 0x2DF4C, symSize: 0xCC }
  - { offset: 0xECB71, size: 0x8, addend: 0x0, symName: '__ZN5alloc3vec16Vec$LT$T$C$A$GT$8push_mut17h71b01d6b8e082835E', symObjAddr: 0x2EA0, symBinAddr: 0x2E018, symSize: 0xD0 }
  - { offset: 0xECE0F, size: 0x8, addend: 0x0, symName: '__ZN5alloc3vec16Vec$LT$T$C$A$GT$8push_mut17hac76e9c894677930E', symObjAddr: 0x2F70, symBinAddr: 0x2E0E8, symSize: 0xE4 }
  - { offset: 0xED0AF, size: 0x8, addend: 0x0, symName: '__ZN5alloc3vec16Vec$LT$T$C$A$GT$8push_mut17hc8b18a7c085baa79E', symObjAddr: 0x3054, symBinAddr: 0x2E1CC, symSize: 0xF4 }
  - { offset: 0xEDBAE, size: 0x8, addend: 0x0, symName: '__ZN45_$LT$T$u20$as$u20$alloc..string..ToString$GT$9to_string17h62bbd88f5150f740E', symObjAddr: 0x1458, symBinAddr: 0x2F3CC, symSize: 0x24 }
  - { offset: 0xEDBE5, size: 0x8, addend: 0x0, symName: '__ZN45_$LT$T$u20$as$u20$alloc..string..ToString$GT$9to_string17hcb9a73944cf60ffbE', symObjAddr: 0x147C, symBinAddr: 0x2F3F0, symSize: 0x24 }
  - { offset: 0xEDC22, size: 0x8, addend: 0x0, symName: '__ZN49_$LT$T$u20$as$u20$alloc..string..SpecToString$GT$14spec_to_string17h34f504d7e57da428E', symObjAddr: 0x14D8, symBinAddr: 0x2F414, symSize: 0xF4 }
  - { offset: 0xEDCEC, size: 0x8, addend: 0x0, symName: '__ZN49_$LT$T$u20$as$u20$alloc..string..SpecToString$GT$14spec_to_string17he5ee73b2bc970355E', symObjAddr: 0x15CC, symBinAddr: 0x2F508, symSize: 0xF4 }
  - { offset: 0xEDE65, size: 0x8, addend: 0x0, symName: '__ZN63_$LT$alloc..alloc..Global$u20$as$u20$core..alloc..Allocator$GT$10deallocate17hda140042f6acf830E', symObjAddr: 0x38BC, symBinAddr: 0x30828, symSize: 0x58 }
  - { offset: 0xEDF4A, size: 0x8, addend: 0x0, symName: '__ZN63_$LT$alloc..alloc..Global$u20$as$u20$core..alloc..Allocator$GT$6shrink17h3c744ebd70eb533dE', symObjAddr: 0x3914, symBinAddr: 0x30880, symSize: 0x37C }
  - { offset: 0xEE532, size: 0x8, addend: 0x0, symName: '__ZN63_$LT$alloc..alloc..Global$u20$as$u20$core..alloc..Allocator$GT$8allocate17h198fe358a1d4528cE', symObjAddr: 0x3C90, symBinAddr: 0x30BFC, symSize: 0x34 }
  - { offset: 0xEE56D, size: 0x8, addend: 0x0, symName: __ZN5alloc5alloc15exchange_malloc17h8bc37efcba77c793E, symObjAddr: 0x2A58, symBinAddr: 0x2FBE8, symSize: 0xAC }
  - { offset: 0xEED92, size: 0x8, addend: 0x0, symName: '__ZN77_$LT$alloc..raw_vec..RawVec$LT$T$C$A$GT$$u20$as$u20$core..ops..drop..Drop$GT$4drop17h03184f76754c1fa0E', symObjAddr: 0x3E30, symBinAddr: 0x30CA8, symSize: 0x34 }
  - { offset: 0xEEDCE, size: 0x8, addend: 0x0, symName: '__ZN77_$LT$alloc..raw_vec..RawVec$LT$T$C$A$GT$$u20$as$u20$core..ops..drop..Drop$GT$4drop17h4724336c634546c2E', symObjAddr: 0x3E64, symBinAddr: 0x30CDC, symSize: 0x34 }
  - { offset: 0xEEE0A, size: 0x8, addend: 0x0, symName: '__ZN77_$LT$alloc..raw_vec..RawVec$LT$T$C$A$GT$$u20$as$u20$core..ops..drop..Drop$GT$4drop17h568e3106f38a4828E', symObjAddr: 0x3E98, symBinAddr: 0x30D10, symSize: 0x34 }
  - { offset: 0xEEE46, size: 0x8, addend: 0x0, symName: '__ZN77_$LT$alloc..raw_vec..RawVec$LT$T$C$A$GT$$u20$as$u20$core..ops..drop..Drop$GT$4drop17h6e1ac8ec80d569e6E', symObjAddr: 0x3F00, symBinAddr: 0x30D44, symSize: 0x34 }
  - { offset: 0xEEE82, size: 0x8, addend: 0x0, symName: '__ZN77_$LT$alloc..raw_vec..RawVec$LT$T$C$A$GT$$u20$as$u20$core..ops..drop..Drop$GT$4drop17h7ecd3ce3cb56b725E', symObjAddr: 0x3F34, symBinAddr: 0x30D78, symSize: 0x34 }
  - { offset: 0xEEEBE, size: 0x8, addend: 0x0, symName: '__ZN77_$LT$alloc..raw_vec..RawVec$LT$T$C$A$GT$$u20$as$u20$core..ops..drop..Drop$GT$4drop17h8b6a0238ffcda1fdE', symObjAddr: 0x3F68, symBinAddr: 0x30DAC, symSize: 0x34 }
  - { offset: 0xEEEFA, size: 0x8, addend: 0x0, symName: '__ZN77_$LT$alloc..raw_vec..RawVec$LT$T$C$A$GT$$u20$as$u20$core..ops..drop..Drop$GT$4drop17h93750e8c86002568E', symObjAddr: 0x3FCC, symBinAddr: 0x30DE0, symSize: 0x34 }
  - { offset: 0xEEF36, size: 0x8, addend: 0x0, symName: '__ZN77_$LT$alloc..raw_vec..RawVec$LT$T$C$A$GT$$u20$as$u20$core..ops..drop..Drop$GT$4drop17ha537a232de576c5fE', symObjAddr: 0x4000, symBinAddr: 0x30E14, symSize: 0x30 }
  - { offset: 0xEEF72, size: 0x8, addend: 0x0, symName: '__ZN77_$LT$alloc..raw_vec..RawVec$LT$T$C$A$GT$$u20$as$u20$core..ops..drop..Drop$GT$4drop17hcb2f1589d86870b6E', symObjAddr: 0x4030, symBinAddr: 0x30E44, symSize: 0x34 }
  - { offset: 0xF1391, size: 0x8, addend: 0x0, symName: '__ZN102_$LT$core..iter..adapters..zip..Zip$LT$A$C$B$GT$$u20$as$u20$core..iter..traits..iterator..Iterator$GT$4next17h95f07c6b53ae2d9eE', symObjAddr: 0x4C, symBinAddr: 0x2E804, symSize: 0x24 }
  - { offset: 0xF13CF, size: 0x8, addend: 0x0, symName: '__ZN102_$LT$core..iter..adapters..zip..Zip$LT$A$C$B$GT$$u20$as$u20$core..iter..traits..iterator..Iterator$GT$4next17ha3bfcfbd15257f71E', symObjAddr: 0x70, symBinAddr: 0x2E828, symSize: 0x24 }
  - { offset: 0xF140D, size: 0x8, addend: 0x0, symName: '__ZN102_$LT$core..iter..adapters..zip..Zip$LT$A$C$B$GT$$u20$as$u20$core..iter..traits..iterator..Iterator$GT$9size_hint17h3fe0d3b7aed337a7E', symObjAddr: 0x94, symBinAddr: 0x2E84C, symSize: 0x24 }
  - { offset: 0xF144B, size: 0x8, addend: 0x0, symName: '__ZN102_$LT$core..iter..adapters..zip..Zip$LT$A$C$B$GT$$u20$as$u20$core..iter..traits..iterator..Iterator$GT$9size_hint17hb71a1c788ba6d088E', symObjAddr: 0xB8, symBinAddr: 0x2E870, symSize: 0x24 }
  - { offset: 0xF148F, size: 0x8, addend: 0x0, symName: '__ZN111_$LT$core..iter..adapters..zip..Zip$LT$A$C$B$GT$$u20$as$u20$core..iter..adapters..zip..ZipImpl$LT$A$C$B$GT$$GT$3new17he2e3417c4bc498afE', symObjAddr: 0x274, symBinAddr: 0x2E8D0, symSize: 0xBC }
  - { offset: 0xF1522, size: 0x8, addend: 0x0, symName: '__ZN111_$LT$core..iter..adapters..zip..Zip$LT$A$C$B$GT$$u20$as$u20$core..iter..adapters..zip..ZipImpl$LT$A$C$B$GT$$GT$4next17he9e37daf335ab3bbE', symObjAddr: 0x5C4, symBinAddr: 0x2EA6C, symSize: 0xB0 }
  - { offset: 0xF1578, size: 0x8, addend: 0x0, symName: '__ZN111_$LT$core..iter..adapters..zip..Zip$LT$A$C$B$GT$$u20$as$u20$core..iter..adapters..zip..ZipImpl$LT$A$C$B$GT$$GT$9size_hint17hfee48820ecea044cE', symObjAddr: 0x7D4, symBinAddr: 0x2EC48, symSize: 0x34 }
  - { offset: 0xF15BE, size: 0x8, addend: 0x0, symName: '__ZN111_$LT$core..iter..adapters..zip..Zip$LT$A$C$B$GT$$u20$as$u20$core..iter..adapters..zip..ZipImpl$LT$A$C$B$GT$$GT$3new17hba5156a8ffe2b57cE', symObjAddr: 0x238, symBinAddr: 0x2E894, symSize: 0x3C }
  - { offset: 0xF160A, size: 0x8, addend: 0x0, symName: '__ZN111_$LT$core..iter..adapters..zip..Zip$LT$A$C$B$GT$$u20$as$u20$core..iter..adapters..zip..ZipImpl$LT$A$C$B$GT$$GT$4next17h5637cb470c1f2ac2E', symObjAddr: 0x410, symBinAddr: 0x2E98C, symSize: 0xE0 }
  - { offset: 0xF176B, size: 0x8, addend: 0x0, symName: '__ZN111_$LT$core..iter..adapters..zip..Zip$LT$A$C$B$GT$$u20$as$u20$core..iter..adapters..zip..ZipImpl$LT$A$C$B$GT$$GT$9size_hint17hb92568fc87fed7e5E', symObjAddr: 0x6A8, symBinAddr: 0x2EB1C, symSize: 0x12C }
  - { offset: 0xF1A54, size: 0x8, addend: 0x0, symName: __ZN4core4iter6traits8iterator8Iterator10filter_map17h8d1139ba3b579e34E, symObjAddr: 0x1AC8, symBinAddr: 0x2F614, symSize: 0x30 }
  - { offset: 0xF1AC2, size: 0x8, addend: 0x0, symName: __ZN4core4iter6traits8iterator8Iterator10filter_map17hf300d57d1212c896E, symObjAddr: 0x1AF8, symBinAddr: 0x2F644, symSize: 0x30 }
  - { offset: 0xF1B30, size: 0x8, addend: 0x0, symName: __ZN4core4iter6traits8iterator8Iterator8find_map17h79e59088596cc0b1E, symObjAddr: 0x1BE4, symBinAddr: 0x2F674, symSize: 0x8C }
  - { offset: 0xF1BB8, size: 0x8, addend: 0x0, symName: __ZN4core4iter6traits8iterator8Iterator8find_map17h823d827a03702bb2E, symObjAddr: 0x1C70, symBinAddr: 0x2F700, symSize: 0x8C }
  - { offset: 0xF1C40, size: 0x8, addend: 0x0, symName: __ZN4core4iter6traits8iterator8Iterator8try_fold17he64130cdea1c088cE, symObjAddr: 0x1CFC, symBinAddr: 0x2F78C, symSize: 0x190 }
  - { offset: 0xF1CF6, size: 0x8, addend: 0x0, symName: __ZN4core4iter6traits8iterator8Iterator8try_fold17hea7f1223e7ed35eaE, symObjAddr: 0x1E8C, symBinAddr: 0x2F91C, symSize: 0x190 }
  - { offset: 0xF368E, size: 0x8, addend: 0x0, symName: __ZN4core3str8converts19from_utf8_unchecked17h655c098db13412abE, symObjAddr: 0x1AB0, symBinAddr: 0x2F5FC, symSize: 0x18 }
  - { offset: 0xF376E, size: 0x8, addend: 0x0, symName: '__ZN4core5slice29_$LT$impl$u20$$u5b$T$u5d$$GT$4iter17hc6c1d0a8a1349b45E', symObjAddr: 0x231C, symBinAddr: 0x2FAAC, symSize: 0x28 }
  - { offset: 0xF37A5, size: 0x8, addend: 0x0, symName: '__ZN4core5slice29_$LT$impl$u20$$u5b$T$u5d$$GT$8is_empty17hbd30f7bf6f52a8d0E', symObjAddr: 0x2344, symBinAddr: 0x2FAD4, symSize: 0x1C }
  - { offset: 0xF3A60, size: 0x8, addend: 0x0, symName: '__ZN78_$LT$$u21$$u20$as$u20$std..sys..thread_local..native..lazy..DestroyedState$GT$13register_dtor17h7fb4d71dc4c4bc12E', symObjAddr: 0x4064, symBinAddr: 0x30E78, symSize: 0x10 }
  - { offset: 0xF4278, size: 0x8, addend: 0x0, symName: '__ZN96_$LT$pyo3..pycell..impl_..BorrowChecker$u20$as$u20$pyo3..pycell..impl_..PyClassBorrowChecker$GT$10try_borrow17h289d394985771bb9E', symObjAddr: 0x4490, symBinAddr: 0x30EB8, symSize: 0x24 }
  - { offset: 0xF42A4, size: 0x8, addend: 0x0, symName: '__ZN96_$LT$pyo3..pycell..impl_..BorrowChecker$u20$as$u20$pyo3..pycell..impl_..PyClassBorrowChecker$GT$14release_borrow17hf80e19241b4b0f3dE', symObjAddr: 0x44B4, symBinAddr: 0x30EDC, symSize: 0x24 }
  - { offset: 0xF42CC, size: 0x8, addend: 0x0, symName: '__ZN96_$LT$pyo3..pycell..impl_..BorrowChecker$u20$as$u20$pyo3..pycell..impl_..PyClassBorrowChecker$GT$14try_borrow_mut17hffa3cc549229f0deE', symObjAddr: 0x44D8, symBinAddr: 0x30F00, symSize: 0x64 }
  - { offset: 0xF4315, size: 0x8, addend: 0x0, symName: '__ZN96_$LT$pyo3..pycell..impl_..BorrowChecker$u20$as$u20$pyo3..pycell..impl_..PyClassBorrowChecker$GT$18release_borrow_mut17hfb37f7087a4d3ac3E', symObjAddr: 0x453C, symBinAddr: 0x30F64, symSize: 0x2C }
  - { offset: 0xF4359, size: 0x8, addend: 0x0, symName: '__ZN66_$LT$pyo3..pycell..PyBorrowError$u20$as$u20$core..fmt..Display$GT$3fmt17hf5dcb34791d14ec5E', symObjAddr: 0x3D68, symBinAddr: 0x30C30, symSize: 0x3C }
  - { offset: 0xF439C, size: 0x8, addend: 0x0, symName: '__ZN69_$LT$pyo3..pycell..PyBorrowMutError$u20$as$u20$core..fmt..Display$GT$3fmt17h000497792d7cb7eaE', symObjAddr: 0x3DF4, symBinAddr: 0x30C6C, symSize: 0x3C }
  - { offset: 0xF4D62, size: 0x8, addend: 0x0, symName: __ZN8pyo3_ffi13unicodeobject15PyUnicode_Check17ha4ddae55435eaf58E, symObjAddr: 0x423C, symBinAddr: 0x30E88, symSize: 0x30 }
  - { offset: 0xF531D, size: 0x8, addend: 0x0, symName: '__ZN3std3sys12thread_local6native4lazy20Storage$LT$T$C$D$GT$11get_or_init17h40a11a57ccb7215fE', symObjAddr: 0x808, symBinAddr: 0x2EC7C, symSize: 0x94 }
  - { offset: 0xF5539, size: 0x8, addend: 0x0, symName: '__ZN3std3sys12thread_local6native4lazy20Storage$LT$T$C$D$GT$16get_or_init_slow17hcdfd8f50d069e51dE', symObjAddr: 0x89C, symBinAddr: 0x70F10, symSize: 0x1D8 }
  - { offset: 0xF5843, size: 0x8, addend: 0x0, symName: '__ZN3std6thread5local17LocalKey$LT$T$GT$4with17h319f39e84e62cd7dE', symObjAddr: 0xA74, symBinAddr: 0x2ED10, symSize: 0x48 }
  - { offset: 0xF58D3, size: 0x8, addend: 0x0, symName: '__ZN3std6thread5local17LocalKey$LT$T$GT$4with17h504b118233d91813E', symObjAddr: 0xABC, symBinAddr: 0x2ED58, symSize: 0x50 }
  - { offset: 0xF593E, size: 0x8, addend: 0x0, symName: '__ZN3std6thread5local17LocalKey$LT$T$GT$4with17h63039b4a85060f62E', symObjAddr: 0xB0C, symBinAddr: 0x2EDA8, symSize: 0x4C }
  - { offset: 0xF59F7, size: 0x8, addend: 0x0, symName: '__ZN3std6thread5local17LocalKey$LT$T$GT$8try_with17h118f77322fc4af74E', symObjAddr: 0xCD8, symBinAddr: 0x2EDF4, symSize: 0xCC }
  - { offset: 0xF5B78, size: 0x8, addend: 0x0, symName: '__ZN3std6thread5local17LocalKey$LT$T$GT$8try_with17h13faf8671efad380E', symObjAddr: 0xDA4, symBinAddr: 0x2EEC0, symSize: 0xCC }
  - { offset: 0xF5D00, size: 0x8, addend: 0x0, symName: '__ZN3std6thread5local17LocalKey$LT$T$GT$8try_with17h4f4ec437afc06c90E', symObjAddr: 0x1018, symBinAddr: 0x2EF8C, symSize: 0xD8 }
  - { offset: 0xF5E8F, size: 0x8, addend: 0x0, symName: '__ZN3std6thread5local17LocalKey$LT$T$GT$8try_with17h63327eab21bd4c16E', symObjAddr: 0x10F0, symBinAddr: 0x2F064, symSize: 0xE8 }
  - { offset: 0xF6011, size: 0x8, addend: 0x0, symName: '__ZN3std6thread5local17LocalKey$LT$T$GT$8try_with17hee519e0e95f612beE', symObjAddr: 0x11D8, symBinAddr: 0x2F14C, symSize: 0xD8 }
  - { offset: 0xF6193, size: 0x8, addend: 0x0, symName: '__ZN3std6thread5local17LocalKey$LT$T$GT$8try_with17hf982eea317c47ca4E', symObjAddr: 0x12B0, symBinAddr: 0x2F224, symSize: 0xD8 }
  - { offset: 0xF6315, size: 0x8, addend: 0x0, symName: '__ZN3std6thread5local17LocalKey$LT$T$GT$8try_with17hfb03c0fc244083a3E', symObjAddr: 0x1388, symBinAddr: 0x2F2FC, symSize: 0xD0 }
  - { offset: 0xF663B, size: 0x8, addend: 0x0, symName: __ZN4pyo36pycell5impl_10BorrowFlag9decrement17h81213fae4f50555aE, symObjAddr: 0x2928, symBinAddr: 0x2FAF0, symSize: 0x30 }
  - { offset: 0xF665D, size: 0x8, addend: 0x0, symName: __ZN4pyo36pycell5impl_10BorrowFlag9increment17hd636673d0fd65cf6E, symObjAddr: 0x2958, symBinAddr: 0x2FB20, symSize: 0xC8 }
  - { offset: 0xF6800, size: 0x8, addend: 0x0, symName: __ZN5alloc5alloc6Global10alloc_impl17hc29a38111337a548E, symObjAddr: 0x2B04, symBinAddr: 0x2FC94, symSize: 0x198 }
  - { offset: 0xF6BEC, size: 0x8, addend: 0x0, symName: '__ZN5alloc7raw_vec19RawVec$LT$T$C$A$GT$8grow_one17h245684f0a3d320e8E', symObjAddr: 0x2C9C, symBinAddr: 0x2FE2C, symSize: 0x88 }
  - { offset: 0xF6CE3, size: 0x8, addend: 0x0, symName: '__ZN5alloc7raw_vec19RawVec$LT$T$C$A$GT$8grow_one17h2e9071538e9e6e71E', symObjAddr: 0x2D24, symBinAddr: 0x2FEB4, symSize: 0x88 }
  - { offset: 0xF6DE1, size: 0x8, addend: 0x0, symName: '__ZN5alloc7raw_vec19RawVec$LT$T$C$A$GT$8grow_one17hb5ac896736dd2b73E', symObjAddr: 0x2DAC, symBinAddr: 0x2FF3C, symSize: 0x88 }
  - { offset: 0xF6E93, size: 0x8, addend: 0x0, symName: '__ZN5alloc7raw_vec19RawVec$LT$T$C$A$GT$8grow_one17hc05447fe215f5852E', symObjAddr: 0x2E34, symBinAddr: 0x2FFC4, symSize: 0x88 }
  - { offset: 0xF6F45, size: 0x8, addend: 0x0, symName: '__ZN5alloc7raw_vec19RawVec$LT$T$C$A$GT$8grow_one17hcb1bf763625c7d78E', symObjAddr: 0x2EBC, symBinAddr: 0x3004C, symSize: 0x88 }
  - { offset: 0xF6FF7, size: 0x8, addend: 0x0, symName: '__ZN5alloc7raw_vec19RawVec$LT$T$C$A$GT$8grow_one17hcd2f44cb8be61e65E', symObjAddr: 0x2F44, symBinAddr: 0x300D4, symSize: 0x88 }
  - { offset: 0xF70A9, size: 0x8, addend: 0x0, symName: '__ZN5alloc7raw_vec19RawVec$LT$T$C$A$GT$8grow_one17hfe338fcd48cf0265E', symObjAddr: 0x2FCC, symBinAddr: 0x3015C, symSize: 0x84 }
  - { offset: 0xF715B, size: 0x8, addend: 0x0, symName: '__ZN5alloc7raw_vec19RawVec$LT$T$C$A$GT$8grow_one17hfea0b7b993c73f0fE', symObjAddr: 0x3050, symBinAddr: 0x301E0, symSize: 0x84 }
  - { offset: 0xF736F, size: 0x8, addend: 0x0, symName: '__ZN5alloc7raw_vec19RawVec$LT$T$C$A$GT$8into_box17h141ecd6c9172c0e3E', symObjAddr: 0x3150, symBinAddr: 0x30264, symSize: 0x7C }
  - { offset: 0xF769C, size: 0x8, addend: 0x0, symName: '__ZN5alloc7raw_vec19RawVec$LT$T$C$A$GT$8into_box17h462fc5b241e88585E', symObjAddr: 0x31CC, symBinAddr: 0x302E0, symSize: 0x7C }
  - { offset: 0xF79C9, size: 0x8, addend: 0x0, symName: '__ZN5alloc7raw_vec19RawVec$LT$T$C$A$GT$8into_box17ha4e0507be34ebb2dE', symObjAddr: 0x3248, symBinAddr: 0x3035C, symSize: 0x7C }
  - { offset: 0xF7BED, size: 0x8, addend: 0x0, symName: '__ZN5alloc7raw_vec20RawVecInner$LT$A$GT$14current_memory17h0abf297418f508deE', symObjAddr: 0x3334, symBinAddr: 0x303D8, symSize: 0x108 }
  - { offset: 0xF7E1A, size: 0x8, addend: 0x0, symName: '__ZN5alloc7raw_vec20RawVecInner$LT$A$GT$16shrink_unchecked17h0ca5f80f3ad747b8E', symObjAddr: 0x3544, symBinAddr: 0x304E0, symSize: 0x290 }
  - { offset: 0xF816B, size: 0x8, addend: 0x0, symName: '__ZN5alloc7raw_vec20RawVecInner$LT$A$GT$6shrink17h85d6c364577e549cE', symObjAddr: 0x37D4, symBinAddr: 0x30770, symSize: 0xB8 }
  - { offset: 0xF8896, size: 0x8, addend: 0x0, symName: '__ZN103_$LT$pyo3..instance..Bound$LT$pyo3..types..any..PyAny$GT$$u20$as$u20$pyo3..types..any..PyAnyMethods$GT$7getattr5inner17hb6cd1f740acbe0adE', symObjAddr: 0xBC4, symBinAddr: 0x30F90, symSize: 0x6C }
  - { offset: 0xF88D9, size: 0x8, addend: 0x0, symName: '__ZN103_$LT$pyo3..instance..Bound$LT$pyo3..types..any..PyAny$GT$$u20$as$u20$pyo3..types..any..PyAnyMethods$GT$7setattr5inner17ha431c7445389beccE', symObjAddr: 0xD98, symBinAddr: 0x30FFC, symSize: 0x7C }
  - { offset: 0xF892C, size: 0x8, addend: 0x0, symName: '__ZN73_$LT$pyo3..types..any..PyAny$u20$as$u20$pyo3..type_object..PyTypeInfo$GT$15type_object_raw17hde2b728119db206dE', symObjAddr: 0x7EBC, symBinAddr: 0x32B90, symSize: 0x24 }
  - { offset: 0xF8968, size: 0x8, addend: 0x0, symName: '__ZN73_$LT$pyo3..types..any..PyAny$u20$as$u20$pyo3..type_object..PyTypeInfo$GT$15type_object_raw28_$u7b$$u7b$closure$u7d$$u7d$17h9ff84e96ae750752E', symObjAddr: 0x7EE0, symBinAddr: 0x32BB4, symSize: 0x18 }
  - { offset: 0xF89F7, size: 0x8, addend: 0x0, symName: __ZN4pyo35types4dict8dict_len17h378dafa4faad9202E, symObjAddr: 0x43B4, symBinAddr: 0x31A4C, symSize: 0x80 }
  - { offset: 0xF8A35, size: 0x8, addend: 0x0, symName: '__ZN107_$LT$pyo3..instance..Bound$LT$pyo3..types..list..PyList$GT$$u20$as$u20$pyo3..types..list..PyListMethods$GT$6append5inner17h646000f2cc662f16E', symObjAddr: 0x1698, symBinAddr: 0x31078, symSize: 0x60 }
  - { offset: 0xF8AA3, size: 0x8, addend: 0x0, symName: '__ZN75_$LT$pyo3..types..list..PyList$u20$as$u20$pyo3..type_object..PyTypeInfo$GT$10is_type_of17h4c870295cfa79a33E', symObjAddr: 0x7F64, symBinAddr: 0x32BCC, symSize: 0x30 }
  - { offset: 0xF8ACF, size: 0x8, addend: 0x0, symName: '__ZN75_$LT$pyo3..types..list..PyList$u20$as$u20$pyo3..type_object..PyTypeInfo$GT$15type_object_raw17h6ae5c2e4b88f95abE', symObjAddr: 0x7F94, symBinAddr: 0x32BFC, symSize: 0x24 }
  - { offset: 0xF8B0B, size: 0x8, addend: 0x0, symName: '__ZN75_$LT$pyo3..types..list..PyList$u20$as$u20$pyo3..type_object..PyTypeInfo$GT$15type_object_raw28_$u7b$$u7b$closure$u7d$$u7d$17h538adec0a98e9d7eE', symObjAddr: 0x7FB8, symBinAddr: 0x32C20, symSize: 0x18 }
  - { offset: 0xF8C76, size: 0x8, addend: 0x0, symName: __ZN4pyo35types5tuple16array_into_tuple17h30265a82171bbb2aE, symObjAddr: 0x44D8, symBinAddr: 0x31AFC, symSize: 0x200 }
  - { offset: 0xF8D8F, size: 0x8, addend: 0x0, symName: '__ZN4pyo35types5tuple74_$LT$impl$u20$pyo3..conversion..IntoPyObject$u20$for$u20$$LP$T0$C$$RP$$GT$13into_pyobject17h6a0379c933b9ed4eE', symObjAddr: 0x6668, symBinAddr: 0x31DEC, symSize: 0xCC }
  - { offset: 0xF8E09, size: 0x8, addend: 0x0, symName: '__ZN77_$LT$pyo3..types..tuple..PyTuple$u20$as$u20$pyo3..type_object..PyTypeInfo$GT$10is_type_of17he7f6a4e04031ecb2E', symObjAddr: 0x8118, symBinAddr: 0x32C94, symSize: 0x30 }
  - { offset: 0xF8E35, size: 0x8, addend: 0x0, symName: '__ZN77_$LT$pyo3..types..tuple..PyTuple$u20$as$u20$pyo3..type_object..PyTypeInfo$GT$15type_object_raw17hc4abad3951e2248aE', symObjAddr: 0x8148, symBinAddr: 0x32CC4, symSize: 0x24 }
  - { offset: 0xF8E71, size: 0x8, addend: 0x0, symName: '__ZN77_$LT$pyo3..types..tuple..PyTuple$u20$as$u20$pyo3..type_object..PyTypeInfo$GT$15type_object_raw28_$u7b$$u7b$closure$u7d$$u7d$17h2f6e3e50c081738eE', symObjAddr: 0x816C, symBinAddr: 0x32CE8, symSize: 0x18 }
  - { offset: 0xF8EC0, size: 0x8, addend: 0x0, symName: '__ZN97_$LT$pyo3..types..tuple..BoundTupleIterator$u20$as$u20$core..iter..traits..iterator..Iterator$GT$4next17h17db89881743d0d2E', symObjAddr: 0x8CD4, symBinAddr: 0x331CC, symSize: 0xD0 }
  - { offset: 0xF8F3F, size: 0x8, addend: 0x0, symName: '__ZN81_$LT$pyo3..types..typeobject..PyType$u20$as$u20$pyo3..type_object..PyTypeInfo$GT$10is_type_of17h165f1dcd5bc6a345E', symObjAddr: 0x85D4, symBinAddr: 0x32DB8, symSize: 0x30 }
  - { offset: 0xF8F6B, size: 0x8, addend: 0x0, symName: '__ZN81_$LT$pyo3..types..typeobject..PyType$u20$as$u20$pyo3..type_object..PyTypeInfo$GT$15type_object_raw17hd73e840e873522e9E', symObjAddr: 0x8604, symBinAddr: 0x32DE8, symSize: 0x24 }
  - { offset: 0xF8FA7, size: 0x8, addend: 0x0, symName: '__ZN81_$LT$pyo3..types..typeobject..PyType$u20$as$u20$pyo3..type_object..PyTypeInfo$GT$15type_object_raw28_$u7b$$u7b$closure$u7d$$u7d$17h0a0fb322ffbae017E', symObjAddr: 0x8628, symBinAddr: 0x32E0C, symSize: 0x18 }
  - { offset: 0xF9034, size: 0x8, addend: 0x0, symName: '__ZN4pyo38internal5state12ATTACH_COUNT29_$u7b$$u7b$constant$u7d$$u7d$28_$u7b$$u7b$closure$u7d$$u7d$23__RUST_STD_INTERNAL_VAL17haa9ee396452d17baE', symObjAddr: 0xAD88, symBinAddr: 0xB4F20, symSize: 0x0 }
  - { offset: 0xF9043, size: 0x8, addend: 0x0, symName: '__ZN4pyo38internal5state12ATTACH_COUNT29_$u7b$$u7b$constant$u7d$$u7d$28_$u7b$$u7b$closure$u7d$$u7d$17hbe8902e152cc46afE', symObjAddr: 0x6EA0, symBinAddr: 0x320B0, symSize: 0x30 }
  - { offset: 0xF908B, size: 0x8, addend: 0x0, symName: __ZN4pyo38internal5state4POOL17h38dad52ab11e3cabE, symObjAddr: 0xADA0, symBinAddr: 0xB4528, symSize: 0x0 }
  - { offset: 0xF91BA, size: 0x8, addend: 0x0, symName: '__ZN4pyo38internal5state11AttachGuard10try_attach28_$u7b$$u7b$closure$u7d$$u7d$17h8aef750dee415666E', symObjAddr: 0x6CF4, symBinAddr: 0x31F94, symSize: 0x24 }
  - { offset: 0xF9240, size: 0x8, addend: 0x0, symName: '__ZN4pyo38internal5state13SuspendAttach3new28_$u7b$$u7b$closure$u7d$$u7d$17hcf329b28416c8bf9E', symObjAddr: 0x74A4, symBinAddr: 0x326B4, symSize: 0x28 }
  - { offset: 0xF92CC, size: 0x8, addend: 0x0, symName: __ZN4pyo38internal5state15register_decref17h1b5e00d2c09615acE, symObjAddr: 0x759C, symBinAddr: 0x326DC, symSize: 0x2C }
  - { offset: 0xF92FB, size: 0x8, addend: 0x0, symName: '__ZN4pyo38internal5state18thread_is_attached28_$u7b$$u7b$closure$u7d$$u7d$17h1d02a9c68ebf99faE', symObjAddr: 0x761C, symBinAddr: 0x32708, symSize: 0x2C }
  - { offset: 0xF933E, size: 0x8, addend: 0x0, symName: '__ZN4pyo38internal5state22decrement_attach_count28_$u7b$$u7b$closure$u7d$$u7d$17hcc1900395311d8bcE', symObjAddr: 0x7648, symBinAddr: 0x32734, symSize: 0x8C }
  - { offset: 0xF9396, size: 0x8, addend: 0x0, symName: '__ZN4pyo38internal5state22increment_attach_count28_$u7b$$u7b$closure$u7d$$u7d$17hfac39a733a99ec8eE', symObjAddr: 0x76D4, symBinAddr: 0x327C0, symSize: 0x74 }
  - { offset: 0xF93E9, size: 0x8, addend: 0x0, symName: __ZN4pyo38internal5state24drop_deferred_references17h7922eb6417a5299fE, symObjAddr: 0x7748, symBinAddr: 0x32834, symSize: 0x4C }
  - { offset: 0xF9439, size: 0x8, addend: 0x0, symName: __ZN4pyo38internal5state8get_pool17h56d922804b47e97eE, symObjAddr: 0x7794, symBinAddr: 0x32880, symSize: 0x1C }
  - { offset: 0xF9468, size: 0x8, addend: 0x0, symName: '__ZN76_$LT$pyo3..internal..state..AttachGuard$u20$as$u20$core..ops..drop..Drop$GT$4drop17h8e524bfb93b4a282E', symObjAddr: 0x7FD0, symBinAddr: 0x32C38, symSize: 0x5C }
  - { offset: 0xF94C7, size: 0x8, addend: 0x0, symName: '__ZN78_$LT$pyo3..internal..state..SuspendAttach$u20$as$u20$core..ops..drop..Drop$GT$4drop17h31f95ada74d47481E', symObjAddr: 0x8184, symBinAddr: 0x32D00, symSize: 0x80 }
  - { offset: 0xF9512, size: 0x8, addend: 0x0, symName: '__ZN78_$LT$pyo3..internal..state..SuspendAttach$u20$as$u20$core..ops..drop..Drop$GT$4drop28_$u7b$$u7b$closure$u7d$$u7d$17h31529b11698f4330E', symObjAddr: 0x8204, symBinAddr: 0x32D80, symSize: 0x38 }
  - { offset: 0xF9657, size: 0x8, addend: 0x0, symName: __ZN4pyo35impl_7pyclass30get_sequence_item_from_mapping17h58f8f369879e9620E, symObjAddr: 0x35C4, symBinAddr: 0x315BC, symSize: 0x210 }
  - { offset: 0xF9711, size: 0x8, addend: 0x0, symName: __ZN4pyo35impl_7pyclass33assign_sequence_item_from_mapping17h4a5c335e121b59c7E, symObjAddr: 0x37D4, symBinAddr: 0x317CC, symSize: 0x24C }
  - { offset: 0xF97D2, size: 0x8, addend: 0x0, symName: '__ZN97_$LT$pyo3..impl_..pyclass..PyClassItemsIter$u20$as$u20$core..iter..traits..iterator..Iterator$GT$4next17hd4c5812bbd451f1fE', symObjAddr: 0x8C04, symBinAddr: 0x330FC, symSize: 0xD0 }
  - { offset: 0xF9A98, size: 0x8, addend: 0x0, symName: __ZN4pyo311type_object10PyTypeInfo11type_object17h8aeff05c46f8d5eeE, symObjAddr: 0x2FAC, symBinAddr: 0x314D4, symSize: 0x30 }
  - { offset: 0xF9AD8, size: 0x8, addend: 0x0, symName: __ZN4pyo311type_object10PyTypeInfo11type_object17h979342be8aff00c0E, symObjAddr: 0x2FDC, symBinAddr: 0x31504, symSize: 0x30 }
  - { offset: 0xF9B18, size: 0x8, addend: 0x0, symName: __ZN4pyo311type_object10PyTypeInfo11type_object17ha194b94ee7fc69b3E, symObjAddr: 0x300C, symBinAddr: 0x31534, symSize: 0x30 }
  - { offset: 0xF9B58, size: 0x8, addend: 0x0, symName: __ZN4pyo311type_object10PyTypeInfo11type_object17hc83813a351fe3cc0E, symObjAddr: 0x303C, symBinAddr: 0x31564, symSize: 0x30 }
  - { offset: 0xF9B9E, size: 0x8, addend: 0x0, symName: '__ZN52_$LT$T$u20$as$u20$pyo3..type_object..PyTypeCheck$GT$10type_check17h110fff33cfaf9481E', symObjAddr: 0x7A00, symBinAddr: 0x328B0, symSize: 0x24 }
  - { offset: 0xF9BD3, size: 0x8, addend: 0x0, symName: '__ZN52_$LT$T$u20$as$u20$pyo3..type_object..PyTypeCheck$GT$10type_check17h75c03712812f9aacE', symObjAddr: 0x7A48, symBinAddr: 0x328D4, symSize: 0x24 }
  - { offset: 0xF9C08, size: 0x8, addend: 0x0, symName: '__ZN52_$LT$T$u20$as$u20$pyo3..type_object..PyTypeCheck$GT$10type_check17h9dc2a11eb59187c0E', symObjAddr: 0x7A6C, symBinAddr: 0x328F8, symSize: 0x24 }
  - { offset: 0xF9C3D, size: 0x8, addend: 0x0, symName: '__ZN52_$LT$T$u20$as$u20$pyo3..type_object..PyTypeCheck$GT$16classinfo_object17h1189b9e66d0e4c6cE', symObjAddr: 0x7AD8, symBinAddr: 0x3291C, symSize: 0x20 }
  - { offset: 0xF9C7D, size: 0x8, addend: 0x0, symName: '__ZN52_$LT$T$u20$as$u20$pyo3..type_object..PyTypeCheck$GT$16classinfo_object17h7f74a858924c6bcaE', symObjAddr: 0x7B38, symBinAddr: 0x3293C, symSize: 0x20 }
  - { offset: 0xF9CBD, size: 0x8, addend: 0x0, symName: '__ZN52_$LT$T$u20$as$u20$pyo3..type_object..PyTypeCheck$GT$16classinfo_object17hdd48f3ece12114b6E', symObjAddr: 0x7B58, symBinAddr: 0x3295C, symSize: 0x20 }
  - { offset: 0xFAD90, size: 0x8, addend: 0x0, symName: '__ZN4core3num23_$LT$impl$u20$usize$GT$13unchecked_add18precondition_check17hc85f3c315ce53bacE', symObjAddr: 0x21D0, symBinAddr: 0x31258, symSize: 0x64 }
  - { offset: 0xFAE39, size: 0x8, addend: 0x0, symName: '__ZN4core3num23_$LT$impl$u20$usize$GT$13unchecked_mul18precondition_check17h678f2cc7bdc9b0eaE', symObjAddr: 0x2234, symBinAddr: 0x312BC, symSize: 0x60 }
  - { offset: 0xFB56F, size: 0x8, addend: 0x0, symName: '__ZN115_$LT$core..iter..adapters..filter_map..FilterMap$LT$I$C$F$GT$$u20$as$u20$core..iter..traits..iterator..Iterator$GT$4next17h221302ecdcee8cccE', symObjAddr: 0x18C0, symBinAddr: 0x310D8, symSize: 0x2C }
  - { offset: 0xFB5B6, size: 0x8, addend: 0x0, symName: '__ZN115_$LT$core..iter..adapters..filter_map..FilterMap$LT$I$C$F$GT$$u20$as$u20$core..iter..traits..iterator..Iterator$GT$4next17he1cad00f9392be4fE', symObjAddr: 0x18EC, symBinAddr: 0x31104, symSize: 0x2C }
  - { offset: 0xFB5FD, size: 0x8, addend: 0x0, symName: '__ZN115_$LT$core..iter..adapters..filter_map..FilterMap$LT$I$C$F$GT$$u20$as$u20$core..iter..traits..iterator..Iterator$GT$9size_hint17hbb153a3e3618a443E', symObjAddr: 0x1918, symBinAddr: 0x31130, symSize: 0x4C }
  - { offset: 0xFB661, size: 0x8, addend: 0x0, symName: '__ZN115_$LT$core..iter..adapters..filter_map..FilterMap$LT$I$C$F$GT$$u20$as$u20$core..iter..traits..iterator..Iterator$GT$9size_hint17hc819464f33fc24faE', symObjAddr: 0x1964, symBinAddr: 0x3117C, symSize: 0x4C }
  - { offset: 0xFB881, size: 0x8, addend: 0x0, symName: __ZN4core4iter6traits8iterator8Iterator7collect17hec9f9efb4f3bedfeE, symObjAddr: 0x22C8, symBinAddr: 0x3131C, symSize: 0x14 }
  - { offset: 0xFB8C2, size: 0x8, addend: 0x0, symName: __ZN4core4iter6traits8iterator8Iterator7collect17hf99d8f2bd5fed06aE, symObjAddr: 0x22DC, symBinAddr: 0x31330, symSize: 0x14 }
  - { offset: 0xFB903, size: 0x8, addend: 0x0, symName: __ZN4core4iter6traits8iterator8Iterator9enumerate17ha29e2e1f7dbcced4E, symObjAddr: 0x22F0, symBinAddr: 0x31344, symSize: 0x18 }
  - { offset: 0xFB934, size: 0x8, addend: 0x0, symName: __ZN4core4iter6traits8iterator8Iterator9enumerate17ha29e2e1f7dbcced4E, symObjAddr: 0x22F0, symBinAddr: 0x31344, symSize: 0x18 }
  - { offset: 0xFB95B, size: 0x8, addend: 0x0, symName: '__ZN63_$LT$I$u20$as$u20$core..iter..traits..collect..IntoIterator$GT$9into_iter17hd315fb1e7af084ceE', symObjAddr: 0x7C68, symBinAddr: 0x32A1C, symSize: 0x18 }
  - { offset: 0xFB992, size: 0x8, addend: 0x0, symName: '__ZN63_$LT$I$u20$as$u20$core..iter..traits..collect..IntoIterator$GT$9into_iter17hf682d37eeb32fb78E', symObjAddr: 0x7C80, symBinAddr: 0x32A34, symSize: 0x30 }
  - { offset: 0xFB9CA, size: 0x8, addend: 0x0, symName: '__ZN63_$LT$I$u20$as$u20$core..iter..traits..collect..IntoIterator$GT$9into_iter17hfc2a6a51240c988fE', symObjAddr: 0x7CB0, symBinAddr: 0x32A64, symSize: 0x30 }
  - { offset: 0xFBA10, size: 0x8, addend: 0x0, symName: '__ZN44_$LT$$RF$T$u20$as$u20$core..fmt..Display$GT$3fmt17h5fd5fa203491c614E', symObjAddr: 0x1A9C, symBinAddr: 0x311C8, symSize: 0x30 }
  - { offset: 0xFBAEB, size: 0x8, addend: 0x0, symName: '__ZN47_$LT$$LP$$RP$$u20$as$u20$core..unit..IsUnit$GT$7is_unit17h568fbe8de72a736aE', symObjAddr: 0x1ACC, symBinAddr: 0x311F8, symSize: 0xC }
  - { offset: 0xFBB0F, size: 0x8, addend: 0x0, symName: __ZN4core10intrinsics11rotate_left17h7d9bd1bd9b86816aE, symObjAddr: 0x1AD8, symBinAddr: 0x31204, symSize: 0x54 }
  - { offset: 0xFBBE6, size: 0x8, addend: 0x0, symName: '__ZN4core5slice4iter87_$LT$impl$u20$core..iter..traits..collect..IntoIterator$u20$for$u20$$RF$$u5b$T$u5d$$GT$9into_iter17h15defb437d42d0eeE', symObjAddr: 0x2474, symBinAddr: 0x313CC, symSize: 0x50 }
  - { offset: 0xFC482, size: 0x8, addend: 0x0, symName: __ZN4core5alloc6layout6Layout25from_size_align_unchecked18precondition_check17hfb7ecfe2fb2627adE, symObjAddr: 0x2308, symBinAddr: 0x3135C, symSize: 0x70 }
  - { offset: 0xFC52D, size: 0x8, addend: 0x0, symName: '__ZN4core7convert3num67_$LT$impl$u20$core..convert..TryFrom$LT$u64$GT$$u20$for$u20$u32$GT$8try_from17h413568ff3ed72544E', symObjAddr: 0x28FC, symBinAddr: 0x3141C, symSize: 0x5C }
  - { offset: 0xFC561, size: 0x8, addend: 0x0, symName: '__ZN4core7convert3num71_$LT$impl$u20$core..convert..TryFrom$LT$usize$GT$$u20$for$u20$isize$GT$8try_from17hf8af1cb4c771d13aE', symObjAddr: 0x29AC, symBinAddr: 0x31478, symSize: 0x5C }
  - { offset: 0xFC596, size: 0x8, addend: 0x0, symName: '__ZN50_$LT$T$u20$as$u20$core..convert..Into$LT$U$GT$$GT$4into17h4af78d47fe6a48deE', symObjAddr: 0x77B0, symBinAddr: 0x3289C, symSize: 0x14 }
  - { offset: 0xFCE35, size: 0x8, addend: 0x0, symName: __ZN8pyo3_ffi7cpython11tupleobject16PyTuple_GET_ITEM17h3029237e1ab42254E, symObjAddr: 0x87C4, symBinAddr: 0x32E24, symSize: 0x10C }
  - { offset: 0xFCE94, size: 0x8, addend: 0x0, symName: __ZN8pyo3_ffi7cpython11tupleobject16PyTuple_GET_SIZE17h3dc2c8652aeaff9bE, symObjAddr: 0x88D0, symBinAddr: 0x32F30, symSize: 0x24 }
  - { offset: 0xFCEC0, size: 0x8, addend: 0x0, symName: __ZN8pyo3_ffi7cpython11tupleobject16PyTuple_SET_ITEM17hcfa40de2eaae79ccE, symObjAddr: 0x88F4, symBinAddr: 0x32F54, symSize: 0x118 }
  - { offset: 0xFD15F, size: 0x8, addend: 0x0, symName: __ZN8pyo3_ffi8pyerrors22PyExceptionClass_Check17h70f543cc2a4c7a50E, symObjAddr: 0x8A0C, symBinAddr: 0x3306C, symSize: 0x60 }
  - { offset: 0xFD18B, size: 0x8, addend: 0x0, symName: __ZN8pyo3_ffi8pyerrors25PyExceptionInstance_Check17he619a40181bae3a3E, symObjAddr: 0x8A6C, symBinAddr: 0x330CC, symSize: 0x30 }
  - { offset: 0xFD8B7, size: 0x8, addend: 0x0, symName: __ZN5alloc6borrow3Cow8Borrowed17h4f0af1e2924e25e1E, symObjAddr: 0x7C3C, symBinAddr: 0x329F0, symSize: 0x2C }
  - { offset: 0xFD8EF, size: 0x8, addend: 0x0, symName: '__ZN66_$LT$alloc..borrow..Cow$LT$B$GT$$u20$as$u20$core..fmt..Display$GT$3fmt17h3583b6213ba72a62E', symObjAddr: 0x7CE0, symBinAddr: 0x32A94, symSize: 0x84 }
  - { offset: 0xFD9A7, size: 0x8, addend: 0x0, symName: '__ZN71_$LT$alloc..borrow..Cow$LT$B$GT$$u20$as$u20$core..ops..deref..Deref$GT$5deref17hf7e195cb1a433e52E', symObjAddr: 0x7E14, symBinAddr: 0x32B18, symSize: 0x78 }
  - { offset: 0xFDC94, size: 0x8, addend: 0x0, symName: __ZN4pyo35impl_7pyclass16PyClassItemsIter3new17h75de05e37f10906dE, symObjAddr: 0x32D4, symBinAddr: 0x31594, symSize: 0x28 }
  - { offset: 0xFDCC6, size: 0x8, addend: 0x0, symName: __ZN4pyo35types10typeobject6PyType22from_borrowed_type_ptr17h1e99c950a905c606E, symObjAddr: 0x3FE4, symBinAddr: 0x31A18, symSize: 0x34 }
  - { offset: 0xFDD0E, size: 0x8, addend: 0x0, symName: __ZN4pyo35types4list6PyList5empty17hbec17a1bc930f859E, symObjAddr: 0x44A8, symBinAddr: 0x31ACC, symSize: 0x30 }
  - { offset: 0xFDD3B, size: 0x8, addend: 0x0, symName: __ZN4pyo35types5tuple18BoundTupleIterator3new17ha6dc98f5167aca2eE, symObjAddr: 0x53EC, symBinAddr: 0x31CFC, symSize: 0x78 }
  - { offset: 0xFDD89, size: 0x8, addend: 0x0, symName: __ZN4pyo35types5tuple21BorrowedTupleIterator3new17had2d6daa79edb52dE, symObjAddr: 0x5528, symBinAddr: 0x31D74, symSize: 0x48 }
  - { offset: 0xFDDD7, size: 0x8, addend: 0x0, symName: __ZN4pyo35types5tuple21BorrowedTupleIterator8get_item17hcdb70d1b6debfa60E, symObjAddr: 0x5570, symBinAddr: 0x31DBC, symSize: 0x30 }
  - { offset: 0xFDE71, size: 0x8, addend: 0x0, symName: __ZN4pyo38internal5state11AttachGuard10try_attach17h0e375204933772f2E, symObjAddr: 0x6C18, symBinAddr: 0x31EB8, symSize: 0xDC }
  - { offset: 0xFDEB1, size: 0x8, addend: 0x0, symName: __ZN4pyo38internal5state11AttachGuard19do_attach_unchecked17h51f963b32f8cabd2E, symObjAddr: 0x6D6C, symBinAddr: 0x710E8, symSize: 0x3C }
  - { offset: 0xFDEF6, size: 0x8, addend: 0x0, symName: __ZN4pyo38internal5state11AttachGuard6assume17h99b9a8a0271940f2E, symObjAddr: 0x6DA8, symBinAddr: 0x31FB8, symSize: 0x28 }
  - { offset: 0xFDF1E, size: 0x8, addend: 0x0, symName: __ZN4pyo38internal5state11AttachGuard6attach17hfe506a6b06da1d1fE, symObjAddr: 0x6DD0, symBinAddr: 0x31FE0, symSize: 0xB0 }
  - { offset: 0xFDF4F, size: 0x8, addend: 0x0, symName: __ZN4pyo38internal5state11AttachGuard6python17ha6d98b671f0a605dE, symObjAddr: 0x6E80, symBinAddr: 0x32090, symSize: 0x20 }
  - { offset: 0xFDFC1, size: 0x8, addend: 0x0, symName: __ZN4pyo38internal5state13ReferencePool15register_decref17hfdf0198da751ffa7E, symObjAddr: 0x6ED0, symBinAddr: 0x320E0, symSize: 0x128 }
  - { offset: 0xFE046, size: 0x8, addend: 0x0, symName: __ZN4pyo38internal5state13ReferencePool24drop_deferred_references17h553677226d20d410E, symObjAddr: 0x6FF8, symBinAddr: 0x32208, symSize: 0x420 }
  - { offset: 0xFE166, size: 0x8, addend: 0x0, symName: __ZN4pyo38internal5state13ReferencePool3new17h88bf5a2d96e3f853E, symObjAddr: 0x7418, symBinAddr: 0x32628, symSize: 0x4C }
  - { offset: 0xFE179, size: 0x8, addend: 0x0, symName: __ZN4pyo38internal5state13SuspendAttach3new17hcac849f1d53f059bE, symObjAddr: 0x7464, symBinAddr: 0x32674, symSize: 0x40 }
  - { offset: 0xFE1AA, size: 0x8, addend: 0x0, symName: __ZN4pyo38internal5state15ForbidAttaching4bail17h3ace6ed693177169E, symObjAddr: 0x754C, symBinAddr: 0x71124, symSize: 0x50 }
  - { offset: 0xFE1CD, size: 0x8, addend: 0x0, symName: '__ZN5alloc6borrow12Cow$LT$B$GT$10into_owned17h39cace19d41026baE', symObjAddr: 0x7B98, symBinAddr: 0x3297C, symSize: 0x74 }
  - { offset: 0xFE477, size: 0x8, addend: 0x0, symName: '__ZN100_$LT$core..iter..adapters..take..Take$LT$I$GT$$u20$as$u20$core..iter..traits..iterator..Iterator$GT$4next17h3835137afc084a79E', symObjAddr: 0x0, symBinAddr: 0x3329C, symSize: 0x58 }
  - { offset: 0xFE4E1, size: 0x8, addend: 0x0, symName: '__ZN127_$LT$pyo3..instance..Bound$LT$pyo3..types..traceback..PyTraceback$GT$$u20$as$u20$pyo3..types..traceback..PyTracebackMethods$GT$6format8INTERNED17h56738f66c5487503E', symObjAddr: 0x7C30, symBinAddr: 0xB4558, symSize: 0x0 }
  - { offset: 0xFE4FC, size: 0x8, addend: 0x0, symName: '__ZN127_$LT$pyo3..instance..Bound$LT$pyo3..types..traceback..PyTraceback$GT$$u20$as$u20$pyo3..types..traceback..PyTracebackMethods$GT$6format8INTERNED17hc7fa171880d2e153E', symObjAddr: 0x7C50, symBinAddr: 0xB4578, symSize: 0x0 }
  - { offset: 0xFE517, size: 0x8, addend: 0x0, symName: '__ZN127_$LT$pyo3..instance..Bound$LT$pyo3..types..traceback..PyTraceback$GT$$u20$as$u20$pyo3..types..traceback..PyTracebackMethods$GT$6format8INTERNED17heb1a2c093fa5569eE', symObjAddr: 0x7C70, symBinAddr: 0xB4598, symSize: 0x0 }
  - { offset: 0x100F5C, size: 0x8, addend: 0x0, symName: '__ZN59_$LT$core..ffi..c_str..CStr$u20$as$u20$core..hash..Hash$GT$4hash17ha17f5d4190dc26daE', symObjAddr: 0x62D8, symBinAddr: 0x367D0, symSize: 0x30 }
  - { offset: 0x100FA1, size: 0x8, addend: 0x0, symName: '__ZN63_$LT$core..ffi..c_str..CStr$u20$as$u20$core..cmp..PartialEq$GT$2eq17h7bae067b59055fc4E', symObjAddr: 0x66BC, symBinAddr: 0x36B6C, symSize: 0x4C }
  - { offset: 0x10166D, size: 0x8, addend: 0x0, symName: '__ZN4core3ptr101drop_in_place$LT$core..option..Option$LT$pyo3..pyclass..create_type_object..PyClassTypeObject$GT$$GT$17h446178bb56db8fc1E', symObjAddr: 0x2344, symBinAddr: 0x345F0, symSize: 0x48 }
  - { offset: 0x10169C, size: 0x8, addend: 0x0, symName: '__ZN4core3ptr101drop_in_place$LT$core..result..Result$LT$alloc..borrow..Cow$LT$str$GT$$C$$RF$pyo3..err..PyErr$GT$$GT$17hb12ec55c7291fe7eE', symObjAddr: 0x238C, symBinAddr: 0x34638, symSize: 0x4C }
  - { offset: 0x1016CB, size: 0x8, addend: 0x0, symName: '__ZN4core3ptr101drop_in_place$LT$std..sys..sync..once_box..OnceBox$LT$std..sys..pal..unix..sync..mutex..Mutex$GT$$GT$17h5199a22e310157ecE', symObjAddr: 0x2444, symBinAddr: 0x34684, symSize: 0x24 }
  - { offset: 0x1016FA, size: 0x8, addend: 0x0, symName: '__ZN4core3ptr104drop_in_place$LT$core..option..Option$LT$pyo3..instance..Py$LT$pyo3..types..module..PyModule$GT$$GT$$GT$17h34a92fc469332d0bE', symObjAddr: 0x24D4, symBinAddr: 0x346A8, symSize: 0x44 }
  - { offset: 0x101729, size: 0x8, addend: 0x0, symName: '__ZN4core3ptr104drop_in_place$LT$core..option..Option$LT$pyo3..instance..Py$LT$pyo3..types..string..PyString$GT$$GT$$GT$17h4d34c2a0028e53b1E', symObjAddr: 0x2518, symBinAddr: 0x346EC, symSize: 0x44 }
  - { offset: 0x101758, size: 0x8, addend: 0x0, symName: '__ZN4core3ptr105drop_in_place$LT$alloc..raw_vec..RawVec$LT$pyo3..pyclass..create_type_object..GetSetDefDestructor$GT$$GT$17h2576cc895c3adf90E', symObjAddr: 0x255C, symBinAddr: 0x34730, symSize: 0x24 }
  - { offset: 0x101787, size: 0x8, addend: 0x0, symName: '__ZN4core3ptr106drop_in_place$LT$alloc..vec..Vec$LT$core..ptr..non_null..NonNull$LT$pyo3_ffi..object..PyObject$GT$$GT$$GT$17h7c6e3dcfa42d34e3E', symObjAddr: 0x2580, symBinAddr: 0x34754, symSize: 0x5C }
  - { offset: 0x1017B6, size: 0x8, addend: 0x0, symName: '__ZN4core3ptr106drop_in_place$LT$core..option..Option$LT$pyo3..instance..Py$LT$pyo3..types..typeobject..PyType$GT$$GT$$GT$17h1b6b64a275035c5cE', symObjAddr: 0x25DC, symBinAddr: 0x347B0, symSize: 0x44 }
  - { offset: 0x1017E5, size: 0x8, addend: 0x0, symName: '__ZN4core3ptr107drop_in_place$LT$$LP$$RF$core..ffi..c_str..CStr$C$pyo3..instance..Py$LT$pyo3..types..any..PyAny$GT$$RP$$GT$17h18ea4e6872462922E', symObjAddr: 0x2620, symBinAddr: 0x347F4, symSize: 0x24 }
  - { offset: 0x101814, size: 0x8, addend: 0x0, symName: '__ZN4core3ptr107drop_in_place$LT$core..pin..Pin$LT$alloc..boxed..Box$LT$std..sys..pal..unix..sync..mutex..Mutex$GT$$GT$$GT$17h9456907034bf827fE', symObjAddr: 0x2688, symBinAddr: 0x34818, symSize: 0x24 }
  - { offset: 0x101843, size: 0x8, addend: 0x0, symName: '__ZN4core3ptr108drop_in_place$LT$core..option..Option$LT$pyo3..instance..Py$LT$pyo3..exceptions..PyBaseException$GT$$GT$$GT$17h30c2b2e45d683d7dE', symObjAddr: 0x26EC, symBinAddr: 0x3483C, symSize: 0x44 }
  - { offset: 0x101872, size: 0x8, addend: 0x0, symName: '__ZN4core3ptr109drop_in_place$LT$core..iter..adapters..enumerate..Enumerate$LT$pyo3..types..tuple..BoundTupleIterator$GT$$GT$17h227673f4c60038e2E', symObjAddr: 0x27BC, symBinAddr: 0x34880, symSize: 0x24 }
  - { offset: 0x1018A1, size: 0x8, addend: 0x0, symName: '__ZN4core3ptr112drop_in_place$LT$core..result..Result$LT$$LP$$RP$$C$pyo3..pyclass..create_type_object..PyClassTypeObject$GT$$GT$17h5876677a13a851edE', symObjAddr: 0x2894, symBinAddr: 0x348A4, symSize: 0x48 }
  - { offset: 0x1018D0, size: 0x8, addend: 0x0, symName: '__ZN4core3ptr113drop_in_place$LT$alloc..raw_vec..RawVec$LT$core..ptr..non_null..NonNull$LT$pyo3_ffi..object..PyObject$GT$$GT$$GT$17h3574b5c41d4b58cfE', symObjAddr: 0x2900, symBinAddr: 0x348EC, symSize: 0x24 }
  - { offset: 0x1018FF, size: 0x8, addend: 0x0, symName: '__ZN4core3ptr113drop_in_place$LT$std..sync..poison..mutex..Mutex$LT$core..option..Option$LT$std..thread..id..ThreadId$GT$$GT$$GT$17h8e99eb3819287ccfE', symObjAddr: 0x2948, symBinAddr: 0x34910, symSize: 0x24 }
  - { offset: 0x10192E, size: 0x8, addend: 0x0, symName: '__ZN4core3ptr113drop_in_place$LT$std..sync..poison..mutex..MutexGuard$LT$alloc..vec..Vec$LT$std..thread..id..ThreadId$GT$$GT$$GT$17h96142697ea2057c8E', symObjAddr: 0x296C, symBinAddr: 0x34934, symSize: 0x24 }
  - { offset: 0x10195D, size: 0x8, addend: 0x0, symName: '__ZN4core3ptr114drop_in_place$LT$pyo3..impl_..pyclass..lazy_type_object..LazyTypeObjectInner..ensure_init..InitializationGuard$GT$17h37d5171d04e04350E', symObjAddr: 0x2990, symBinAddr: 0x34958, symSize: 0x24 }
  - { offset: 0x10198C, size: 0x8, addend: 0x0, symName: '__ZN4core3ptr116drop_in_place$LT$core..cell..UnsafeCell$LT$core..option..Option$LT$pyo3..err..err_state..PyErrStateInner$GT$$GT$$GT$17h35891857388d3578E', symObjAddr: 0x29B4, symBinAddr: 0x3497C, symSize: 0x24 }
  - { offset: 0x1019BB, size: 0x8, addend: 0x0, symName: '__ZN4core3ptr117drop_in_place$LT$$u5b$$LP$$RF$core..ffi..c_str..CStr$C$pyo3..instance..Py$LT$pyo3..types..any..PyAny$GT$$RP$$u5d$$GT$17h78b11a6180d5e1a8E', symObjAddr: 0x29D8, symBinAddr: 0x349A0, symSize: 0xC4 }
  - { offset: 0x1019EA, size: 0x8, addend: 0x0, symName: '__ZN4core3ptr117drop_in_place$LT$core..result..Result$LT$$LP$$RP$$C$pyo3..instance..Py$LT$pyo3..types..typeobject..PyType$GT$$GT$$GT$17h7e9347197dacaf2cE', symObjAddr: 0x2A9C, symBinAddr: 0x34A64, symSize: 0x44 }
  - { offset: 0x101A19, size: 0x8, addend: 0x0, symName: '__ZN4core3ptr118drop_in_place$LT$core..array..iter..IntoIter$LT$pyo3..instance..Bound$LT$pyo3..types..any..PyAny$GT$$C$1_usize$GT$$GT$17hb27ddb5d73bf4b22E', symObjAddr: 0x2BA8, symBinAddr: 0x34AA8, symSize: 0x24 }
  - { offset: 0x101A48, size: 0x8, addend: 0x0, symName: '__ZN4core3ptr118drop_in_place$LT$std..sync..poison..mutex..MutexGuard$LT$core..option..Option$LT$std..thread..id..ThreadId$GT$$GT$$GT$17h904b8e72faee20b1E', symObjAddr: 0x2BF0, symBinAddr: 0x34ACC, symSize: 0x24 }
  - { offset: 0x101A77, size: 0x8, addend: 0x0, symName: '__ZN4core3ptr122drop_in_place$LT$alloc..vec..into_iter..IntoIter$LT$core..ptr..non_null..NonNull$LT$pyo3_ffi..object..PyObject$GT$$GT$$GT$17h07f397e43e80d3c2E', symObjAddr: 0x2CEC, symBinAddr: 0x34AF0, symSize: 0x24 }
  - { offset: 0x101AA6, size: 0x8, addend: 0x0, symName: '__ZN4core3ptr122drop_in_place$LT$pyo3..impl_..pyclass..lazy_type_object..LazyTypeObjectInner..ensure_init..$u7b$$u7b$closure$u7d$$u7d$$GT$17h409606a40d9079d9E', symObjAddr: 0x2D10, symBinAddr: 0x34B14, symSize: 0x60 }
  - { offset: 0x101AD5, size: 0x8, addend: 0x0, symName: '__ZN4core3ptr126drop_in_place$LT$core..result..Result$LT$pyo3..instance..Bound$LT$pyo3..types..string..PyString$GT$$C$pyo3..err..PyErr$GT$$GT$17hc47894abb140f396E', symObjAddr: 0x2D94, symBinAddr: 0x34B74, symSize: 0x50 }
  - { offset: 0x101B04, size: 0x8, addend: 0x0, symName: '__ZN4core3ptr130drop_in_place$LT$alloc..vec..Vec$LT$$LP$$RF$core..ffi..c_str..CStr$C$pyo3..instance..Py$LT$pyo3..types..any..PyAny$GT$$RP$$GT$$GT$17h3e2fac214f7a6882E', symObjAddr: 0x2E08, symBinAddr: 0x34BC4, symSize: 0x5C }
  - { offset: 0x101B33, size: 0x8, addend: 0x0, symName: '__ZN4core3ptr132drop_in_place$LT$pyo3..err..PyErr..new$LT$pyo3..exceptions..PyTypeError$C$alloc..string..String$GT$..$u7b$$u7b$closure$u7d$$u7d$$GT$17hda9fdbbb1e0dc3b5E', symObjAddr: 0x2E88, symBinAddr: 0x34C20, symSize: 0x24 }
  - { offset: 0x101B62, size: 0x8, addend: 0x0, symName: '__ZN4core3ptr134drop_in_place$LT$alloc..vec..Vec$LT$T$C$A$GT$..retain_mut..BackshiftOnDrop$LT$std..thread..id..ThreadId$C$alloc..alloc..Global$GT$$GT$17he1ebe1c0d6055bebE', symObjAddr: 0x2ED0, symBinAddr: 0x34C44, symSize: 0x24 }
  - { offset: 0x101B91, size: 0x8, addend: 0x0, symName: '__ZN4core3ptr135drop_in_place$LT$core..option..Option$LT$core..pin..Pin$LT$alloc..boxed..Box$LT$std..sys..pal..unix..sync..mutex..Mutex$GT$$GT$$GT$$GT$17h68e62135c78c918cE', symObjAddr: 0x2F60, symBinAddr: 0x34C68, symSize: 0x44 }
  - { offset: 0x101BC0, size: 0x8, addend: 0x0, symName: '__ZN4core3ptr135drop_in_place$LT$pyo3..err..PyErr..new$LT$pyo3..exceptions..PyRuntimeError$C$alloc..string..String$GT$..$u7b$$u7b$closure$u7d$$u7d$$GT$17h6ef3c905b562238eE', symObjAddr: 0x2FA4, symBinAddr: 0x34CAC, symSize: 0x24 }
  - { offset: 0x101BEF, size: 0x8, addend: 0x0, symName: '__ZN4core3ptr137drop_in_place$LT$alloc..raw_vec..RawVec$LT$$LP$$RF$core..ffi..c_str..CStr$C$pyo3..instance..Py$LT$pyo3..types..any..PyAny$GT$$RP$$GT$$GT$17hca220cf6764ad9b6E', symObjAddr: 0x3058, symBinAddr: 0x34CD0, symSize: 0x24 }
  - { offset: 0x101C1E, size: 0x8, addend: 0x0, symName: '__ZN4core3ptr139drop_in_place$LT$pyo3..err..PyErr..new$LT$pyo3..exceptions..PyValueError$C$alloc..ffi..c_str..NulError$GT$..$u7b$$u7b$closure$u7d$$u7d$$GT$17ha93c6b426163ba3aE', symObjAddr: 0x3198, symBinAddr: 0x34CF4, symSize: 0x24 }
  - { offset: 0x101C4D, size: 0x8, addend: 0x0, symName: '__ZN4core3ptr141drop_in_place$LT$hashbrown..raw..RawTable$LT$$LP$$RF$core..ffi..c_str..CStr$C$pyo3..pyclass..create_type_object..GetSetDefBuilder$RP$$GT$$GT$17hb37620287a92ac9aE', symObjAddr: 0x3204, symBinAddr: 0x34D18, symSize: 0x24 }
  - { offset: 0x101C7C, size: 0x8, addend: 0x0, symName: '__ZN4core3ptr141drop_in_place$LT$pyo3..err..PyErr..new$LT$pyo3..panic..PanicException$C$$LP$alloc..string..String$C$$RP$$GT$..$u7b$$u7b$closure$u7d$$u7d$$GT$17hb1d259e9a10cee75E', symObjAddr: 0x324C, symBinAddr: 0x34D3C, symSize: 0x24 }
  - { offset: 0x101CAB, size: 0x8, addend: 0x0, symName: '__ZN4core3ptr143drop_in_place$LT$core..result..Result$LT$pyo3..instance..Borrowed$LT$pyo3..types..float..PyFloat$GT$$C$pyo3..err..cast_error..CastError$GT$$GT$17h877fbbd6f2b10ee0E', symObjAddr: 0x32B4, symBinAddr: 0x34D60, symSize: 0x44 }
  - { offset: 0x101CDA, size: 0x8, addend: 0x0, symName: '__ZN4core3ptr144drop_in_place$LT$core..result..Result$LT$$RF$pyo3..instance..Bound$LT$pyo3..types..tuple..PyTuple$GT$$C$pyo3..err..cast_error..CastError$GT$$GT$17hb294947a6c8d7eb5E', symObjAddr: 0x331C, symBinAddr: 0x34DA4, symSize: 0x44 }
  - { offset: 0x101D09, size: 0x8, addend: 0x0, symName: '__ZN4core3ptr145drop_in_place$LT$std..collections..hash..map..HashMap$LT$$RF$core..ffi..c_str..CStr$C$pyo3..pyclass..create_type_object..GetSetDefBuilder$GT$$GT$17hcb94d352b34dbaabE', symObjAddr: 0x33A8, symBinAddr: 0x34DE8, symSize: 0x24 }
  - { offset: 0x101D38, size: 0x8, addend: 0x0, symName: '__ZN4core3ptr146drop_in_place$LT$alloc..vec..into_iter..IntoIter$LT$$LP$$RF$core..ffi..c_str..CStr$C$pyo3..instance..Py$LT$pyo3..types..any..PyAny$GT$$RP$$GT$$GT$17hbf9bbb5de9e5add4E', symObjAddr: 0x342C, symBinAddr: 0x34E0C, symSize: 0x24 }
  - { offset: 0x101D67, size: 0x8, addend: 0x0, symName: '__ZN4core3ptr148drop_in_place$LT$core..result..Result$LT$$RF$pyo3..instance..Bound$LT$pyo3..types..typeobject..PyType$GT$$C$pyo3..err..cast_error..CastError$GT$$GT$17h107cee75c54bdc70E', symObjAddr: 0x3494, symBinAddr: 0x34E30, symSize: 0x44 }
  - { offset: 0x101D96, size: 0x8, addend: 0x0, symName: '__ZN4core3ptr150drop_in_place$LT$std..sync..poison..mutex..MutexGuard$LT$alloc..vec..Vec$LT$core..ptr..non_null..NonNull$LT$pyo3_ffi..object..PyObject$GT$$GT$$GT$$GT$17hf8accf2fe069b53bE', symObjAddr: 0x34FC, symBinAddr: 0x34E74, symSize: 0x24 }
  - { offset: 0x101DC5, size: 0x8, addend: 0x0, symName: '__ZN4core3ptr151drop_in_place$LT$std..sync..poison..PoisonError$LT$std..sync..poison..mutex..MutexGuard$LT$alloc..vec..Vec$LT$std..thread..id..ThreadId$GT$$GT$$GT$$GT$17h8e110aa3cdb1a64fE', symObjAddr: 0x3564, symBinAddr: 0x34E98, symSize: 0x24 }
  - { offset: 0x101DF4, size: 0x8, addend: 0x0, symName: '__ZN4core3ptr152drop_in_place$LT$pyo3..err..PyErr..new$LT$pyo3..exceptions..PyTypeError$C$pyo3..err..cast_error..CastErrorArguments$GT$..$u7b$$u7b$closure$u7d$$u7d$$GT$17h080297817ecce860E', symObjAddr: 0x3588, symBinAddr: 0x34EBC, symSize: 0x24 }
  - { offset: 0x101E23, size: 0x8, addend: 0x0, symName: '__ZN4core3ptr155drop_in_place$LT$pyo3..err..err_state..PyErrState..lazy_arguments$LT$pyo3..instance..Py$LT$pyo3..types..any..PyAny$GT$$GT$..$u7b$$u7b$closure$u7d$$u7d$$GT$17h8d4174c94cb27432E', symObjAddr: 0x35D0, symBinAddr: 0x34EE0, symSize: 0x60 }
  - { offset: 0x101E52, size: 0x8, addend: 0x0, symName: '__ZN4core3ptr156drop_in_place$LT$std..sync..poison..PoisonError$LT$std..sync..poison..mutex..MutexGuard$LT$core..option..Option$LT$std..thread..id..ThreadId$GT$$GT$$GT$$GT$17hb19557d4ac20c6c5E', symObjAddr: 0x3630, symBinAddr: 0x34F40, symSize: 0x24 }
  - { offset: 0x101E81, size: 0x8, addend: 0x0, symName: '__ZN4core3ptr157drop_in_place$LT$pyo3..err..err_state..PyErrState..make_normalized..$u7b$$u7b$closure$u7d$$u7d$..$u7b$$u7b$closure$u7d$$u7d$..$u7b$$u7b$closure$u7d$$u7d$$GT$17hf2974627883aea62E', symObjAddr: 0x3654, symBinAddr: 0x34F64, symSize: 0x24 }
  - { offset: 0x101EB0, size: 0x8, addend: 0x0, symName: '__ZN4core3ptr165drop_in_place$LT$hashbrown..map..HashMap$LT$$RF$core..ffi..c_str..CStr$C$pyo3..pyclass..create_type_object..GetSetDefBuilder$C$std..hash..random..RandomState$GT$$GT$17h04faebb13b6c75b3E', symObjAddr: 0x369C, symBinAddr: 0x34F88, symSize: 0x24 }
  - { offset: 0x101EDF, size: 0x8, addend: 0x0, symName: '__ZN4core3ptr168drop_in_place$LT$core..iter..adapters..enumerate..Enumerate$LT$core..array..iter..IntoIter$LT$pyo3..instance..Bound$LT$pyo3..types..any..PyAny$GT$$C$1_usize$GT$$GT$$GT$17h1e944d8db205924fE', symObjAddr: 0x36C0, symBinAddr: 0x34FAC, symSize: 0x24 }
  - { offset: 0x101F0E, size: 0x8, addend: 0x0, symName: '__ZN4core3ptr181drop_in_place$LT$hashbrown..scopeguard..ScopeGuard$LT$$RF$mut$u20$hashbrown..raw..RawTableInner$C$hashbrown..raw..RawTableInner..rehash_in_place..$u7b$$u7b$closure$u7d$$u7d$$GT$$GT$17hb590b2afd6f7a939E', symObjAddr: 0x3708, symBinAddr: 0x34FD0, symSize: 0x24 }
  - { offset: 0x101F3D, size: 0x8, addend: 0x0, symName: '__ZN4core3ptr188drop_in_place$LT$std..sync..poison..PoisonError$LT$std..sync..poison..mutex..MutexGuard$LT$alloc..vec..Vec$LT$core..ptr..non_null..NonNull$LT$pyo3_ffi..object..PyObject$GT$$GT$$GT$$GT$$GT$17hcea8e7a2d5d26b1fE', symObjAddr: 0x372C, symBinAddr: 0x34FF4, symSize: 0x24 }
  - { offset: 0x101F6C, size: 0x8, addend: 0x0, symName: '__ZN4core3ptr192drop_in_place$LT$core..array..iter..iter_inner..PolymorphicIter$LT$$u5b$core..mem..maybe_uninit..MaybeUninit$LT$pyo3..instance..Bound$LT$pyo3..types..any..PyAny$GT$$GT$$u3b$$u20$1$u5d$$GT$$GT$17h6cfb2e79a340ae66E', symObjAddr: 0x3750, symBinAddr: 0x35018, symSize: 0x24 }
  - { offset: 0x101F9B, size: 0x8, addend: 0x0, symName: '__ZN4core3ptr196drop_in_place$LT$hashbrown..scopeguard..ScopeGuard$LT$hashbrown..raw..RawTableInner$C$hashbrown..raw..RawTableInner..prepare_resize$LT$alloc..alloc..Global$GT$..$u7b$$u7b$closure$u7d$$u7d$$GT$$GT$17hc7a0ed8fa67ee20eE', symObjAddr: 0x3798, symBinAddr: 0x3503C, symSize: 0x24 }
  - { offset: 0x101FCA, size: 0x8, addend: 0x0, symName: '__ZN4core3ptr216drop_in_place$LT$$LT$alloc..vec..into_iter..IntoIter$LT$T$C$A$GT$$u20$as$u20$core..ops..drop..Drop$GT$..drop..DropGuard$LT$core..ptr..non_null..NonNull$LT$pyo3_ffi..object..PyObject$GT$$C$alloc..alloc..Global$GT$$GT$17h4e928dec784501ceE', symObjAddr: 0x3870, symBinAddr: 0x35060, symSize: 0x24 }
  - { offset: 0x101FF9, size: 0x8, addend: 0x0, symName: '__ZN4core3ptr219drop_in_place$LT$pyo3..sync..once_lock..init_once_cell_py_attached$LT$pyo3..sync..Interned..get..$u7b$$u7b$closure$u7d$$u7d$$C$pyo3..instance..Py$LT$pyo3..types..string..PyString$GT$$GT$..$u7b$$u7b$closure$u7d$$u7d$$GT$17h8561416c98200e4cE', symObjAddr: 0x3894, symBinAddr: 0x35084, symSize: 0x24 }
  - { offset: 0x102028, size: 0x8, addend: 0x0, symName: '__ZN4core3ptr233drop_in_place$LT$alloc..boxed..Box$LT$dyn$u20$core..ops..function..Fn$LT$$LP$$RF$pyo3..pyclass..create_type_object..PyTypeBuilder$C$$BP$mut$u20$pyo3_ffi..cpython..object..PyTypeObject$RP$$GT$$u2b$Output$u20$$u3d$$u20$$LP$$RP$$GT$$GT$17h746242758f6f7448E', symObjAddr: 0x38B8, symBinAddr: 0x350A8, symSize: 0x80 }
  - { offset: 0x102057, size: 0x8, addend: 0x0, symName: '__ZN4core3ptr236drop_in_place$LT$alloc..boxed..Box$LT$dyn$u20$core..ops..function..FnOnce$LT$$LP$pyo3..marker..Python$C$$RP$$GT$$u2b$Output$u20$$u3d$$u20$pyo3..err..err_state..PyErrStateLazyFnOutput$u2b$core..marker..Sync$u2b$core..marker..Send$GT$$GT$17h4a7a9e3dbc09cc66E', symObjAddr: 0x3938, symBinAddr: 0x35128, symSize: 0x80 }
  - { offset: 0x102086, size: 0x8, addend: 0x0, symName: '__ZN4core3ptr240drop_in_place$LT$$LT$alloc..vec..into_iter..IntoIter$LT$T$C$A$GT$$u20$as$u20$core..ops..drop..Drop$GT$..drop..DropGuard$LT$$LP$$RF$core..ffi..c_str..CStr$C$pyo3..instance..Py$LT$pyo3..types..any..PyAny$GT$$RP$$C$alloc..alloc..Global$GT$$GT$17h4aa772f9337ffd5aE', symObjAddr: 0x39B8, symBinAddr: 0x351A8, symSize: 0x24 }
  - { offset: 0x1020B5, size: 0x8, addend: 0x0, symName: '__ZN4core3ptr240drop_in_place$LT$pyo3..sync..once_lock..init_once_cell_py_attached$LT$pyo3..panic..PanicException..type_object_raw..$u7b$$u7b$closure$u7d$$u7d$$C$pyo3..instance..Py$LT$pyo3..types..typeobject..PyType$GT$$GT$..$u7b$$u7b$closure$u7d$$u7d$$GT$17h934608d1f7c1b794E', symObjAddr: 0x39DC, symBinAddr: 0x351CC, symSize: 0x24 }
  - { offset: 0x1020E4, size: 0x8, addend: 0x0, symName: '__ZN4core3ptr243drop_in_place$LT$$u5b$alloc..boxed..Box$LT$dyn$u20$core..ops..function..Fn$LT$$LP$$RF$pyo3..pyclass..create_type_object..PyTypeBuilder$C$$BP$mut$u20$pyo3_ffi..cpython..object..PyTypeObject$RP$$GT$$u2b$Output$u20$$u3d$$u20$$LP$$RP$$GT$$u5d$$GT$17h0dffffb148869264E', symObjAddr: 0x3A00, symBinAddr: 0x351F0, symSize: 0xB4 }
  - { offset: 0x102113, size: 0x8, addend: 0x0, symName: '__ZN4core3ptr256drop_in_place$LT$alloc..vec..Vec$LT$alloc..boxed..Box$LT$dyn$u20$core..ops..function..Fn$LT$$LP$$RF$pyo3..pyclass..create_type_object..PyTypeBuilder$C$$BP$mut$u20$pyo3_ffi..cpython..object..PyTypeObject$RP$$GT$$u2b$Output$u20$$u3d$$u20$$LP$$RP$$GT$$GT$$GT$17h1b3ea0da9ae5902cE', symObjAddr: 0x3AB4, symBinAddr: 0x352A4, symSize: 0x5C }
  - { offset: 0x102142, size: 0x8, addend: 0x0, symName: '__ZN4core3ptr262drop_in_place$LT$pyo3..sync..once_lock..try_init_once_cell_py_attached$LT$pyo3..impl_..pymodule..ModuleDef..make_module..$u7b$$u7b$closure$u7d$$u7d$$C$pyo3..instance..Py$LT$pyo3..types..module..PyModule$GT$$C$pyo3..err..PyErr$GT$..$u7b$$u7b$closure$u7d$$u7d$$GT$17h127276bcade85b23E', symObjAddr: 0x3B34, symBinAddr: 0x35300, symSize: 0x24 }
  - { offset: 0x102171, size: 0x8, addend: 0x0, symName: '__ZN4core3ptr263drop_in_place$LT$alloc..raw_vec..RawVec$LT$alloc..boxed..Box$LT$dyn$u20$core..ops..function..Fn$LT$$LP$$RF$pyo3..pyclass..create_type_object..PyTypeBuilder$C$$BP$mut$u20$pyo3_ffi..cpython..object..PyTypeObject$RP$$GT$$u2b$Output$u20$$u3d$$u20$$LP$$RP$$GT$$GT$$GT$17h2eb11ded72ba3736E', symObjAddr: 0x3B58, symBinAddr: 0x35324, symSize: 0x24 }
  - { offset: 0x1021A0, size: 0x8, addend: 0x0, symName: '__ZN4core3ptr272drop_in_place$LT$alloc..vec..into_iter..IntoIter$LT$alloc..boxed..Box$LT$dyn$u20$core..ops..function..Fn$LT$$LP$$RF$pyo3..pyclass..create_type_object..PyTypeBuilder$C$$BP$mut$u20$pyo3_ffi..cpython..object..PyTypeObject$RP$$GT$$u2b$Output$u20$$u3d$$u20$$LP$$RP$$GT$$GT$$GT$17h7b4cef1011dd0334E', symObjAddr: 0x3BA0, symBinAddr: 0x35348, symSize: 0x24 }
  - { offset: 0x1021CF, size: 0x8, addend: 0x0, symName: '__ZN4core3ptr290drop_in_place$LT$core..option..Option$LT$pyo3..sync..once_lock..try_init_once_cell_py_attached$LT$pyo3..impl_..pymodule..ModuleDef..make_module..$u7b$$u7b$closure$u7d$$u7d$$C$pyo3..instance..Py$LT$pyo3..types..module..PyModule$GT$$C$pyo3..err..PyErr$GT$..$u7b$$u7b$closure$u7d$$u7d$$GT$$GT$17hbd8d96635213cac1E', symObjAddr: 0x3BC4, symBinAddr: 0x3536C, symSize: 0x44 }
  - { offset: 0x1021FE, size: 0x8, addend: 0x0, symName: '__ZN4core3ptr357drop_in_place$LT$once_cell..sync..OnceCell$LT$pyo3..instance..Py$LT$pyo3..types..string..PyString$GT$$GT$..get_or_init$LT$pyo3..sync..once_lock..init_once_cell_py_attached$LT$pyo3..sync..Interned..get..$u7b$$u7b$closure$u7d$$u7d$$C$pyo3..instance..Py$LT$pyo3..types..string..PyString$GT$$GT$..$u7b$$u7b$closure$u7d$$u7d$$GT$..$u7b$$u7b$closure$u7d$$u7d$$GT$17h29bedc9a5e798525E', symObjAddr: 0x3DA8, symBinAddr: 0x353B0, symSize: 0x24 }
  - { offset: 0x10222D, size: 0x8, addend: 0x0, symName: '__ZN4core3ptr366drop_in_place$LT$$LT$alloc..vec..into_iter..IntoIter$LT$T$C$A$GT$$u20$as$u20$core..ops..drop..Drop$GT$..drop..DropGuard$LT$alloc..boxed..Box$LT$dyn$u20$core..ops..function..Fn$LT$$LP$$RF$pyo3..pyclass..create_type_object..PyTypeBuilder$C$$BP$mut$u20$pyo3_ffi..cpython..object..PyTypeObject$RP$$GT$$u2b$Output$u20$$u3d$$u20$$LP$$RP$$GT$$C$alloc..alloc..Global$GT$$GT$17h830f31566ffd9a27E', symObjAddr: 0x3DCC, symBinAddr: 0x353D4, symSize: 0x24 }
  - { offset: 0x10225C, size: 0x8, addend: 0x0, symName: '__ZN4core3ptr37drop_in_place$LT$pyo3..err..PyErr$GT$17ha7c7fd9a2c6fec6fE', symObjAddr: 0x3DF0, symBinAddr: 0x353F8, symSize: 0x24 }
  - { offset: 0x10228B, size: 0x8, addend: 0x0, symName: '__ZN4core3ptr380drop_in_place$LT$once_cell..sync..OnceCell$LT$pyo3..instance..Py$LT$pyo3..types..typeobject..PyType$GT$$GT$..get_or_init$LT$pyo3..sync..once_lock..init_once_cell_py_attached$LT$pyo3..panic..PanicException..type_object_raw..$u7b$$u7b$closure$u7d$$u7d$$C$pyo3..instance..Py$LT$pyo3..types..typeobject..PyType$GT$$GT$..$u7b$$u7b$closure$u7d$$u7d$$GT$..$u7b$$u7b$closure$u7d$$u7d$$GT$17h820015547611bcb9E', symObjAddr: 0x3E14, symBinAddr: 0x3541C, symSize: 0x24 }
  - { offset: 0x1022BA, size: 0x8, addend: 0x0, symName: '__ZN4core3ptr385drop_in_place$LT$core..option..Option$LT$once_cell..sync..OnceCell$LT$pyo3..instance..Py$LT$pyo3..types..string..PyString$GT$$GT$..get_or_init$LT$pyo3..sync..once_lock..init_once_cell_py_attached$LT$pyo3..sync..Interned..get..$u7b$$u7b$closure$u7d$$u7d$$C$pyo3..instance..Py$LT$pyo3..types..string..PyString$GT$$GT$..$u7b$$u7b$closure$u7d$$u7d$$GT$..$u7b$$u7b$closure$u7d$$u7d$$GT$$GT$17h9a3ff091de091e8dE', symObjAddr: 0x3E38, symBinAddr: 0x35440, symSize: 0x44 }
  - { offset: 0x1022E9, size: 0x8, addend: 0x0, symName: '__ZN4core3ptr408drop_in_place$LT$core..option..Option$LT$once_cell..sync..OnceCell$LT$pyo3..instance..Py$LT$pyo3..types..typeobject..PyType$GT$$GT$..get_or_init$LT$pyo3..sync..once_lock..init_once_cell_py_attached$LT$pyo3..panic..PanicException..type_object_raw..$u7b$$u7b$closure$u7d$$u7d$$C$pyo3..instance..Py$LT$pyo3..types..typeobject..PyType$GT$$GT$..$u7b$$u7b$closure$u7d$$u7d$$GT$..$u7b$$u7b$closure$u7d$$u7d$$GT$$GT$17ha035155eb2b68ab5E', symObjAddr: 0x3E7C, symBinAddr: 0x35484, symSize: 0x44 }
  - { offset: 0x102318, size: 0x8, addend: 0x0, symName: '__ZN4core3ptr42drop_in_place$LT$alloc..string..String$GT$17h2354872270ec1c5eE', symObjAddr: 0x3F08, symBinAddr: 0x354C8, symSize: 0x24 }
  - { offset: 0x102347, size: 0x8, addend: 0x0, symName: '__ZN4core3ptr47drop_in_place$LT$alloc..ffi..c_str..CString$GT$17h6aa94f41fadb80d2E', symObjAddr: 0x3F98, symBinAddr: 0x354EC, symSize: 0x5C }
  - { offset: 0x102376, size: 0x8, addend: 0x0, symName: '__ZN4core3ptr48drop_in_place$LT$alloc..ffi..c_str..NulError$GT$17h9902a8b4748cc7adE', symObjAddr: 0x4060, symBinAddr: 0x35548, symSize: 0x24 }
  - { offset: 0x1023A5, size: 0x8, addend: 0x0, symName: '__ZN4core3ptr50drop_in_place$LT$alloc..borrow..Cow$LT$str$GT$$GT$17h673ecb0d1ab8c0f5E', symObjAddr: 0x4084, symBinAddr: 0x3556C, symSize: 0x48 }
  - { offset: 0x1023D4, size: 0x8, addend: 0x0, symName: '__ZN4core3ptr50drop_in_place$LT$pyo3..impl_..panic..PanicTrap$GT$17h4a87e6b615a31d73E', symObjAddr: 0x40CC, symBinAddr: 0x355B4, symSize: 0x24 }
  - { offset: 0x102403, size: 0x8, addend: 0x0, symName: '__ZN4core3ptr51drop_in_place$LT$alloc..vec..Vec$LT$$RF$str$GT$$GT$17h491dd125422e3cc4E', symObjAddr: 0x40F0, symBinAddr: 0x355D8, symSize: 0x5C }
  - { offset: 0x102432, size: 0x8, addend: 0x0, symName: '__ZN4core3ptr53drop_in_place$LT$$LP$alloc..string..String$C$$RP$$GT$17h9753e448de2c3b37E', symObjAddr: 0x414C, symBinAddr: 0x35634, symSize: 0x24 }
  - { offset: 0x102461, size: 0x8, addend: 0x0, symName: '__ZN4core3ptr53drop_in_place$LT$pyo3..err..cast_error..CastError$GT$17hd2f784c00fcf5425E', symObjAddr: 0x4170, symBinAddr: 0x35658, symSize: 0x24 }
  - { offset: 0x102490, size: 0x8, addend: 0x0, symName: '__ZN4core3ptr53drop_in_place$LT$pyo3..err..err_state..PyErrState$GT$17he46494b7ef28c37fE', symObjAddr: 0x4194, symBinAddr: 0x3567C, symSize: 0x64 }
  - { offset: 0x1024BF, size: 0x8, addend: 0x0, symName: '__ZN4core3ptr55drop_in_place$LT$pyo3..internal..state..AttachGuard$GT$17h8298fef0ccfd6aa5E', symObjAddr: 0x421C, symBinAddr: 0x356E0, symSize: 0x60 }
  - { offset: 0x1024EE, size: 0x8, addend: 0x0, symName: '__ZN4core3ptr57drop_in_place$LT$pyo3..internal..state..SuspendAttach$GT$17h9584d3f4b6a9f062E', symObjAddr: 0x42C4, symBinAddr: 0x35740, symSize: 0x24 }
  - { offset: 0x10251D, size: 0x8, addend: 0x0, symName: '__ZN4core3ptr58drop_in_place$LT$alloc..boxed..Box$LT$$u5b$u8$u5d$$GT$$GT$17h732a22dbc8163325E', symObjAddr: 0x430C, symBinAddr: 0x35764, symSize: 0x2C }
  - { offset: 0x10254C, size: 0x8, addend: 0x0, symName: '__ZN4core3ptr58drop_in_place$LT$alloc..raw_vec..RawVec$LT$$RF$str$GT$$GT$17hc5d2ad8ed0a25874E', symObjAddr: 0x4338, symBinAddr: 0x35790, symSize: 0x24 }
  - { offset: 0x10257B, size: 0x8, addend: 0x0, symName: '__ZN4core3ptr58drop_in_place$LT$pyo3..err..err_state..PyErrStateInner$GT$17hb13309dbc0ffe221E', symObjAddr: 0x435C, symBinAddr: 0x357B4, symSize: 0x58 }
  - { offset: 0x1025AA, size: 0x8, addend: 0x0, symName: '__ZN4core3ptr58drop_in_place$LT$std..sys..sync..mutex..pthread..Mutex$GT$17h0d9cf30c1a963a42E', symObjAddr: 0x43B4, symBinAddr: 0x3580C, symSize: 0x5C }
  - { offset: 0x1025D9, size: 0x8, addend: 0x0, symName: '__ZN4core3ptr59drop_in_place$LT$pyo3..types..tuple..BoundTupleIterator$GT$17hab9e89b9cb88445cE', symObjAddr: 0x4410, symBinAddr: 0x35868, symSize: 0x24 }
  - { offset: 0x102608, size: 0x8, addend: 0x0, symName: '__ZN4core3ptr60drop_in_place$LT$std..sys..pal..unix..sync..mutex..Mutex$GT$17h23e4603c47cff7edE', symObjAddr: 0x4434, symBinAddr: 0x3588C, symSize: 0x24 }
  - { offset: 0x102637, size: 0x8, addend: 0x0, symName: '__ZN4core3ptr62drop_in_place$LT$pyo3..err..cast_error..CastErrorArguments$GT$17hdd35b40d1e458e35E', symObjAddr: 0x447C, symBinAddr: 0x358B0, symSize: 0x60 }
  - { offset: 0x102666, size: 0x8, addend: 0x0, symName: '__ZN4core3ptr63drop_in_place$LT$pyo3..err..err_state..PyErrStateNormalized$GT$17h6229b6e3b38c454eE', symObjAddr: 0x4500, symBinAddr: 0x35910, symSize: 0x24 }
  - { offset: 0x102695, size: 0x8, addend: 0x0, symName: '__ZN4core3ptr65drop_in_place$LT$core..option..Option$LT$pyo3..err..PyErr$GT$$GT$17hd817d5f05c1195e2E', symObjAddr: 0x4524, symBinAddr: 0x35934, symSize: 0x40 }
  - { offset: 0x1026C4, size: 0x8, addend: 0x0, symName: '__ZN4core3ptr69drop_in_place$LT$pyo3..pyclass..create_type_object..GetSetDefType$GT$17h7b5da1bccd15b535E', symObjAddr: 0x4670, symBinAddr: 0x35974, symSize: 0x48 }
  - { offset: 0x1026F3, size: 0x8, addend: 0x0, symName: '__ZN4core3ptr69drop_in_place$LT$pyo3..pyclass..create_type_object..PyTypeBuilder$GT$17hfc9331ab9bfed4e2E', symObjAddr: 0x46B8, symBinAddr: 0x359BC, symSize: 0xF4 }
  - { offset: 0x102722, size: 0x8, addend: 0x0, symName: '__ZN4core3ptr70drop_in_place$LT$core..option..Option$LT$alloc..string..String$GT$$GT$17hcc7eef521b343e6bE', symObjAddr: 0x47AC, symBinAddr: 0x35AB0, symSize: 0x48 }
  - { offset: 0x102751, size: 0x8, addend: 0x0, symName: '__ZN4core3ptr70drop_in_place$LT$pyo3..instance..Py$LT$pyo3..types..any..PyAny$GT$$GT$17h0bdab2bdd27cf389E', symObjAddr: 0x4850, symBinAddr: 0x35AF8, symSize: 0x24 }
  - { offset: 0x102780, size: 0x8, addend: 0x0, symName: '__ZN4core3ptr73drop_in_place$LT$alloc..vec..Vec$LT$pyo3_ffi..object..PyType_Slot$GT$$GT$17h575e305ad4a5621dE', symObjAddr: 0x48F4, symBinAddr: 0x35B1C, symSize: 0x5C }
  - { offset: 0x1027AF, size: 0x8, addend: 0x0, symName: '__ZN4core3ptr73drop_in_place$LT$pyo3..instance..Bound$LT$pyo3..types..any..PyAny$GT$$GT$17hbac9e9e83abb843eE', symObjAddr: 0x49D0, symBinAddr: 0x35B78, symSize: 0x24 }
  - { offset: 0x1027DE, size: 0x8, addend: 0x0, symName: '__ZN4core3ptr73drop_in_place$LT$pyo3..pyclass..create_type_object..PyClassTypeObject$GT$17h04e09b4f59762db2E', symObjAddr: 0x4A18, symBinAddr: 0x35B9C, symSize: 0x5C }
  - { offset: 0x10280D, size: 0x8, addend: 0x0, symName: '__ZN4core3ptr75drop_in_place$LT$core..result..Result$LT$$RF$str$C$pyo3..err..PyErr$GT$$GT$17h67afafc347fc8b12E', symObjAddr: 0x4A98, symBinAddr: 0x35BF8, symSize: 0x40 }
  - { offset: 0x10283C, size: 0x8, addend: 0x0, symName: '__ZN4core3ptr75drop_in_place$LT$pyo3..instance..Bound$LT$pyo3..types..list..PyList$GT$$GT$17hf71f0f8fa88aa897E', symObjAddr: 0x4B20, symBinAddr: 0x35C38, symSize: 0x24 }
  - { offset: 0x10286B, size: 0x8, addend: 0x0, symName: '__ZN4core3ptr75drop_in_place$LT$pyo3..pyclass..create_type_object..GetSetDefDestructor$GT$17h5c0494dbcbd1d09fE', symObjAddr: 0x4B44, symBinAddr: 0x35C5C, symSize: 0x24 }
  - { offset: 0x10289A, size: 0x8, addend: 0x0, symName: '__ZN4core3ptr76drop_in_place$LT$core..result..Result$LT$$LP$$RP$$C$pyo3..err..PyErr$GT$$GT$17he842629cf063f046E', symObjAddr: 0x4B68, symBinAddr: 0x35C80, symSize: 0x40 }
  - { offset: 0x1028C9, size: 0x8, addend: 0x0, symName: '__ZN4core3ptr76drop_in_place$LT$pyo3..instance..Py$LT$pyo3..types..module..PyModule$GT$$GT$17hc4fe29ba2216d3ebE', symObjAddr: 0x4BA8, symBinAddr: 0x35CC0, symSize: 0x24 }
  - { offset: 0x1028F8, size: 0x8, addend: 0x0, symName: '__ZN4core3ptr76drop_in_place$LT$pyo3..instance..Py$LT$pyo3..types..string..PyString$GT$$GT$17h777514433b53f4baE', symObjAddr: 0x4BCC, symBinAddr: 0x35CE4, symSize: 0x24 }
  - { offset: 0x102927, size: 0x8, addend: 0x0, symName: '__ZN4core3ptr77drop_in_place$LT$pyo3..instance..Bound$LT$pyo3..types..bytes..PyBytes$GT$$GT$17h74c889e44d2d9d0dE', symObjAddr: 0x4BF0, symBinAddr: 0x35D08, symSize: 0x24 }
  - { offset: 0x102956, size: 0x8, addend: 0x0, symName: '__ZN4core3ptr77drop_in_place$LT$pyo3..instance..Bound$LT$pyo3..types..tuple..PyTuple$GT$$GT$17h654d65bea4306b52E', symObjAddr: 0x4C38, symBinAddr: 0x35D2C, symSize: 0x24 }
  - { offset: 0x102985, size: 0x8, addend: 0x0, symName: '__ZN4core3ptr78drop_in_place$LT$alloc..vec..Vec$LT$pyo3_ffi..descrobject..PyGetSetDef$GT$$GT$17hf94a7d236ffb2992E', symObjAddr: 0x4C5C, symBinAddr: 0x35D50, symSize: 0x5C }
  - { offset: 0x1029B4, size: 0x8, addend: 0x0, symName: '__ZN4core3ptr78drop_in_place$LT$alloc..vec..Vec$LT$pyo3_ffi..descrobject..PyMemberDef$GT$$GT$17h92ed4d399f8e6717E', symObjAddr: 0x4CB8, symBinAddr: 0x35DAC, symSize: 0x5C }
  - { offset: 0x1029E3, size: 0x8, addend: 0x0, symName: '__ZN4core3ptr78drop_in_place$LT$pyo3..instance..Py$LT$pyo3..types..typeobject..PyType$GT$$GT$17h74f578f61b53e114E', symObjAddr: 0x4D14, symBinAddr: 0x35E08, symSize: 0x24 }
  - { offset: 0x102A12, size: 0x8, addend: 0x0, symName: '__ZN4core3ptr79drop_in_place$LT$alloc..vec..Vec$LT$pyo3_ffi..methodobject..PyMethodDef$GT$$GT$17hd699ff3c8c57f6c7E', symObjAddr: 0x4D94, symBinAddr: 0x35E2C, symSize: 0x5C }
  - { offset: 0x102A41, size: 0x8, addend: 0x0, symName: '__ZN4core3ptr79drop_in_place$LT$pyo3..instance..Bound$LT$pyo3..types..module..PyModule$GT$$GT$17he77bb4771eae3678E', symObjAddr: 0x4DF0, symBinAddr: 0x35E88, symSize: 0x24 }
  - { offset: 0x102A70, size: 0x8, addend: 0x0, symName: '__ZN4core3ptr79drop_in_place$LT$pyo3..instance..Bound$LT$pyo3..types..string..PyString$GT$$GT$17h99a696e6b1c93e24E', symObjAddr: 0x4E14, symBinAddr: 0x35EAC, symSize: 0x24 }
  - { offset: 0x102A9F, size: 0x8, addend: 0x0, symName: '__ZN4core3ptr80drop_in_place$LT$alloc..raw_vec..RawVec$LT$pyo3_ffi..object..PyType_Slot$GT$$GT$17h587c2414eaf14d34E', symObjAddr: 0x4E38, symBinAddr: 0x35ED0, symSize: 0x24 }
  - { offset: 0x102ACE, size: 0x8, addend: 0x0, symName: '__ZN4core3ptr80drop_in_place$LT$pyo3..instance..Py$LT$pyo3..exceptions..PyBaseException$GT$$GT$17h090fb6c563f4d465E', symObjAddr: 0x4EA4, symBinAddr: 0x35EF4, symSize: 0x24 }
  - { offset: 0x102AFD, size: 0x8, addend: 0x0, symName: '__ZN4core3ptr81drop_in_place$LT$pyo3..instance..Bound$LT$pyo3..types..typeobject..PyType$GT$$GT$17hd46c58eeb93badf5E', symObjAddr: 0x4F10, symBinAddr: 0x35F18, symSize: 0x24 }
  - { offset: 0x102B2C, size: 0x8, addend: 0x0, symName: '__ZN4core3ptr83drop_in_place$LT$$u5b$pyo3..instance..Bound$LT$pyo3..types..any..PyAny$GT$$u5d$$GT$17h86d2722ef91178ceE', symObjAddr: 0x4F34, symBinAddr: 0x35F3C, symSize: 0xB4 }
  - { offset: 0x102B5B, size: 0x8, addend: 0x0, symName: '__ZN4core3ptr83drop_in_place$LT$pyo3..instance..Bound$LT$pyo3..exceptions..PyBaseException$GT$$GT$17h707a0f9a65b9ed46E', symObjAddr: 0x4FE8, symBinAddr: 0x35FF0, symSize: 0x24 }
  - { offset: 0x102B8A, size: 0x8, addend: 0x0, symName: '__ZN4core3ptr85drop_in_place$LT$$u5b$pyo3..pyclass..create_type_object..GetSetDefDestructor$u5d$$GT$17hdef9351ddafb9e88E', symObjAddr: 0x5054, symBinAddr: 0x36014, symSize: 0xB4 }
  - { offset: 0x102BB9, size: 0x8, addend: 0x0, symName: '__ZN4core3ptr85drop_in_place$LT$alloc..boxed..Box$LT$std..sys..pal..unix..sync..mutex..Mutex$GT$$GT$17h7bccb76674c61b5aE', symObjAddr: 0x5108, symBinAddr: 0x360C8, symSize: 0x60 }
  - { offset: 0x102BE8, size: 0x8, addend: 0x0, symName: '__ZN4core3ptr85drop_in_place$LT$alloc..raw_vec..RawVec$LT$pyo3_ffi..descrobject..PyGetSetDef$GT$$GT$17h4e879a3a49980c96E', symObjAddr: 0x5168, symBinAddr: 0x36128, symSize: 0x24 }
  - { offset: 0x102C17, size: 0x8, addend: 0x0, symName: '__ZN4core3ptr85drop_in_place$LT$alloc..raw_vec..RawVec$LT$pyo3_ffi..descrobject..PyMemberDef$GT$$GT$17h2192cd17028cabb2E', symObjAddr: 0x518C, symBinAddr: 0x3614C, symSize: 0x24 }
  - { offset: 0x102C46, size: 0x8, addend: 0x0, symName: '__ZN4core3ptr85drop_in_place$LT$pyo3..instance..Bound$LT$pyo3..types..traceback..PyTraceback$GT$$GT$17h832024f0eec4cc3dE', symObjAddr: 0x521C, symBinAddr: 0x36170, symSize: 0x24 }
  - { offset: 0x102C75, size: 0x8, addend: 0x0, symName: '__ZN4core3ptr86drop_in_place$LT$alloc..raw_vec..RawVec$LT$pyo3_ffi..methodobject..PyMethodDef$GT$$GT$17h1565aa883ffcf77cE', symObjAddr: 0x5264, symBinAddr: 0x36194, symSize: 0x24 }
  - { offset: 0x102CA4, size: 0x8, addend: 0x0, symName: '__ZN4core3ptr86drop_in_place$LT$core..option..Option$LT$pyo3..err..err_state..PyErrStateInner$GT$$GT$17h90480340feddb150E', symObjAddr: 0x5288, symBinAddr: 0x361B8, symSize: 0x40 }
  - { offset: 0x102CD3, size: 0x8, addend: 0x0, symName: '__ZN4core3ptr91drop_in_place$LT$alloc..boxed..Box$LT$dyn$u20$core..any..Any$u2b$core..marker..Send$GT$$GT$17hc4aaed11c1a64bf8E', symObjAddr: 0x537C, symBinAddr: 0x361F8, symSize: 0x80 }
  - { offset: 0x102D02, size: 0x8, addend: 0x0, symName: '__ZN4core3ptr94drop_in_place$LT$$u5b$pyo3..instance..Bound$LT$pyo3..types..any..PyAny$GT$$u3b$$u20$1$u5d$$GT$17h219b3d38ddddc180E', symObjAddr: 0x54C4, symBinAddr: 0x36278, symSize: 0xA4 }
  - { offset: 0x102D31, size: 0x8, addend: 0x0, symName: '__ZN4core3ptr96drop_in_place$LT$alloc..boxed..Box$LT$pyo3..pyclass..create_type_object..GetterAndSetter$GT$$GT$17h67da79d2ff248306E', symObjAddr: 0x56D4, symBinAddr: 0x3631C, symSize: 0x2C }
  - { offset: 0x102D60, size: 0x8, addend: 0x0, symName: '__ZN4core3ptr98drop_in_place$LT$alloc..vec..Vec$LT$pyo3..pyclass..create_type_object..GetSetDefDestructor$GT$$GT$17h24e3309d9ac058b9E', symObjAddr: 0x5700, symBinAddr: 0x36348, symSize: 0x5C }
  - { offset: 0x102EFF, size: 0x8, addend: 0x0, symName: __ZN4core6marker5FnPtr4addr17hd053fe1c838350faE, symObjAddr: 0x5E88, symBinAddr: 0x36748, symSize: 0x14 }
  - { offset: 0x10326C, size: 0x8, addend: 0x0, symName: '__ZN100_$LT$core..iter..adapters..take..Take$LT$I$GT$$u20$as$u20$core..iter..traits..iterator..Iterator$GT$4next17h3835137afc084a79E', symObjAddr: 0x0, symBinAddr: 0x3329C, symSize: 0x58 }
  - { offset: 0x1032A1, size: 0x8, addend: 0x0, symName: '__ZN100_$LT$core..iter..adapters..take..Take$LT$I$GT$$u20$as$u20$core..iter..traits..iterator..Iterator$GT$9size_hint17h00201cb2b4eab72cE', symObjAddr: 0x178, symBinAddr: 0x332F4, symSize: 0x100 }
  - { offset: 0x103482, size: 0x8, addend: 0x0, symName: __ZN4core4iter6traits8iterator8Iterator3zip17h48350b7094299e24E, symObjAddr: 0x5914, symBinAddr: 0x36410, symSize: 0xB0 }
  - { offset: 0x1034F8, size: 0x8, addend: 0x0, symName: __ZN4core4iter6traits8iterator8Iterator9enumerate17ha966f5585a9d45dcE, symObjAddr: 0x59DC, symBinAddr: 0x364C0, symSize: 0x18 }
  - { offset: 0x103529, size: 0x8, addend: 0x0, symName: __ZN4core4iter6traits8iterator8Iterator9enumerate17ha966f5585a9d45dcE, symObjAddr: 0x59DC, symBinAddr: 0x364C0, symSize: 0x18 }
  - { offset: 0x103740, size: 0x8, addend: 0x0, symName: '__ZN4core3cmp5impls69_$LT$impl$u20$core..cmp..PartialEq$LT$$RF$B$GT$$u20$for$u20$$RF$A$GT$2eq17hb637d68b2d68d89bE', symObjAddr: 0x964, symBinAddr: 0x3373C, symSize: 0x44 }
  - { offset: 0x103861, size: 0x8, addend: 0x0, symName: '__ZN4core3ops8function6FnOnce40call_once$u7b$$u7b$vtable.shim$u7d$$u7d$17h0e9cefa9d03d7035E', symObjAddr: 0x1004, symBinAddr: 0x33C10, symSize: 0x30 }
  - { offset: 0x1038A1, size: 0x8, addend: 0x0, symName: '__ZN4core3ops8function6FnOnce40call_once$u7b$$u7b$vtable.shim$u7d$$u7d$17h1194c88d10aec73bE', symObjAddr: 0x1034, symBinAddr: 0x33C40, symSize: 0x30 }
  - { offset: 0x1038E1, size: 0x8, addend: 0x0, symName: '__ZN4core3ops8function6FnOnce40call_once$u7b$$u7b$vtable.shim$u7d$$u7d$17h18aa59137d23bf00E', symObjAddr: 0x1064, symBinAddr: 0x33C70, symSize: 0x30 }
  - { offset: 0x103925, size: 0x8, addend: 0x0, symName: '__ZN4core3ops8function6FnOnce40call_once$u7b$$u7b$vtable.shim$u7d$$u7d$17h25b4cea2f1e1e93dE', symObjAddr: 0x1094, symBinAddr: 0x33CA0, symSize: 0x30 }
  - { offset: 0x103965, size: 0x8, addend: 0x0, symName: '__ZN4core3ops8function6FnOnce40call_once$u7b$$u7b$vtable.shim$u7d$$u7d$17h3222fb346b6b1660E', symObjAddr: 0x10EC, symBinAddr: 0x33CD0, symSize: 0x24 }
  - { offset: 0x1039A9, size: 0x8, addend: 0x0, symName: '__ZN4core3ops8function6FnOnce40call_once$u7b$$u7b$vtable.shim$u7d$$u7d$17h4c856a0625c8b833E', symObjAddr: 0x11D0, symBinAddr: 0x33CF4, symSize: 0x30 }
  - { offset: 0x1039E9, size: 0x8, addend: 0x0, symName: '__ZN4core3ops8function6FnOnce40call_once$u7b$$u7b$vtable.shim$u7d$$u7d$17h523f74d69eb44152E', symObjAddr: 0x1228, symBinAddr: 0x33D24, symSize: 0x30 }
  - { offset: 0x103A2D, size: 0x8, addend: 0x0, symName: '__ZN4core3ops8function6FnOnce40call_once$u7b$$u7b$vtable.shim$u7d$$u7d$17h57b5edc4dd59e42dE', symObjAddr: 0x127C, symBinAddr: 0x33D54, symSize: 0x30 }
  - { offset: 0x103A6D, size: 0x8, addend: 0x0, symName: '__ZN4core3ops8function6FnOnce40call_once$u7b$$u7b$vtable.shim$u7d$$u7d$17h61f601cf307c23d0E', symObjAddr: 0x12AC, symBinAddr: 0x33D84, symSize: 0x30 }
  - { offset: 0x103AAD, size: 0x8, addend: 0x0, symName: '__ZN4core3ops8function6FnOnce40call_once$u7b$$u7b$vtable.shim$u7d$$u7d$17h774d22a782bfcb2bE', symObjAddr: 0x1378, symBinAddr: 0x33DB4, symSize: 0x38 }
  - { offset: 0x103AF1, size: 0x8, addend: 0x0, symName: '__ZN4core3ops8function6FnOnce40call_once$u7b$$u7b$vtable.shim$u7d$$u7d$17h793fdb92a5021f23E', symObjAddr: 0x13B0, symBinAddr: 0x33DEC, symSize: 0x24 }
  - { offset: 0x103B35, size: 0x8, addend: 0x0, symName: '__ZN4core3ops8function6FnOnce40call_once$u7b$$u7b$vtable.shim$u7d$$u7d$17h7d98b778295285beE', symObjAddr: 0x13D4, symBinAddr: 0x33E10, symSize: 0x38 }
  - { offset: 0x103B79, size: 0x8, addend: 0x0, symName: '__ZN4core3ops8function6FnOnce40call_once$u7b$$u7b$vtable.shim$u7d$$u7d$17h7e617a2a73a843c3E', symObjAddr: 0x140C, symBinAddr: 0x33E48, symSize: 0x24 }
  - { offset: 0x103BBD, size: 0x8, addend: 0x0, symName: '__ZN4core3ops8function6FnOnce40call_once$u7b$$u7b$vtable.shim$u7d$$u7d$17hace17ccf098468a5E', symObjAddr: 0x15B4, symBinAddr: 0x33E6C, symSize: 0x30 }
  - { offset: 0x103C01, size: 0x8, addend: 0x0, symName: '__ZN4core3ops8function6FnOnce40call_once$u7b$$u7b$vtable.shim$u7d$$u7d$17had0d29cc437662c0E', symObjAddr: 0x15E4, symBinAddr: 0x33E9C, symSize: 0x30 }
  - { offset: 0x103C45, size: 0x8, addend: 0x0, symName: '__ZN4core3ops8function6FnOnce40call_once$u7b$$u7b$vtable.shim$u7d$$u7d$17hb01b00ceca94e4c6E', symObjAddr: 0x1614, symBinAddr: 0x33ECC, symSize: 0x24 }
  - { offset: 0x103C89, size: 0x8, addend: 0x0, symName: '__ZN4core3ops8function6FnOnce40call_once$u7b$$u7b$vtable.shim$u7d$$u7d$17hc8bbc17cbf506f6bE', symObjAddr: 0x1728, symBinAddr: 0x33EF0, symSize: 0x24 }
  - { offset: 0x103CCD, size: 0x8, addend: 0x0, symName: '__ZN4core3ops8function6FnOnce40call_once$u7b$$u7b$vtable.shim$u7d$$u7d$17hc9441a86c1b7d651E', symObjAddr: 0x174C, symBinAddr: 0x33F14, symSize: 0x24 }
  - { offset: 0x103D11, size: 0x8, addend: 0x0, symName: '__ZN4core3ops8function6FnOnce40call_once$u7b$$u7b$vtable.shim$u7d$$u7d$17hcc215dbcf1722aaeE', symObjAddr: 0x1770, symBinAddr: 0x33F38, symSize: 0x30 }
  - { offset: 0x103D55, size: 0x8, addend: 0x0, symName: '__ZN4core3ops8function6FnOnce40call_once$u7b$$u7b$vtable.shim$u7d$$u7d$17hdc66a7e39721bb66E', symObjAddr: 0x180C, symBinAddr: 0x33F68, symSize: 0x30 }
  - { offset: 0x103D95, size: 0x8, addend: 0x0, symName: '__ZN4core3ops8function6FnOnce40call_once$u7b$$u7b$vtable.shim$u7d$$u7d$17he31d982dc1972052E', symObjAddr: 0x1860, symBinAddr: 0x33F98, symSize: 0x24 }
  - { offset: 0x103DD9, size: 0x8, addend: 0x0, symName: __ZN4core3ops8function6FnOnce9call_once17h0a77f36a484be105E, symObjAddr: 0x196C, symBinAddr: 0x33FBC, symSize: 0x4C }
  - { offset: 0x103E19, size: 0x8, addend: 0x0, symName: __ZN4core3ops8function6FnOnce9call_once17h0cef8d0b5e8c6875E, symObjAddr: 0x19B8, symBinAddr: 0x34008, symSize: 0x4C }
  - { offset: 0x103E59, size: 0x8, addend: 0x0, symName: __ZN4core3ops8function6FnOnce9call_once17h12560a008accafc1E, symObjAddr: 0x1A04, symBinAddr: 0x34054, symSize: 0x24 }
  - { offset: 0x103E9D, size: 0x8, addend: 0x0, symName: __ZN4core3ops8function6FnOnce9call_once17h162f0d51a22e9951E, symObjAddr: 0x1A28, symBinAddr: 0x34078, symSize: 0x34 }
  - { offset: 0x103EE1, size: 0x8, addend: 0x0, symName: __ZN4core3ops8function6FnOnce9call_once17h18943b4a5498042bE, symObjAddr: 0x1A5C, symBinAddr: 0x340AC, symSize: 0x44 }
  - { offset: 0x103F25, size: 0x8, addend: 0x0, symName: __ZN4core3ops8function6FnOnce9call_once17h1cce902093332849E, symObjAddr: 0x1AA0, symBinAddr: 0x340F0, symSize: 0x2C }
  - { offset: 0x103F69, size: 0x8, addend: 0x0, symName: __ZN4core3ops8function6FnOnce9call_once17h2985ff17fa7aae82E, symObjAddr: 0x1BC4, symBinAddr: 0x3411C, symSize: 0x4C }
  - { offset: 0x103FA9, size: 0x8, addend: 0x0, symName: __ZN4core3ops8function6FnOnce9call_once17h2a1babe6d21231f6E, symObjAddr: 0x1C10, symBinAddr: 0x34168, symSize: 0x2C }
  - { offset: 0x103FED, size: 0x8, addend: 0x0, symName: __ZN4core3ops8function6FnOnce9call_once17h2a81100158b95aedE, symObjAddr: 0x1C3C, symBinAddr: 0x34194, symSize: 0x24 }
  - { offset: 0x104031, size: 0x8, addend: 0x0, symName: __ZN4core3ops8function6FnOnce9call_once17h331083ba2380d2e0E, symObjAddr: 0x1C84, symBinAddr: 0x341B8, symSize: 0x5C }
  - { offset: 0x104075, size: 0x8, addend: 0x0, symName: __ZN4core3ops8function6FnOnce9call_once17h5d0350b0a314128fE, symObjAddr: 0x1D68, symBinAddr: 0x34214, symSize: 0x40 }
  - { offset: 0x1040BA, size: 0x8, addend: 0x0, symName: __ZN4core3ops8function6FnOnce9call_once17h5dbee8420c9ef01fE, symObjAddr: 0x1DA8, symBinAddr: 0x34254, symSize: 0x2C }
  - { offset: 0x1040FE, size: 0x8, addend: 0x0, symName: __ZN4core3ops8function6FnOnce9call_once17h5f553a3297641033E, symObjAddr: 0x1DD4, symBinAddr: 0x34280, symSize: 0x1C }
  - { offset: 0x104142, size: 0x8, addend: 0x0, symName: __ZN4core3ops8function6FnOnce9call_once17h7465d726bf4bdffeE, symObjAddr: 0x1E30, symBinAddr: 0x3429C, symSize: 0x24 }
  - { offset: 0x104186, size: 0x8, addend: 0x0, symName: __ZN4core3ops8function6FnOnce9call_once17h7927da3e7a5552a1E, symObjAddr: 0x1E88, symBinAddr: 0x342C0, symSize: 0x24 }
  - { offset: 0x1041CA, size: 0x8, addend: 0x0, symName: __ZN4core3ops8function6FnOnce9call_once17h7976213826f54ab6E, symObjAddr: 0x1EAC, symBinAddr: 0x342E4, symSize: 0x24 }
  - { offset: 0x10420E, size: 0x8, addend: 0x0, symName: __ZN4core3ops8function6FnOnce9call_once17h7a4572d97fc63d06E, symObjAddr: 0x1ED0, symBinAddr: 0x34308, symSize: 0x4C }
  - { offset: 0x10424E, size: 0x8, addend: 0x0, symName: __ZN4core3ops8function6FnOnce9call_once17h7b6bcad46ad4eba9E, symObjAddr: 0x1F1C, symBinAddr: 0x34354, symSize: 0x40 }
  - { offset: 0x104293, size: 0x8, addend: 0x0, symName: __ZN4core3ops8function6FnOnce9call_once17h8af7805d37a2f560E, symObjAddr: 0x1FE4, symBinAddr: 0x34394, symSize: 0x2C }
  - { offset: 0x1042D7, size: 0x8, addend: 0x0, symName: __ZN4core3ops8function6FnOnce9call_once17h8f488085894832ddE, symObjAddr: 0x2010, symBinAddr: 0x343C0, symSize: 0x4C }
  - { offset: 0x104317, size: 0x8, addend: 0x0, symName: __ZN4core3ops8function6FnOnce9call_once17hb436faa843abc333E, symObjAddr: 0x20E4, symBinAddr: 0x3440C, symSize: 0x4C }
  - { offset: 0x104357, size: 0x8, addend: 0x0, symName: __ZN4core3ops8function6FnOnce9call_once17hbb322b948eadafbdE, symObjAddr: 0x2130, symBinAddr: 0x34458, symSize: 0x4C }
  - { offset: 0x10439B, size: 0x8, addend: 0x0, symName: __ZN4core3ops8function6FnOnce9call_once17hdfb9f58db7e28033E, symObjAddr: 0x21A0, symBinAddr: 0x344A4, symSize: 0x40 }
  - { offset: 0x1043E0, size: 0x8, addend: 0x0, symName: __ZN4core3ops8function6FnOnce9call_once17he66b97d95cf64671E, symObjAddr: 0x21E0, symBinAddr: 0x344E4, symSize: 0x4C }
  - { offset: 0x104424, size: 0x8, addend: 0x0, symName: __ZN4core3ops8function6FnOnce9call_once17heac5084a1cacaf77E, symObjAddr: 0x222C, symBinAddr: 0x34530, symSize: 0x58 }
  - { offset: 0x104468, size: 0x8, addend: 0x0, symName: __ZN4core3ops8function6FnOnce9call_once17heb46aa1ed650540dE, symObjAddr: 0x2284, symBinAddr: 0x34588, symSize: 0x4C }
  - { offset: 0x1044A8, size: 0x8, addend: 0x0, symName: __ZN4core3ops8function6FnOnce9call_once17hf913049f39e8b96bE, symObjAddr: 0x2328, symBinAddr: 0x345D4, symSize: 0x1C }
  - { offset: 0x10454C, size: 0x8, addend: 0x0, symName: '__ZN82_$LT$core..array..iter..IntoIter$LT$T$C$_$GT$$u20$as$u20$core..ops..drop..Drop$GT$4drop17h9aad7376a2cbc28fE', symObjAddr: 0x6C28, symBinAddr: 0x36BB8, symSize: 0x30 }
  - { offset: 0x1045A3, size: 0x8, addend: 0x0, symName: '__ZN99_$LT$core..array..iter..IntoIter$LT$T$C$_$GT$$u20$as$u20$core..iter..traits..iterator..Iterator$GT$4next17hddbeb5136cdc4555E', symObjAddr: 0x7084, symBinAddr: 0x36D94, symSize: 0x2C }
  - { offset: 0x104851, size: 0x8, addend: 0x0, symName: '__ZN45_$LT$$LP$$RP$$u20$as$u20$core..fmt..Debug$GT$3fmt17hc9f9e75855e9fb9dE', symObjAddr: 0x80C, symBinAddr: 0x336FC, symSize: 0x40 }
  - { offset: 0x104D2B, size: 0x8, addend: 0x0, symName: '__ZN53_$LT$core..fmt..Error$u20$as$u20$core..fmt..Debug$GT$3fmt17hc548f331714a94f5E', symObjAddr: 0x6264, symBinAddr: 0x3675C, symSize: 0x40 }
  - { offset: 0x104D70, size: 0x8, addend: 0x0, symName: '__ZN54_$LT$$BP$const$u20$T$u20$as$u20$core..fmt..Pointer$GT$3fmt28_$u7b$$u7b$closure$u7d$$u7d$17h79bed1229e1462f7E', symObjAddr: 0x62A4, symBinAddr: 0x3679C, symSize: 0x34 }
  - { offset: 0x104E25, size: 0x8, addend: 0x0, symName: __ZN4core5slice3raw14from_raw_parts17h60cec85c4038737cE, symObjAddr: 0x5AA4, symBinAddr: 0x364D8, symSize: 0x58 }
  - { offset: 0x104E6D, size: 0x8, addend: 0x0, symName: __ZN4core5slice3raw14from_raw_parts18precondition_check17h666acd11eab1e31dE, symObjAddr: 0x5BAC, symBinAddr: 0x36530, symSize: 0x10C }
  - { offset: 0x104F89, size: 0x8, addend: 0x0, symName: __ZN4core5slice3raw18from_raw_parts_mut18precondition_check17h718a546f03170c03E, symObjAddr: 0x5D68, symBinAddr: 0x3663C, symSize: 0x10C }
  - { offset: 0x105939, size: 0x8, addend: 0x0, symName: '__ZN4core4hash5impls52_$LT$impl$u20$core..hash..Hash$u20$for$u20$$RF$T$GT$4hash17h93229f69607fe492E', symObjAddr: 0x5830, symBinAddr: 0x363A4, symSize: 0x3C }
  - { offset: 0x105984, size: 0x8, addend: 0x0, symName: '__ZN4core4hash5impls52_$LT$impl$u20$core..hash..Hash$u20$for$u20$$RF$T$GT$4hash17hee2ab39b1805eba7E', symObjAddr: 0x586C, symBinAddr: 0x363E0, symSize: 0x30 }
  - { offset: 0x10713B, size: 0x8, addend: 0x0, symName: '__ZN103_$LT$alloc..vec..into_iter..IntoIter$LT$T$C$A$GT$$u20$as$u20$core..iter..traits..iterator..Iterator$GT$4next17h19b35af475348118E', symObjAddr: 0x278, symBinAddr: 0x333F4, symSize: 0xA8 }
  - { offset: 0x107299, size: 0x8, addend: 0x0, symName: '__ZN103_$LT$alloc..vec..into_iter..IntoIter$LT$T$C$A$GT$$u20$as$u20$core..iter..traits..iterator..Iterator$GT$4next17h667c511b318c43c2E', symObjAddr: 0x320, symBinAddr: 0x3349C, symSize: 0x94 }
  - { offset: 0x1073F3, size: 0x8, addend: 0x0, symName: '__ZN103_$LT$alloc..vec..into_iter..IntoIter$LT$T$C$A$GT$$u20$as$u20$core..iter..traits..iterator..Iterator$GT$4next17hd15c0079a060ed8aE', symObjAddr: 0x3B4, symBinAddr: 0x33530, symSize: 0x88 }
  - { offset: 0x107611, size: 0x8, addend: 0x0, symName: '__ZN157_$LT$$LT$alloc..vec..into_iter..IntoIter$LT$T$C$A$GT$$u20$as$u20$core..ops..drop..Drop$GT$..drop..DropGuard$LT$T$C$A$GT$$u20$as$u20$core..ops..drop..Drop$GT$4drop17h26840c6a7c8e4ee7E', symObjAddr: 0x5FC, symBinAddr: 0x335B8, symSize: 0x6C }
  - { offset: 0x107754, size: 0x8, addend: 0x0, symName: '__ZN157_$LT$$LT$alloc..vec..into_iter..IntoIter$LT$T$C$A$GT$$u20$as$u20$core..ops..drop..Drop$GT$..drop..DropGuard$LT$T$C$A$GT$$u20$as$u20$core..ops..drop..Drop$GT$4drop17h412aaeed03608bebE', symObjAddr: 0x668, symBinAddr: 0x33624, symSize: 0x6C }
  - { offset: 0x107897, size: 0x8, addend: 0x0, symName: '__ZN157_$LT$$LT$alloc..vec..into_iter..IntoIter$LT$T$C$A$GT$$u20$as$u20$core..ops..drop..Drop$GT$..drop..DropGuard$LT$T$C$A$GT$$u20$as$u20$core..ops..drop..Drop$GT$4drop17h5475071d9f122804E', symObjAddr: 0x6D4, symBinAddr: 0x33690, symSize: 0x6C }
  - { offset: 0x107A51, size: 0x8, addend: 0x0, symName: '__ZN86_$LT$alloc..vec..into_iter..IntoIter$LT$T$C$A$GT$$u20$as$u20$core..ops..drop..Drop$GT$4drop17h13e045450942b472E', symObjAddr: 0x6C9C, symBinAddr: 0x36BE8, symSize: 0x78 }
  - { offset: 0x107AA3, size: 0x8, addend: 0x0, symName: '__ZN86_$LT$alloc..vec..into_iter..IntoIter$LT$T$C$A$GT$$u20$as$u20$core..ops..drop..Drop$GT$4drop17h901f0e13e97a2e81E', symObjAddr: 0x6D14, symBinAddr: 0x36C60, symSize: 0x64 }
  - { offset: 0x107AF5, size: 0x8, addend: 0x0, symName: '__ZN86_$LT$alloc..vec..into_iter..IntoIter$LT$T$C$A$GT$$u20$as$u20$core..ops..drop..Drop$GT$4drop17hc6a59625008280e3E', symObjAddr: 0x6D78, symBinAddr: 0x36CC4, symSize: 0x78 }
  - { offset: 0x1082EB, size: 0x8, addend: 0x0, symName: __ZN5alloc3fmt6format17h67f2d59a4ee596d4E, symObjAddr: 0x6308, symBinAddr: 0x36800, symSize: 0xD8 }
  - { offset: 0x10839F, size: 0x8, addend: 0x0, symName: '__ZN5alloc3fmt6format28_$u7b$$u7b$closure$u7d$$u7d$17h390b90c1050d4b77E', symObjAddr: 0x63E0, symBinAddr: 0x368D8, symSize: 0x30 }
  - { offset: 0x1089B9, size: 0x8, addend: 0x0, symName: __ZN4core3ffi5c_str4CStr6as_ptr17h802a056d72d2c808E, symObjAddr: 0x9A8, symBinAddr: 0x33780, symSize: 0x18 }
  - { offset: 0x108A2B, size: 0x8, addend: 0x0, symName: __ZN4core3ffi5c_str4CStr8to_bytes17hfb7df84dfdbf9000E, symObjAddr: 0xA60, symBinAddr: 0x33798, symSize: 0x74 }
  - { offset: 0x108B12, size: 0x8, addend: 0x0, symName: __ZN4core3fmt9Arguments17from_str_nonconst17hf2470cd6488f9055E, symObjAddr: 0xAD4, symBinAddr: 0x3380C, symSize: 0x28 }
  - { offset: 0x108B64, size: 0x8, addend: 0x0, symName: __ZN4core3fmt9Arguments23as_statically_known_str17h673dd807b54cef15E, symObjAddr: 0xAFC, symBinAddr: 0x33834, symSize: 0x104 }
  - { offset: 0x108C5A, size: 0x8, addend: 0x0, symName: __ZN4core3fmt9Arguments3new17h032d9b0c2ebd9469E, symObjAddr: 0xC00, symBinAddr: 0x33938, symSize: 0x1C }
  - { offset: 0x108CA6, size: 0x8, addend: 0x0, symName: __ZN4core3fmt9Arguments3new17h08de7ef0083c9e36E, symObjAddr: 0xC1C, symBinAddr: 0x33954, symSize: 0x1C }
  - { offset: 0x108D0C, size: 0x8, addend: 0x0, symName: __ZN4core3fmt9Arguments3new17h1177f4dda100932eE, symObjAddr: 0xC38, symBinAddr: 0x33970, symSize: 0x1C }
  - { offset: 0x108D58, size: 0x8, addend: 0x0, symName: __ZN4core3fmt9Arguments3new17h20c20420e559b793E, symObjAddr: 0xC54, symBinAddr: 0x3398C, symSize: 0x1C }
  - { offset: 0x108DA4, size: 0x8, addend: 0x0, symName: __ZN4core3fmt9Arguments3new17h2701e00b9ead9c01E, symObjAddr: 0xC70, symBinAddr: 0x339A8, symSize: 0x1C }
  - { offset: 0x108E0A, size: 0x8, addend: 0x0, symName: __ZN4core3fmt9Arguments3new17h2dae172ff3d4da33E, symObjAddr: 0xC8C, symBinAddr: 0x339C4, symSize: 0x1C }
  - { offset: 0x108E3C, size: 0x8, addend: 0x0, symName: __ZN4core3fmt9Arguments3new17h42e2bd65b0d731e5E, symObjAddr: 0xCA8, symBinAddr: 0x339E0, symSize: 0x1C }
  - { offset: 0x108E88, size: 0x8, addend: 0x0, symName: __ZN4core3fmt9Arguments3new17h47d7e63ace3c3040E, symObjAddr: 0xCC4, symBinAddr: 0x339FC, symSize: 0x1C }
  - { offset: 0x108EEE, size: 0x8, addend: 0x0, symName: __ZN4core3fmt9Arguments3new17h5deae47c89c8fe83E, symObjAddr: 0xCFC, symBinAddr: 0x33A18, symSize: 0x1C }
  - { offset: 0x108F3A, size: 0x8, addend: 0x0, symName: __ZN4core3fmt9Arguments3new17h689c09eb6297a47aE, symObjAddr: 0xD18, symBinAddr: 0x33A34, symSize: 0x1C }
  - { offset: 0x108FA0, size: 0x8, addend: 0x0, symName: __ZN4core3fmt9Arguments3new17h77a16ba68e9862b6E, symObjAddr: 0xD50, symBinAddr: 0x33A50, symSize: 0x1C }
  - { offset: 0x108FF9, size: 0x8, addend: 0x0, symName: __ZN4core3fmt9Arguments3new17h802604fdf9bcd6e9E, symObjAddr: 0xD88, symBinAddr: 0x33A6C, symSize: 0x1C }
  - { offset: 0x109045, size: 0x8, addend: 0x0, symName: __ZN4core3fmt9Arguments3new17h819c1f79f6c9c178E, symObjAddr: 0xDA4, symBinAddr: 0x33A88, symSize: 0x1C }
  - { offset: 0x1090AB, size: 0x8, addend: 0x0, symName: __ZN4core3fmt9Arguments3new17h8c341fb166b120b8E, symObjAddr: 0xDDC, symBinAddr: 0x33AA4, symSize: 0x1C }
  - { offset: 0x10912B, size: 0x8, addend: 0x0, symName: __ZN4core3fmt9Arguments3new17hcf723f13a731e7b2E, symObjAddr: 0xE30, symBinAddr: 0x33AC0, symSize: 0x1C }
  - { offset: 0x109191, size: 0x8, addend: 0x0, symName: __ZN4core3fmt9Arguments3new17hd70ce2487171bbc2E, symObjAddr: 0xE4C, symBinAddr: 0x33ADC, symSize: 0x1C }
  - { offset: 0x1091DD, size: 0x8, addend: 0x0, symName: __ZN4core3fmt9Arguments3new17he4a788338c9f23a4E, symObjAddr: 0xE68, symBinAddr: 0x33AF8, symSize: 0x1C }
  - { offset: 0x10925D, size: 0x8, addend: 0x0, symName: __ZN4core3fmt9Arguments3new17hf62d9ea2132b8199E, symObjAddr: 0xEBC, symBinAddr: 0x33B14, symSize: 0x1C }
  - { offset: 0x1092A9, size: 0x8, addend: 0x0, symName: __ZN4core3fmt9Arguments3new17hf7a5cf0d4f3004a4E, symObjAddr: 0xED8, symBinAddr: 0x33B30, symSize: 0x1C }
  - { offset: 0x1092F5, size: 0x8, addend: 0x0, symName: __ZN4core3fmt9Arguments8from_str17h1dbdb4724824a72fE, symObjAddr: 0xF10, symBinAddr: 0x33B4C, symSize: 0x20 }
  - { offset: 0x109318, size: 0x8, addend: 0x0, symName: __ZN4core3fmt9Formatter9write_fmt17h2da274dc9be43533E, symObjAddr: 0xF30, symBinAddr: 0x33B6C, symSize: 0xA4 }
  - { offset: 0x1094C0, size: 0x8, addend: 0x0, symName: '__ZN5alloc3vec9into_iter21IntoIter$LT$T$C$A$GT$16as_raw_mut_slice17h052e045852c62765E', symObjAddr: 0x6410, symBinAddr: 0x36908, symSize: 0xCC }
  - { offset: 0x10967A, size: 0x8, addend: 0x0, symName: '__ZN5alloc3vec9into_iter21IntoIter$LT$T$C$A$GT$16as_raw_mut_slice17h0d5afbd22daf1fc5E', symObjAddr: 0x64DC, symBinAddr: 0x369D4, symSize: 0xCC }
  - { offset: 0x109834, size: 0x8, addend: 0x0, symName: '__ZN5alloc3vec9into_iter21IntoIter$LT$T$C$A$GT$16as_raw_mut_slice17h68c27b650480f368E', symObjAddr: 0x65A8, symBinAddr: 0x36AA0, symSize: 0xCC }
  - { offset: 0x1099E2, size: 0x8, addend: 0x0, symName: '__ZN88_$LT$hashbrown..scopeguard..ScopeGuard$LT$T$C$F$GT$$u20$as$u20$core..ops..drop..Drop$GT$4drop17h1b505a725ebbae05E', symObjAddr: 0x6DF0, symBinAddr: 0x36D3C, symSize: 0x2C }
  - { offset: 0x109A1C, size: 0x8, addend: 0x0, symName: '__ZN88_$LT$hashbrown..scopeguard..ScopeGuard$LT$T$C$F$GT$$u20$as$u20$core..ops..drop..Drop$GT$4drop17ha065a36c93fdc08fE', symObjAddr: 0x6E1C, symBinAddr: 0x36D68, symSize: 0x2C }
  - { offset: 0x109ACD, size: 0x8, addend: 0x0, symName: '__ZN9hashbrown11rustc_entry62_$LT$impl$u20$hashbrown..map..HashMap$LT$K$C$V$C$S$C$A$GT$$GT$11rustc_entry28_$u7b$$u7b$closure$u7d$$u7d$17h8f51dfab8a31cc10E', symObjAddr: 0x70D4, symBinAddr: 0x36DC0, symSize: 0x38 }
  - { offset: 0x10AAE9, size: 0x8, addend: 0x0, symName: '__ZN105_$LT$std..collections..hash..map..Iter$LT$K$C$V$GT$$u20$as$u20$core..iter..traits..iterator..Iterator$GT$4next17hbb39792a45fd9363E', symObjAddr: 0x0, symBinAddr: 0x36DF8, symSize: 0x24 }
  - { offset: 0x10BE05, size: 0x8, addend: 0x0, symName: __ZN4core4iter6traits8iterator8Iterator3map17h3b24e6fb1a714527E, symObjAddr: 0x110C, symBinAddr: 0x37244, symSize: 0x50 }
  - { offset: 0x10C12A, size: 0x8, addend: 0x0, symName: '__ZN118_$LT$$u5b$core..mem..maybe_uninit..MaybeUninit$LT$T$GT$$u5d$$u20$as$u20$core..array..iter..iter_inner..PartialDrop$GT$12partial_drop17h79a111eea25b8cf5E', symObjAddr: 0x5BC, symBinAddr: 0x36E48, symSize: 0xA0 }
  - { offset: 0x10C232, size: 0x8, addend: 0x0, symName: '__ZN129_$LT$$u5b$core..mem..maybe_uninit..MaybeUninit$LT$T$GT$$u3b$$u20$N$u5d$$u20$as$u20$core..array..iter..iter_inner..PartialDrop$GT$12partial_drop17h3840c95e4784ba29E', symObjAddr: 0x748, symBinAddr: 0x36EE8, symSize: 0x4C }
  - { offset: 0x10C2A6, size: 0x8, addend: 0x0, symName: __ZN4core9core_arch7aarch644neon9generated7vld1_u817he437d3d6826342f5E, symObjAddr: 0x1540, symBinAddr: 0x37374, symSize: 0x34 }
  - { offset: 0x10C2D4, size: 0x8, addend: 0x0, symName: __ZN4core9core_arch7aarch644neon9generated7vst1_u817he6bcf10751157e40E, symObjAddr: 0x1574, symBinAddr: 0x373A8, symSize: 0x40 }
  - { offset: 0x10C30E, size: 0x8, addend: 0x0, symName: __ZN4core9core_arch7aarch644neon9generated8vcgez_s817h5e512221dab8a9c7E, symObjAddr: 0x15B4, symBinAddr: 0x373E8, symSize: 0x68 }
  - { offset: 0x10C3B0, size: 0x8, addend: 0x0, symName: __ZN4core9core_arch7aarch644neon9generated8vcltz_s817he5422cfc2c00f86eE, symObjAddr: 0x161C, symBinAddr: 0x37450, symSize: 0x68 }
  - { offset: 0x10C8E4, size: 0x8, addend: 0x0, symName: __ZN4pyo311conversions3std3num20err_if_invalid_value17h594dc2b754684899E, symObjAddr: 0x18E4, symBinAddr: 0x374B8, symSize: 0xD8 }
  - { offset: 0x10C969, size: 0x8, addend: 0x0, symName: '__ZN4pyo311conversions3std3num64_$LT$impl$u20$pyo3..conversion..FromPyObject$u20$for$u20$i64$GT$7extract17hd89a681e29e3ee26E', symObjAddr: 0x2140, symBinAddr: 0x37590, symSize: 0xD4 }
  - { offset: 0x10C9D7, size: 0x8, addend: 0x0, symName: '__ZN4pyo311conversions3std3num64_$LT$impl$u20$pyo3..conversion..IntoPyObject$u20$for$u20$u64$GT$13into_pyobject17h4f1353d3fd0f3afeE', symObjAddr: 0x2780, symBinAddr: 0x37664, symSize: 0x30 }
  - { offset: 0x10CA22, size: 0x8, addend: 0x0, symName: '__ZN4pyo311conversions3std3num66_$LT$impl$u20$pyo3..conversion..IntoPyObject$u20$for$u20$usize$GT$13into_pyobject17h743bcfc4770a6a19E', symObjAddr: 0x29D8, symBinAddr: 0x37694, symSize: 0x20 }
  - { offset: 0x10D795, size: 0x8, addend: 0x0, symName: '__ZN105_$LT$std..collections..hash..map..Iter$LT$K$C$V$GT$$u20$as$u20$core..iter..traits..iterator..Iterator$GT$4next17hbb39792a45fd9363E', symObjAddr: 0x0, symBinAddr: 0x36DF8, symSize: 0x24 }
  - { offset: 0x10D7D5, size: 0x8, addend: 0x0, symName: '__ZN105_$LT$std..collections..hash..map..Iter$LT$K$C$V$GT$$u20$as$u20$core..iter..traits..iterator..Iterator$GT$9size_hint17h85abf8fa00db16aaE', symObjAddr: 0x24, symBinAddr: 0x36E1C, symSize: 0x2C }
  - { offset: 0x10E002, size: 0x8, addend: 0x0, symName: '__ZN5alloc3str56_$LT$impl$u20$alloc..borrow..ToOwned$u20$for$u20$str$GT$8to_owned17h7cf5c20978961144E', symObjAddr: 0x5464, symBinAddr: 0x376B4, symSize: 0x50 }
  - { offset: 0x10EA3D, size: 0x8, addend: 0x0, symName: '__ZN3std11collections4hash3map18Entry$LT$K$C$V$GT$10or_default17he9fa6bd94d62a4dbE', symObjAddr: 0xAD8, symBinAddr: 0x36F34, symSize: 0x190 }
  - { offset: 0x10EC9B, size: 0x8, addend: 0x0, symName: '__ZN3std11collections4hash3map20HashMap$LT$K$C$V$GT$3new17ha4703cb8ae6ba464E', symObjAddr: 0xC68, symBinAddr: 0x370C4, symSize: 0x7C }
  - { offset: 0x10EDB5, size: 0x8, addend: 0x0, symName: '__ZN3std11collections4hash3map24HashMap$LT$K$C$V$C$S$GT$3len17h52d8b4043e9f2408E', symObjAddr: 0xCE4, symBinAddr: 0x37140, symSize: 0x18 }
  - { offset: 0x10EE56, size: 0x8, addend: 0x0, symName: '__ZN3std11collections4hash3map24HashMap$LT$K$C$V$C$S$GT$4iter17h827a768942b465d0E', symObjAddr: 0xCFC, symBinAddr: 0x37158, symSize: 0x44 }
  - { offset: 0x10EEA1, size: 0x8, addend: 0x0, symName: '__ZN3std11collections4hash3map24HashMap$LT$K$C$V$C$S$GT$5entry17haca3b2cccc922ce2E', symObjAddr: 0xD40, symBinAddr: 0x3719C, symSize: 0xA8 }
  - { offset: 0x10EF7A, size: 0x8, addend: 0x0, symName: '__ZN4core4iter8adapters7step_by15StepBy$LT$I$GT$3new17he7db7f08421aa2d9E', symObjAddr: 0x12C0, symBinAddr: 0x37294, symSize: 0xE0 }
  - { offset: 0x10F4DE, size: 0x8, addend: 0x0, symName: '__ZN4pyo33err5PyErr3new28_$u7b$$u7b$closure$u7d$$u7d$17h13f33d0cd59bfceeE', symObjAddr: 0x45A8, symBinAddr: 0x39180, symSize: 0xC8 }
  - { offset: 0x10F536, size: 0x8, addend: 0x0, symName: '__ZN4pyo33err5PyErr3new28_$u7b$$u7b$closure$u7d$$u7d$17h1f0fe9214b4cdda1E', symObjAddr: 0x47F0, symBinAddr: 0x39248, symSize: 0xD4 }
  - { offset: 0x10F58F, size: 0x8, addend: 0x0, symName: '__ZN4pyo33err5PyErr3new28_$u7b$$u7b$closure$u7d$$u7d$17h285972bd568a3617E', symObjAddr: 0x4974, symBinAddr: 0x3931C, symSize: 0xC0 }
  - { offset: 0x10F5E7, size: 0x8, addend: 0x0, symName: '__ZN4pyo33err5PyErr3new28_$u7b$$u7b$closure$u7d$$u7d$17h2dd57042ade41d43E', symObjAddr: 0x4A34, symBinAddr: 0x393DC, symSize: 0xD4 }
  - { offset: 0x10F640, size: 0x8, addend: 0x0, symName: '__ZN4pyo33err5PyErr3new28_$u7b$$u7b$closure$u7d$$u7d$17ha22e50af723e3ea4E', symObjAddr: 0x57D8, symBinAddr: 0x394B0, symSize: 0xC0 }
  - { offset: 0x10F698, size: 0x8, addend: 0x0, symName: '__ZN4pyo33err5PyErr3new28_$u7b$$u7b$closure$u7d$$u7d$17habb81f0eb540a17aE', symObjAddr: 0x5898, symBinAddr: 0x39570, symSize: 0xD4 }
  - { offset: 0x10F6F1, size: 0x8, addend: 0x0, symName: '__ZN4pyo33err5PyErr3new28_$u7b$$u7b$closure$u7d$$u7d$17hbf602e041b85b211E', symObjAddr: 0x5A2C, symBinAddr: 0x39644, symSize: 0xC0 }
  - { offset: 0x10F749, size: 0x8, addend: 0x0, symName: '__ZN4pyo33err5PyErr3new28_$u7b$$u7b$closure$u7d$$u7d$17hd61a91e5a72bb235E', symObjAddr: 0x5AEC, symBinAddr: 0x39704, symSize: 0xD4 }
  - { offset: 0x10F7A8, size: 0x8, addend: 0x0, symName: '__ZN4pyo33err5PyErr4take28_$u7b$$u7b$closure$u7d$$u7d$17hae0114771a93d08bE', symObjAddr: 0x612C, symBinAddr: 0x39A48, symSize: 0x7C }
  - { offset: 0x10F7E1, size: 0x8, addend: 0x0, symName: '__ZN4pyo33err5PyErr4take28_$u7b$$u7b$closure$u7d$$u7d$17hf701ad6bba1da6a4E', symObjAddr: 0x61A8, symBinAddr: 0x39AC4, symSize: 0x64 }
  - { offset: 0x10F82B, size: 0x8, addend: 0x0, symName: '__ZN4pyo33err5PyErr9set_cause28_$u7b$$u7b$closure$u7d$$u7d$17h54ac7ce9aa2402abE', symObjAddr: 0x6798, symBinAddr: 0x39F94, symSize: 0x38 }
  - { offset: 0x10F8DC, size: 0x8, addend: 0x0, symName: '__ZN4pyo33err10cast_error106_$LT$impl$u20$core..convert..From$LT$pyo3..err..cast_error..CastError$GT$$u20$for$u20$pyo3..err..PyErr$GT$4from17h13b123ceb2e11005E', symObjAddr: 0x17B8, symBinAddr: 0x38280, symSize: 0xF4 }
  - { offset: 0x10F92B, size: 0x8, addend: 0x0, symName: '__ZN4pyo33err10cast_error110_$LT$impl$u20$core..convert..From$LT$pyo3..err..cast_error..CastIntoError$GT$$u20$for$u20$pyo3..err..PyErr$GT$4from17h96ee470f6a453440E', symObjAddr: 0x18AC, symBinAddr: 0x38374, symSize: 0xF8 }
  - { offset: 0x10F9BD, size: 0x8, addend: 0x0, symName: '__ZN47_$LT$T$u20$as$u20$pyo3..err..PyErrArguments$GT$9arguments17h9d3ba9b317270dedE', symObjAddr: 0x48C, symBinAddr: 0x37A84, symSize: 0x11C }
  - { offset: 0x10FA75, size: 0x8, addend: 0x0, symName: '__ZN47_$LT$T$u20$as$u20$pyo3..err..PyErrArguments$GT$9arguments17hbc4e5656da3c4913E', symObjAddr: 0x5A8, symBinAddr: 0x37BA0, symSize: 0x40 }
  - { offset: 0x1105E5, size: 0x8, addend: 0x0, symName: __ZN4pyo33err17error_on_minusone17h946024dca3cf681cE, symObjAddr: 0x1C48, symBinAddr: 0x3846C, symSize: 0xC8 }
  - { offset: 0x110637, size: 0x8, addend: 0x0, symName: __ZN4pyo33err17error_on_minusone17hf4c48e15dae805bbE, symObjAddr: 0x1D10, symBinAddr: 0x38534, symSize: 0xC8 }
  - { offset: 0x110689, size: 0x8, addend: 0x0, symName: __ZN4pyo33err17panic_after_error17h35e6ac77cee704c2E, symObjAddr: 0x1DD8, symBinAddr: 0x385FC, symSize: 0x30 }
  - { offset: 0x1106C9, size: 0x8, addend: 0x0, symName: '__ZN4pyo33err5impls101_$LT$impl$u20$core..convert..From$LT$alloc..ffi..c_str..NulError$GT$$u20$for$u20$pyo3..err..PyErr$GT$4from17hfd80f18fcdf90d25E', symObjAddr: 0x67F8, symBinAddr: 0x39FF4, symSize: 0x34 }
  - { offset: 0x1106FD, size: 0x8, addend: 0x0, symName: '__ZN53_$LT$pyo3..err..PyErr$u20$as$u20$core..fmt..Debug$GT$3fmt17hc83615f115578e61E', symObjAddr: 0x73F4, symBinAddr: 0x3A0C8, symSize: 0x40 }
  - { offset: 0x11073F, size: 0x8, addend: 0x0, symName: '__ZN53_$LT$pyo3..err..PyErr$u20$as$u20$core..fmt..Debug$GT$3fmt28_$u7b$$u7b$closure$u7d$$u7d$17h8e52beab2e3cb0c2E', symObjAddr: 0x7434, symBinAddr: 0x3A108, symSize: 0x178 }
  - { offset: 0x1107A3, size: 0x8, addend: 0x0, symName: '__ZN53_$LT$pyo3..err..PyErr$u20$as$u20$core..fmt..Debug$GT$3fmt28_$u7b$$u7b$closure$u7d$$u7d$28_$u7b$$u7b$closure$u7d$$u7d$17he6cf5739397994ebE', symObjAddr: 0x75AC, symBinAddr: 0x3A280, symSize: 0x1AC }
  - { offset: 0x110899, size: 0x8, addend: 0x0, symName: '__ZN55_$LT$pyo3..err..PyErr$u20$as$u20$core..fmt..Display$GT$3fmt17h61065b114d56c991E', symObjAddr: 0x7758, symBinAddr: 0x3A42C, symSize: 0x34 }
  - { offset: 0x1108DB, size: 0x8, addend: 0x0, symName: '__ZN55_$LT$pyo3..err..PyErr$u20$as$u20$core..fmt..Display$GT$3fmt28_$u7b$$u7b$closure$u7d$$u7d$17h380a3eb31608e8d7E', symObjAddr: 0x778C, symBinAddr: 0x3A460, symSize: 0x3B0 }
  - { offset: 0x110A44, size: 0x8, addend: 0x0, symName: '__ZN55_$LT$pyo3..err..PyErr$u20$as$u20$core..fmt..Display$GT$3fmt28_$u7b$$u7b$closure$u7d$$u7d$28_$u7b$$u7b$closure$u7d$$u7d$17h9a64b803702a857eE', symObjAddr: 0x7B3C, symBinAddr: 0x3A810, symSize: 0x1C }
  - { offset: 0x110CFF, size: 0x8, addend: 0x0, symName: '__ZN128_$LT$pyo3..impl_..pyclass_init..PyNativeTypeInitializer$LT$T$GT$$u20$as$u20$pyo3..impl_..pyclass_init..PyObjectInit$LT$T$GT$$GT$15into_new_object5inner17h6590a0764c8859c1E', symObjAddr: 0x118, symBinAddr: 0x37734, symSize: 0x25C }
  - { offset: 0x110E0A, size: 0x8, addend: 0x0, symName: __ZN4pyo310conversion15IntoPyObjectExt17into_bound_py_any17h3e9e0f97aad9337cE, symObjAddr: 0x1480, symBinAddr: 0x381E0, symSize: 0x54 }
  - { offset: 0x110E75, size: 0x8, addend: 0x0, symName: __ZN4pyo310conversion15IntoPyObjectExt22into_pyobject_or_pyerr17ha833cc5d634ed979E, symObjAddr: 0x1650, symBinAddr: 0x38234, symSize: 0x4C }
  - { offset: 0x110F07, size: 0x8, addend: 0x0, symName: '__ZN4pyo36pycell101_$LT$impl$u20$core..convert..From$LT$pyo3..pycell..PyBorrowError$GT$$u20$for$u20$pyo3..err..PyErr$GT$4from17h3ae0d81a44fe412bE', symObjAddr: 0x7214, symBinAddr: 0x3A028, symSize: 0x38 }
  - { offset: 0x110F47, size: 0x8, addend: 0x0, symName: '__ZN4pyo36pycell104_$LT$impl$u20$core..convert..From$LT$pyo3..pycell..PyBorrowMutError$GT$$u20$for$u20$pyo3..err..PyErr$GT$4from17hb3f70d7d72fe9d7dE', symObjAddr: 0x724C, symBinAddr: 0x3A060, symSize: 0x38 }
  - { offset: 0x112674, size: 0x8, addend: 0x0, symName: '__ZN100_$LT$core..array..iter..iter_inner..PolymorphicIter$LT$DATA$GT$$u20$as$u20$core..ops..drop..Drop$GT$4drop17hb15eeadefc766ed9E', symObjAddr: 0x30, symBinAddr: 0x37704, symSize: 0x30 }
  - { offset: 0x112BA9, size: 0x8, addend: 0x0, symName: '__ZN50_$LT$T$u20$as$u20$core..convert..Into$LT$U$GT$$GT$4into17h300e68fe2b49a81dE', symObjAddr: 0x736C, symBinAddr: 0x3A098, symSize: 0x30 }
  - { offset: 0x112D0B, size: 0x8, addend: 0x0, symName: '__ZN4core3fmt3num52_$LT$impl$u20$core..fmt..Debug$u20$for$u20$usize$GT$3fmt17h622e03aac5c53f24E', symObjAddr: 0x7FC, symBinAddr: 0x37BE0, symSize: 0x90 }
  - { offset: 0x112DC1, size: 0x8, addend: 0x0, symName: '__ZN4core3fmt8builders11DebugStruct10field_with28_$u7b$$u7b$closure$u7d$$u7d$17heb745aee6831175dE', symObjAddr: 0x938, symBinAddr: 0x37D1C, symSize: 0x354 }
  - { offset: 0x114677, size: 0x8, addend: 0x0, symName: '__ZN3std3sys4sync5mutex7pthread5Mutex3get28_$u7b$$u7b$closure$u7d$$u7d$17h6322427feeb4fd8cE', symObjAddr: 0x374, symBinAddr: 0x37990, symSize: 0xF4 }
  - { offset: 0x115272, size: 0x8, addend: 0x0, symName: __ZN4core3fmt8builders11DebugStruct10field_with17h9e8d7d9dcf2c52cbE, symObjAddr: 0x88C, symBinAddr: 0x37C70, symSize: 0xAC }
  - { offset: 0x115527, size: 0x8, addend: 0x0, symName: '__ZN4core5array4iter10iter_inner78PolymorphicIter$LT$$u5b$core..mem..maybe_uninit..MaybeUninit$LT$T$GT$$u5d$$GT$4next17h6e5d08c63d96bcc6E', symObjAddr: 0x119C, symBinAddr: 0x38070, symSize: 0x170 }
  - { offset: 0x1157CB, size: 0x8, addend: 0x0, symName: __ZN4pyo33err5PyErr10from_state17ha7a27e78700afbb4E, symObjAddr: 0x1E08, symBinAddr: 0x3862C, symSize: 0x30 }
  - { offset: 0x1157EF, size: 0x8, addend: 0x0, symName: __ZN4pyo33err5PyErr10from_value17h476e5e95a0e755cbE, symObjAddr: 0x1E38, symBinAddr: 0x3865C, symSize: 0x1B4 }
  - { offset: 0x11588C, size: 0x8, addend: 0x0, symName: __ZN4pyo33err5PyErr10into_value17h22821170ab65c2c1E, symObjAddr: 0x1FEC, symBinAddr: 0x38810, symSize: 0x128 }
  - { offset: 0x115914, size: 0x8, addend: 0x0, symName: __ZN4pyo33err5PyErr10normalized17hc47181cdcda586c1E, symObjAddr: 0x2114, symBinAddr: 0x38938, symSize: 0x24 }
  - { offset: 0x11595F, size: 0x8, addend: 0x0, symName: __ZN4pyo33err5PyErr11is_instance17hba662daa5787f992E, symObjAddr: 0x2138, symBinAddr: 0x3895C, symSize: 0xA0 }
  - { offset: 0x1159C2, size: 0x8, addend: 0x0, symName: __ZN4pyo33err5PyErr14is_instance_of17h38cdfa978b785ac8E, symObjAddr: 0x22F0, symBinAddr: 0x389FC, symSize: 0x84 }
  - { offset: 0x115A09, size: 0x8, addend: 0x0, symName: __ZN4pyo33err5PyErr16write_unraisable17h78566d39feb82ea9E, symObjAddr: 0x2A28, symBinAddr: 0x38A80, symSize: 0x58 }
  - { offset: 0x115A64, size: 0x8, addend: 0x0, symName: __ZN4pyo33err5PyErr22print_panic_and_unwind17h46895a170bcd23f5E, symObjAddr: 0x2A80, symBinAddr: 0x38AD8, symSize: 0x1AC }
  - { offset: 0x115ADE, size: 0x8, addend: 0x0, symName: __ZN4pyo33err5PyErr3new17h3a5740f3c239c95bE, symObjAddr: 0x2D88, symBinAddr: 0x38C84, symSize: 0xA0 }
  - { offset: 0x115B3D, size: 0x8, addend: 0x0, symName: __ZN4pyo33err5PyErr3new17h533c7c5ea5ff1bd9E, symObjAddr: 0x30F4, symBinAddr: 0x38D24, symSize: 0xA0 }
  - { offset: 0x115B9C, size: 0x8, addend: 0x0, symName: __ZN4pyo33err5PyErr3new17h57e278eac07bce1cE, symObjAddr: 0x3194, symBinAddr: 0x38DC4, symSize: 0xA0 }
  - { offset: 0x115BFB, size: 0x8, addend: 0x0, symName: __ZN4pyo33err5PyErr3new17h8186fb4daa501340E, symObjAddr: 0x3448, symBinAddr: 0x38E64, symSize: 0xA0 }
  - { offset: 0x115C5A, size: 0x8, addend: 0x0, symName: __ZN4pyo33err5PyErr3new17ha66337d57664504dE, symObjAddr: 0x3784, symBinAddr: 0x38F04, symSize: 0x9C }
  - { offset: 0x115CB8, size: 0x8, addend: 0x0, symName: __ZN4pyo33err5PyErr3new17hae03b32996e8a625E, symObjAddr: 0x3A68, symBinAddr: 0x38FA0, symSize: 0xA8 }
  - { offset: 0x115D16, size: 0x8, addend: 0x0, symName: __ZN4pyo33err5PyErr3new17hb442a0eb14b9faecE, symObjAddr: 0x3B10, symBinAddr: 0x39048, symSize: 0x9C }
  - { offset: 0x115D74, size: 0x8, addend: 0x0, symName: __ZN4pyo33err5PyErr3new17hceeafae7ef883055E, symObjAddr: 0x3D28, symBinAddr: 0x390E4, symSize: 0x9C }
  - { offset: 0x115DC5, size: 0x8, addend: 0x0, symName: __ZN4pyo33err5PyErr4take17h7cd876e16ea58d16E, symObjAddr: 0x5EBC, symBinAddr: 0x397D8, symSize: 0x270 }
  - { offset: 0x115EBB, size: 0x8, addend: 0x0, symName: __ZN4pyo33err5PyErr5cause17h1d49e2bfb0d473ecE, symObjAddr: 0x6280, symBinAddr: 0x39B28, symSize: 0x44 }
  - { offset: 0x115F17, size: 0x8, addend: 0x0, symName: __ZN4pyo33err5PyErr5fetch17ha7cc0f8d6f5ec47aE, symObjAddr: 0x62C4, symBinAddr: 0x39B6C, symSize: 0x5C }
  - { offset: 0x115F53, size: 0x8, addend: 0x0, symName: __ZN4pyo33err5PyErr5value17h43428a3f7208405bE, symObjAddr: 0x635C, symBinAddr: 0x39BC8, symSize: 0x28 }
  - { offset: 0x115F8E, size: 0x8, addend: 0x0, symName: __ZN4pyo33err5PyErr7restore17hb252f40d6671b3d5E, symObjAddr: 0x63B0, symBinAddr: 0x39BF0, symSize: 0x38 }
  - { offset: 0x115FCD, size: 0x8, addend: 0x0, symName: __ZN4pyo33err5PyErr8get_type17h27e574ae3d66d21eE, symObjAddr: 0x63E8, symBinAddr: 0x39C28, symSize: 0x28 }
  - { offset: 0x116015, size: 0x8, addend: 0x0, symName: __ZN4pyo33err5PyErr8new_type17hf513785c4d4f3affE, symObjAddr: 0x6410, symBinAddr: 0x39C50, symSize: 0x1E0 }
  - { offset: 0x116169, size: 0x8, addend: 0x0, symName: __ZN4pyo33err5PyErr9set_cause17h56844539d288822dE, symObjAddr: 0x6634, symBinAddr: 0x39E30, symSize: 0x164 }
  - { offset: 0x1161F9, size: 0x8, addend: 0x0, symName: __ZN4pyo33err5PyErr9traceback17he9b7e39b450d8282E, symObjAddr: 0x67D0, symBinAddr: 0x39FCC, symSize: 0x28 }
  - { offset: 0x11795D, size: 0x8, addend: 0x0, symName: __ZN4core9panicking13assert_failed17hecb6e6e15cd95bc9E, symObjAddr: 0x1360, symBinAddr: 0x71174, symSize: 0x54 }
  - { offset: 0x1179C6, size: 0x8, addend: 0x0, symName: __ZN4core9panicking13panic_display17h07193352383cd361E, symObjAddr: 0x13B4, symBinAddr: 0x3AFBC, symSize: 0x5C }
  - { offset: 0x118257, size: 0x8, addend: 0x0, symName: '__ZN53_$LT$T$u20$as$u20$core..slice..cmp..SliceContains$GT$14slice_contains28_$u7b$$u7b$closure$u7d$$u7d$17h2aab33ec987ee33fE', symObjAddr: 0x3FB4, symBinAddr: 0x3BE58, symSize: 0x38 }
  - { offset: 0x1182A7, size: 0x8, addend: 0x0, symName: '__ZN73_$LT$$u5b$A$u5d$$u20$as$u20$core..slice..cmp..SlicePartialEq$LT$B$GT$$GT$5equal17ha8f1f0cc8696505cE', symObjAddr: 0x4BA8, symBinAddr: 0x3C76C, symSize: 0x88 }
  - { offset: 0x11832D, size: 0x8, addend: 0x0, symName: '__ZN73_$LT$$u5b$A$u5d$$u20$as$u20$core..slice..cmp..SlicePartialEq$LT$B$GT$$GT$5equal17hee1abdf8c65cc636E', symObjAddr: 0x4C30, symBinAddr: 0x3C7F4, symSize: 0x88 }
  - { offset: 0x11862C, size: 0x8, addend: 0x0, symName: __ZN4core4hash3sip9u8to64_le17h5d13f4a9150ab672E, symObjAddr: 0xE3C, symBinAddr: 0x3AC84, symSize: 0x240 }
  - { offset: 0x1187E9, size: 0x8, addend: 0x0, symName: '__ZN69_$LT$core..hash..sip..Sip13Rounds$u20$as$u20$core..hash..sip..Sip$GT$8c_rounds17h1b21bb1ac179308dE', symObjAddr: 0x41E8, symBinAddr: 0x3BE90, symSize: 0x1A0 }
  - { offset: 0x11895E, size: 0x8, addend: 0x0, symName: '__ZN69_$LT$core..hash..sip..Sip13Rounds$u20$as$u20$core..hash..sip..Sip$GT$8d_rounds17hb547f97ef3ad28ccE', symObjAddr: 0x4388, symBinAddr: 0x3C030, symSize: 0x46C }
  - { offset: 0x118D9B, size: 0x8, addend: 0x0, symName: '__ZN71_$LT$core..hash..sip..Hasher$LT$S$GT$$u20$as$u20$core..hash..Hasher$GT$5write17h9934cbcf341ce758E', symObjAddr: 0x4884, symBinAddr: 0x3C49C, symSize: 0x230 }
  - { offset: 0x118F11, size: 0x8, addend: 0x0, symName: '__ZN71_$LT$core..hash..sip..Hasher$LT$S$GT$$u20$as$u20$core..hash..Hasher$GT$6finish17h4c9f635b17857369E', symObjAddr: 0x4AB4, symBinAddr: 0x3C6CC, symSize: 0xA0 }
  - { offset: 0x118FA5, size: 0x8, addend: 0x0, symName: '__ZN4core4iter6traits8iterator8Iterator8find_map5check28_$u7b$$u7b$closure$u7d$$u7d$17h0adc846117afaddaE', symObjAddr: 0x107C, symBinAddr: 0x3AEC4, symSize: 0x7C }
  - { offset: 0x119028, size: 0x8, addend: 0x0, symName: '__ZN4core4iter6traits8iterator8Iterator8find_map5check28_$u7b$$u7b$closure$u7d$$u7d$17h2a600d4f1399b595E', symObjAddr: 0x10F8, symBinAddr: 0x3AF40, symSize: 0x7C }
  - { offset: 0x119100, size: 0x8, addend: 0x0, symName: '__ZN50_$LT$T$u20$as$u20$core..convert..Into$LT$U$GT$$GT$4into17hef236347399cde75E', symObjAddr: 0x3DF8, symBinAddr: 0x3BDDC, symSize: 0x14 }
  - { offset: 0x119146, size: 0x8, addend: 0x0, symName: '__ZN53_$LT$T$u20$as$u20$core..convert..TryFrom$LT$U$GT$$GT$8try_from17h445a2bab341d74b3E', symObjAddr: 0x3EEC, symBinAddr: 0x3BDF0, symSize: 0x28 }
  - { offset: 0x11918C, size: 0x8, addend: 0x0, symName: '__ZN53_$LT$T$u20$as$u20$core..convert..TryInto$LT$U$GT$$GT$8try_into17h32526b214231c0f6E', symObjAddr: 0x3F14, symBinAddr: 0x3BE18, symSize: 0x20 }
  - { offset: 0x1191CC, size: 0x8, addend: 0x0, symName: '__ZN53_$LT$T$u20$as$u20$core..convert..TryInto$LT$U$GT$$GT$8try_into17he0b1e1256c9a475dE', symObjAddr: 0x3F74, symBinAddr: 0x3BE38, symSize: 0x20 }
  - { offset: 0x1197A7, size: 0x8, addend: 0x0, symName: __ZN3std5panic12catch_unwind17h3233d56c5e771b3dE, symObjAddr: 0x76C, symBinAddr: 0x3A82C, symSize: 0xC4 }
  - { offset: 0x119859, size: 0x8, addend: 0x0, symName: __ZN3std5panic12catch_unwind17h7aa12c700a612d82E, symObjAddr: 0x830, symBinAddr: 0x3A8F0, symSize: 0xC4 }
  - { offset: 0x11990B, size: 0x8, addend: 0x0, symName: __ZN3std5panic12catch_unwind17hca8e8bc2341446f9E, symObjAddr: 0x8F4, symBinAddr: 0x3A9B4, symSize: 0xC0 }
  - { offset: 0x11999D, size: 0x8, addend: 0x0, symName: __ZN3std5panic12catch_unwind17hdb8fdd5aacd97ac6E, symObjAddr: 0x9B4, symBinAddr: 0x3AA74, symSize: 0xC4 }
  - { offset: 0x119A4F, size: 0x8, addend: 0x0, symName: __ZN3std5panic12catch_unwind17heeb46df79184fb35E, symObjAddr: 0xA78, symBinAddr: 0x3AB38, symSize: 0xC0 }
  - { offset: 0x119D9E, size: 0x8, addend: 0x0, symName: '__ZN4pyo33err9err_state10PyErrState14lazy_arguments28_$u7b$$u7b$closure$u7d$$u7d$17hef1c0269801430a6E', symObjAddr: 0x1990, symBinAddr: 0x3B400, symSize: 0x70 }
  - { offset: 0x119E04, size: 0x8, addend: 0x0, symName: '__ZN4pyo33err9err_state10PyErrState10normalized28_$u7b$$u7b$closure$u7d$$u7d$17h7f899739a1a79949E', symObjAddr: 0x17E0, symBinAddr: 0x3B250, symSize: 0xC }
  - { offset: 0x119E35, size: 0x8, addend: 0x0, symName: '__ZN4pyo33err9err_state10PyErrState15make_normalized28_$u7b$$u7b$closure$u7d$$u7d$17hf9151bc46f941e81E', symObjAddr: 0x1CD0, symBinAddr: 0x3B470, symSize: 0x34 }
  - { offset: 0x119E64, size: 0x8, addend: 0x0, symName: '__ZN4pyo33err9err_state10PyErrState15make_normalized28_$u7b$$u7b$closure$u7d$$u7d$28_$u7b$$u7b$closure$u7d$$u7d$17hc0aeb5bd6994989aE', symObjAddr: 0x1D04, symBinAddr: 0x3B4A4, symSize: 0x360 }
  - { offset: 0x119F16, size: 0x8, addend: 0x0, symName: '__ZN4pyo33err9err_state10PyErrState15make_normalized28_$u7b$$u7b$closure$u7d$$u7d$28_$u7b$$u7b$closure$u7d$$u7d$28_$u7b$$u7b$closure$u7d$$u7d$17h9e352e679bc513b8E', symObjAddr: 0x2064, symBinAddr: 0x3B804, symSize: 0x38 }
  - { offset: 0x119F61, size: 0x8, addend: 0x0, symName: __ZN4pyo33err9err_state10raise_lazy17h0c79b953d70cc1c7E, symObjAddr: 0x2184, symBinAddr: 0x3B924, symSize: 0x148 }
  - { offset: 0x119FF5, size: 0x8, addend: 0x0, symName: '__ZN4pyo33err9err_state20PyErrStateNormalized10ptraceback28_$u7b$$u7b$closure$u7d$$u7d$17hf678f683483ce36aE', symObjAddr: 0x240C, symBinAddr: 0x3BBAC, symSize: 0x24 }
  - { offset: 0x11A038, size: 0x8, addend: 0x0, symName: '__ZN4pyo33err9err_state20PyErrStateNormalized4take28_$u7b$$u7b$closure$u7d$$u7d$17h5c6fdaf6c476de36E', symObjAddr: 0x2480, symBinAddr: 0x3BC20, symSize: 0x28 }
  - { offset: 0x11A2B4, size: 0x8, addend: 0x0, symName: __ZN4pyo35panic14PanicException15type_object_raw11TYPE_OBJECT17h4b620773cf934734E, symObjAddr: 0x320C8, symBinAddr: 0xB5058, symSize: 0x0 }
  - { offset: 0x11A2C1, size: 0x8, addend: 0x0, symName: '__ZN4pyo35panic14PanicException15type_object_raw28_$u7b$$u7b$closure$u7d$$u7d$17h14985e6520a1679bE', symObjAddr: 0x2524, symBinAddr: 0x3BCA0, symSize: 0xE0 }
  - { offset: 0x11A38D, size: 0x8, addend: 0x0, symName: '__ZN77_$LT$pyo3..panic..PanicException$u20$as$u20$pyo3..type_object..PyTypeInfo$GT$15type_object_raw17hfa76d178b3ca2f28E', symObjAddr: 0x4CE0, symBinAddr: 0x3C87C, symSize: 0x1C }
  - { offset: 0x11A693, size: 0x8, addend: 0x0, symName: __ZN4pyo311type_object10PyTypeInfo11type_object17h1c0304459dd28a84E, symObjAddr: 0x146C, symBinAddr: 0x3B018, symSize: 0x30 }
  - { offset: 0x11A6DA, size: 0x8, addend: 0x0, symName: __ZN4pyo315internal_tricks8clear_eq17h152d587de75587a4E, symObjAddr: 0x15D8, symBinAddr: 0x3B048, symSize: 0x88 }
  - { offset: 0x11B673, size: 0x8, addend: 0x0, symName: '__ZN4core4hash3sip15Hasher$LT$S$GT$5reset17hb83eab3b12bf0ee8E', symObjAddr: 0xDB0, symBinAddr: 0x3ABF8, symSize: 0x8C }
  - { offset: 0x11B7A5, size: 0x8, addend: 0x0, symName: __ZN4pyo33err9err_state10PyErrState10from_inner17h039898f392ae917fE, symObjAddr: 0x1660, symBinAddr: 0x3B0D0, symSize: 0xF0 }
  - { offset: 0x11B7E6, size: 0x8, addend: 0x0, symName: __ZN4pyo33err9err_state10PyErrState10normalized17h7f3d3a2b931ae450E, symObjAddr: 0x1750, symBinAddr: 0x3B1C0, symSize: 0x90 }
  - { offset: 0x11B837, size: 0x8, addend: 0x0, symName: __ZN4pyo33err9err_state10PyErrState13as_normalized17h6bbccbcd8e1233f4E, symObjAddr: 0x17EC, symBinAddr: 0x3B25C, symSize: 0x100 }
  - { offset: 0x11B89C, size: 0x8, addend: 0x0, symName: __ZN4pyo33err9err_state10PyErrState14lazy_arguments17h005f36563a69122cE, symObjAddr: 0x18EC, symBinAddr: 0x3B35C, symSize: 0xA4 }
  - { offset: 0x11B960, size: 0x8, addend: 0x0, symName: __ZN4pyo33err9err_state10PyErrState15make_normalized17h6bb72199d8a14dbaE, symObjAddr: 0x1A00, symBinAddr: 0x711C8, symSize: 0x2D0 }
  - { offset: 0x11BA22, size: 0x8, addend: 0x0, symName: __ZN4pyo33err9err_state10PyErrState4lazy17h75f0258a764adce7E, symObjAddr: 0x209C, symBinAddr: 0x3B83C, symSize: 0x3C }
  - { offset: 0x11BA60, size: 0x8, addend: 0x0, symName: __ZN4pyo33err9err_state10PyErrState7restore17hd74bfc2aa57c6580E, symObjAddr: 0x20D8, symBinAddr: 0x3B878, symSize: 0xAC }
  - { offset: 0x11BAB9, size: 0x8, addend: 0x0, symName: __ZN4pyo33err9err_state15PyErrStateInner7restore17hf36faf2e02f47d51E, symObjAddr: 0x22CC, symBinAddr: 0x3BA6C, symSize: 0x84 }
  - { offset: 0x11BB34, size: 0x8, addend: 0x0, symName: __ZN4pyo33err9err_state15PyErrStateInner9normalize17hb697b967fae5da49E, symObjAddr: 0x2350, symBinAddr: 0x3BAF0, symSize: 0x8C }
  - { offset: 0x11BBAF, size: 0x8, addend: 0x0, symName: __ZN4pyo33err9err_state20PyErrStateNormalized10ptraceback17h825aba9fe7b91f4bE, symObjAddr: 0x23DC, symBinAddr: 0x3BB7C, symSize: 0x30 }
  - { offset: 0x11BBEA, size: 0x8, addend: 0x0, symName: __ZN4pyo33err9err_state20PyErrStateNormalized3new17h65bbfcb675a86916E, symObjAddr: 0x2430, symBinAddr: 0x3BBD0, symSize: 0x2C }
  - { offset: 0x11BC0C, size: 0x8, addend: 0x0, symName: __ZN4pyo33err9err_state20PyErrStateNormalized4take17h7843045db4482e6bE, symObjAddr: 0x245C, symBinAddr: 0x3BBFC, symSize: 0x24 }
  - { offset: 0x11BC39, size: 0x8, addend: 0x0, symName: __ZN4pyo33err9err_state20PyErrStateNormalized5ptype17h4f077892444293e3E, symObjAddr: 0x24A8, symBinAddr: 0x3BC48, symSize: 0x2C }
  - { offset: 0x11BC74, size: 0x8, addend: 0x0, symName: __ZN4pyo35panic14PanicException15type_object_raw17ha5a4ff665797b952E, symObjAddr: 0x24F8, symBinAddr: 0x3BC74, symSize: 0x2C }
  - { offset: 0x11BCA1, size: 0x8, addend: 0x0, symName: __ZN4pyo35panic14PanicException18from_panic_payload17h60f6e5b1a190b5a7E, symObjAddr: 0x2604, symBinAddr: 0x71498, symSize: 0x144 }
  - { offset: 0x11BD00, size: 0x8, addend: 0x0, symName: __ZN4pyo35panic14PanicException7new_err17h577253110f7630f4E, symObjAddr: 0x2748, symBinAddr: 0x3BD80, symSize: 0x28 }
  - { offset: 0x11BD3E, size: 0x8, addend: 0x0, symName: __ZN4pyo35panic14PanicException7new_err17hc55d009f9dbfbb29E, symObjAddr: 0x2770, symBinAddr: 0x3BDA8, symSize: 0x34 }
  - { offset: 0x11C6D4, size: 0x8, addend: 0x0, symName: '__ZN87_$LT$$BP$mut$u20$pyo3_ffi..object..PyObject$u20$as$u20$pyo3..ffi_ptr_ext..FfiPtrExt$GT$12assume_owned17h5fa98beb7cc13b5eE', symObjAddr: 0x346C, symBinAddr: 0x3D7F8, symSize: 0x24 }
  - { offset: 0x11C719, size: 0x8, addend: 0x0, symName: '__ZN87_$LT$$BP$mut$u20$pyo3_ffi..object..PyObject$u20$as$u20$pyo3..ffi_ptr_ext..FfiPtrExt$GT$19assume_owned_or_err17hd0fb6ee0a1581d60E', symObjAddr: 0x34B4, symBinAddr: 0x3D81C, symSize: 0x24 }
  - { offset: 0x11C75E, size: 0x8, addend: 0x0, symName: '__ZN87_$LT$$BP$mut$u20$pyo3_ffi..object..PyObject$u20$as$u20$pyo3..ffi_ptr_ext..FfiPtrExt$GT$19assume_owned_or_opt17hb2bf66bb3d23be18E', symObjAddr: 0x34D8, symBinAddr: 0x3D840, symSize: 0x24 }
  - { offset: 0x11C7A3, size: 0x8, addend: 0x0, symName: '__ZN87_$LT$$BP$mut$u20$pyo3_ffi..object..PyObject$u20$as$u20$pyo3..ffi_ptr_ext..FfiPtrExt$GT$25assume_borrowed_unchecked17hccab2e56c5c643e9E', symObjAddr: 0x3544, symBinAddr: 0x3D864, symSize: 0x24 }
  - { offset: 0x11CA11, size: 0x8, addend: 0x0, symName: '__ZN3std4sync9once_lock17OnceLock$LT$T$GT$11get_or_init28_$u7b$$u7b$closure$u7d$$u7d$17h7d7f363a8fdf19e6E', symObjAddr: 0xC54, symBinAddr: 0x3C9BC, symSize: 0x3C }
  - { offset: 0x11CA58, size: 0x8, addend: 0x0, symName: '__ZN3std4sync9once_lock17OnceLock$LT$T$GT$10initialize28_$u7b$$u7b$closure$u7d$$u7d$17hd3094ea26814c495E', symObjAddr: 0xB84, symBinAddr: 0x3C8EC, symSize: 0xA4 }
  - { offset: 0x11CDA7, size: 0x8, addend: 0x0, symName: __ZN3std9panicking12catch_unwind7do_call17h58497b2aa3bce3adE, symObjAddr: 0xDCC, symBinAddr: 0x3CB34, symSize: 0x78 }
  - { offset: 0x11CE8E, size: 0x8, addend: 0x0, symName: __ZN3std9panicking12catch_unwind7do_call17h5f3187f9e8b468acE, symObjAddr: 0xE44, symBinAddr: 0x3CBAC, symSize: 0x7C }
  - { offset: 0x11CF75, size: 0x8, addend: 0x0, symName: __ZN3std9panicking12catch_unwind7do_call17h6a2ca02f07968dd2E, symObjAddr: 0xEC0, symBinAddr: 0x3CC28, symSize: 0x7C }
  - { offset: 0x11D05C, size: 0x8, addend: 0x0, symName: __ZN3std9panicking12catch_unwind7do_call17hafd241a6967c03edE, symObjAddr: 0xF3C, symBinAddr: 0x3CCA4, symSize: 0x78 }
  - { offset: 0x11D143, size: 0x8, addend: 0x0, symName: __ZN3std9panicking12catch_unwind7do_call17hb9ec857172e2204eE, symObjAddr: 0xFB4, symBinAddr: 0x3CD1C, symSize: 0x7C }
  - { offset: 0x11D22A, size: 0x8, addend: 0x0, symName: __ZN3std9panicking12catch_unwind8do_catch17h589d3f50b494b27dE, symObjAddr: 0x1030, symBinAddr: 0x3CD98, symSize: 0x70 }
  - { offset: 0x11D2BF, size: 0x8, addend: 0x0, symName: __ZN3std9panicking12catch_unwind8do_catch17h79ca0d98f7be9767E, symObjAddr: 0x10A0, symBinAddr: 0x3CE08, symSize: 0x70 }
  - { offset: 0x11D354, size: 0x8, addend: 0x0, symName: __ZN3std9panicking12catch_unwind8do_catch17ha2ae18b370a5762dE, symObjAddr: 0x1110, symBinAddr: 0x3CE78, symSize: 0x70 }
  - { offset: 0x11D3E9, size: 0x8, addend: 0x0, symName: __ZN3std9panicking12catch_unwind8do_catch17hc490b7f10c06acd3E, symObjAddr: 0x1180, symBinAddr: 0x3CEE8, symSize: 0x70 }
  - { offset: 0x11D47E, size: 0x8, addend: 0x0, symName: __ZN3std9panicking12catch_unwind8do_catch17hea0a61aad39b7fb6E, symObjAddr: 0x11F0, symBinAddr: 0x3CF58, symSize: 0x70 }
  - { offset: 0x11F1B2, size: 0x8, addend: 0x0, symName: '__ZN4core3ptr7mut_ptr31_$LT$impl$u20$$BP$mut$u20$T$GT$7is_null17h26454a2f2a34c88aE', symObjAddr: 0x12C8, symBinAddr: 0x3CFC8, symSize: 0x18 }
  - { offset: 0x11F8B8, size: 0x8, addend: 0x0, symName: __ZN4core4iter8adapters3zip27TrustedRandomAccessNoCoerce4size17h725c20cd09807691E, symObjAddr: 0x1A24, symBinAddr: 0x3D19C, symSize: 0x2C }
  - { offset: 0x11F8EF, size: 0x8, addend: 0x0, symName: __ZN4core4iter8adapters3zip27TrustedRandomAccessNoCoerce4size17h8862d0eab17a5527E, symObjAddr: 0x1A50, symBinAddr: 0x3D1C8, symSize: 0x2C }
  - { offset: 0x11F9D9, size: 0x8, addend: 0x0, symName: __ZN4core4iter6traits8iterator8Iterator3zip17h15551d56d5b0e1ceE, symObjAddr: 0x156C, symBinAddr: 0x3D080, symSize: 0xC8 }
  - { offset: 0x11FA4F, size: 0x8, addend: 0x0, symName: __ZN4core4iter6traits8iterator8Iterator4take17hcc7712d9baaae30aE, symObjAddr: 0x16FC, symBinAddr: 0x3D148, symSize: 0x2C }
  - { offset: 0x11FAAA, size: 0x8, addend: 0x0, symName: __ZN4core4iter6traits8iterator8Iterator9enumerate17h69546c6b8fb6b7b0E, symObjAddr: 0x19D0, symBinAddr: 0x3D174, symSize: 0x28 }
  - { offset: 0x1204AA, size: 0x8, addend: 0x0, symName: '__ZN4core3str6traits54_$LT$impl$u20$core..cmp..PartialEq$u20$for$u20$str$GT$2eq17hea3624f697fe3f14E', symObjAddr: 0x1460, symBinAddr: 0x3CFE0, symSize: 0xA0 }
  - { offset: 0x1207A7, size: 0x8, addend: 0x0, symName: '__ZN4core5slice4iter87_$LT$impl$u20$core..iter..traits..collect..IntoIterator$u20$for$u20$$RF$$u5b$T$u5d$$GT$9into_iter17hf58c9b7e493e75d0E', symObjAddr: 0x1BF0, symBinAddr: 0x3D29C, symSize: 0x50 }
  - { offset: 0x12093E, size: 0x8, addend: 0x0, symName: '__ZN91_$LT$core..slice..iter..Iter$LT$T$GT$$u20$as$u20$core..iter..traits..iterator..Iterator$GT$24__iterator_get_unchecked17h2910ee2db4fe638aE', symObjAddr: 0x3A58, symBinAddr: 0x3DCC0, symSize: 0x20 }
  - { offset: 0x120999, size: 0x8, addend: 0x0, symName: '__ZN91_$LT$core..slice..iter..Iter$LT$T$GT$$u20$as$u20$core..iter..traits..iterator..Iterator$GT$24__iterator_get_unchecked17h520cc0960749cef1E', symObjAddr: 0x3A78, symBinAddr: 0x3DCE0, symSize: 0x28 }
  - { offset: 0x120A43, size: 0x8, addend: 0x0, symName: '__ZN91_$LT$core..slice..iter..Iter$LT$T$GT$$u20$as$u20$core..iter..traits..iterator..Iterator$GT$3any17h24565c9a48405248E', symObjAddr: 0x3AA0, symBinAddr: 0x3DD08, symSize: 0xE4 }
  - { offset: 0x120B1E, size: 0x8, addend: 0x0, symName: '__ZN91_$LT$core..slice..iter..Iter$LT$T$GT$$u20$as$u20$core..iter..traits..iterator..Iterator$GT$4next17h075a94522457b3b7E', symObjAddr: 0x3CF8, symBinAddr: 0x3DDEC, symSize: 0x84 }
  - { offset: 0x120BD4, size: 0x8, addend: 0x0, symName: '__ZN91_$LT$core..slice..iter..Iter$LT$T$GT$$u20$as$u20$core..iter..traits..iterator..Iterator$GT$4next17h62860ac2479da542E', symObjAddr: 0x3E00, symBinAddr: 0x3DE70, symSize: 0x84 }
  - { offset: 0x120C8A, size: 0x8, addend: 0x0, symName: '__ZN91_$LT$core..slice..iter..Iter$LT$T$GT$$u20$as$u20$core..iter..traits..iterator..Iterator$GT$4next17h70aa96cc435e952aE', symObjAddr: 0x3E84, symBinAddr: 0x3DEF4, symSize: 0x84 }
  - { offset: 0x120D40, size: 0x8, addend: 0x0, symName: '__ZN91_$LT$core..slice..iter..Iter$LT$T$GT$$u20$as$u20$core..iter..traits..iterator..Iterator$GT$4next17hb61798640a7254b5E', symObjAddr: 0x3F08, symBinAddr: 0x3DF78, symSize: 0x84 }
  - { offset: 0x120DF6, size: 0x8, addend: 0x0, symName: '__ZN91_$LT$core..slice..iter..Iter$LT$T$GT$$u20$as$u20$core..iter..traits..iterator..Iterator$GT$9size_hint17h00f4f69216f7d3acE', symObjAddr: 0x4010, symBinAddr: 0x3DFFC, symSize: 0x60 }
  - { offset: 0x120E65, size: 0x8, addend: 0x0, symName: '__ZN91_$LT$core..slice..iter..Iter$LT$T$GT$$u20$as$u20$core..iter..traits..iterator..Iterator$GT$9size_hint17h07440b1a4866ba05E', symObjAddr: 0x40D0, symBinAddr: 0x3E05C, symSize: 0x60 }
  - { offset: 0x120ED4, size: 0x8, addend: 0x0, symName: '__ZN91_$LT$core..slice..iter..Iter$LT$T$GT$$u20$as$u20$core..iter..traits..iterator..Iterator$GT$9size_hint17ha1087802894f0abbE', symObjAddr: 0x4190, symBinAddr: 0x3E0BC, symSize: 0x60 }
  - { offset: 0x120F7F, size: 0x8, addend: 0x0, symName: '__ZN94_$LT$core..slice..iter..IterMut$LT$T$GT$$u20$as$u20$core..iter..traits..iterator..Iterator$GT$4next17hcabf787faa614718E', symObjAddr: 0x4268, symBinAddr: 0x3E11C, symSize: 0x84 }
  - { offset: 0x1213E9, size: 0x8, addend: 0x0, symName: __ZN8pyo3_ffi6object10Py_IS_TYPE17h1cd54d518d374244E, symObjAddr: 0x3594, symBinAddr: 0x3D8B4, symSize: 0x38 }
  - { offset: 0x121423, size: 0x8, addend: 0x0, symName: __ZN8pyo3_ffi6object12PyType_Check17h7118aa71cebf57ffE, symObjAddr: 0x35CC, symBinAddr: 0x3D8EC, symSize: 0x30 }
  - { offset: 0x121451, size: 0x8, addend: 0x0, symName: __ZN8pyo3_ffi6object17PyType_HasFeature17hf43a8eae7ef7cf39E, symObjAddr: 0x35FC, symBinAddr: 0x3D91C, symSize: 0x8C }
  - { offset: 0x1214AC, size: 0x8, addend: 0x0, symName: __ZN8pyo3_ffi6object18PyObject_TypeCheck17h89546390b7e890ccE, symObjAddr: 0x3694, symBinAddr: 0x3D9A8, symSize: 0x70 }
  - { offset: 0x1214E9, size: 0x8, addend: 0x0, symName: __ZN8pyo3_ffi6object19PyType_FastSubclass17h614885e7c12724ceE, symObjAddr: 0x3704, symBinAddr: 0x3DA18, symSize: 0x28 }
  - { offset: 0x121526, size: 0x8, addend: 0x0, symName: __ZN8pyo3_ffi6object7Py_None17h32891417bdfee2f3E, symObjAddr: 0x3760, symBinAddr: 0x3DA40, symSize: 0xC }
  - { offset: 0x121544, size: 0x8, addend: 0x0, symName: __ZN8pyo3_ffi6object7Py_SIZE17h999382fb8b5d91c4E, symObjAddr: 0x376C, symBinAddr: 0x3DA4C, symSize: 0x1D4 }
  - { offset: 0x121D20, size: 0x8, addend: 0x0, symName: __ZN8pyo3_ffi11floatobject13PyFloat_Check17h32704e6312ef83a7E, symObjAddr: 0x3568, symBinAddr: 0x3D888, symSize: 0x2C }
  - { offset: 0x12227C, size: 0x8, addend: 0x0, symName: '__ZN5alloc5boxed12Box$LT$T$GT$8into_raw17h084dd3cdbd0b5fddE', symObjAddr: 0x2A54, symBinAddr: 0x3D2EC, symSize: 0x18 }
  - { offset: 0x1222B3, size: 0x8, addend: 0x0, symName: '__ZN5alloc5boxed12Box$LT$T$GT$8into_raw17ha94e7dc0f597211aE', symObjAddr: 0x2A6C, symBinAddr: 0x3D304, symSize: 0x18 }
  - { offset: 0x1222EA, size: 0x8, addend: 0x0, symName: '__ZN5alloc5boxed12Box$LT$T$GT$8into_raw17hb8d503e92143fe25E', symObjAddr: 0x2A84, symBinAddr: 0x3D31C, symSize: 0x18 }
  - { offset: 0x122327, size: 0x8, addend: 0x0, symName: '__ZN72_$LT$alloc..boxed..Box$LT$T$C$A$GT$$u20$as$u20$core..ops..drop..Drop$GT$4drop17h2f84fdaa77b74c8eE', symObjAddr: 0x2BA4, symBinAddr: 0x3D334, symSize: 0xC4 }
  - { offset: 0x122460, size: 0x8, addend: 0x0, symName: '__ZN72_$LT$alloc..boxed..Box$LT$T$C$A$GT$$u20$as$u20$core..ops..drop..Drop$GT$4drop17h8679c299787cbcfeE', symObjAddr: 0x2D18, symBinAddr: 0x3D3F8, symSize: 0xBC }
  - { offset: 0x122599, size: 0x8, addend: 0x0, symName: '__ZN72_$LT$alloc..boxed..Box$LT$T$C$A$GT$$u20$as$u20$core..ops..drop..Drop$GT$4drop17h92dcd3113afb5171E', symObjAddr: 0x2DD4, symBinAddr: 0x3D4B4, symSize: 0xB0 }
  - { offset: 0x1226D2, size: 0x8, addend: 0x0, symName: '__ZN72_$LT$alloc..boxed..Box$LT$T$C$A$GT$$u20$as$u20$core..ops..drop..Drop$GT$4drop17h932bcc5e4c9d354eE', symObjAddr: 0x2E84, symBinAddr: 0x3D564, symSize: 0xC4 }
  - { offset: 0x12280B, size: 0x8, addend: 0x0, symName: '__ZN72_$LT$alloc..boxed..Box$LT$T$C$A$GT$$u20$as$u20$core..ops..drop..Drop$GT$4drop17he9558c92ea4a1280E', symObjAddr: 0x30BC, symBinAddr: 0x3D628, symSize: 0xB0 }
  - { offset: 0x122944, size: 0x8, addend: 0x0, symName: '__ZN72_$LT$alloc..boxed..Box$LT$T$C$A$GT$$u20$as$u20$core..ops..drop..Drop$GT$4drop17hf873d034768d82b3E', symObjAddr: 0x3230, symBinAddr: 0x3D6D8, symSize: 0xC4 }
  - { offset: 0x122A83, size: 0x8, addend: 0x0, symName: '__ZN80_$LT$alloc..boxed..Box$LT$T$C$A$GT$$u20$as$u20$core..convert..AsRef$LT$T$GT$$GT$6as_ref17h959933d377d0961fE', symObjAddr: 0x33BC, symBinAddr: 0x3D79C, symSize: 0x18 }
  - { offset: 0x122AC9, size: 0x8, addend: 0x0, symName: '__ZN86_$LT$alloc..boxed..Box$LT$F$C$A$GT$$u20$as$u20$core..ops..function..Fn$LT$Args$GT$$GT$4call17hf8f0c656e973fe55E', symObjAddr: 0x3428, symBinAddr: 0x3D7B4, symSize: 0x44 }
  - { offset: 0x122B23, size: 0x8, addend: 0x0, symName: '__ZN90_$LT$alloc..boxed..Box$LT$F$C$A$GT$$u20$as$u20$core..ops..function..FnOnce$LT$Args$GT$$GT$9call_once17h25e863f1a7da29f5E', symObjAddr: 0x3970, symBinAddr: 0x3DC20, symSize: 0xA0 }
  - { offset: 0x122DFF, size: 0x8, addend: 0x0, symName: '__ZN3std4sync9once_lock17OnceLock$LT$T$GT$10initialize17h7bee11c1b2039f93E', symObjAddr: 0xB34, symBinAddr: 0x715DC, symSize: 0x50 }
  - { offset: 0x122F39, size: 0x8, addend: 0x0, symName: '__ZN3std4sync9once_lock17OnceLock$LT$T$GT$11get_or_init17h275b496d4a088ef0E', symObjAddr: 0xC28, symBinAddr: 0x3C990, symSize: 0x2C }
  - { offset: 0x123068, size: 0x8, addend: 0x0, symName: '__ZN3std4sync9once_lock17OnceLock$LT$T$GT$15get_or_try_init17h9b07f3588ceff2e3E', symObjAddr: 0xC90, symBinAddr: 0x3C9F8, symSize: 0xD8 }
  - { offset: 0x12339B, size: 0x8, addend: 0x0, symName: '__ZN3std4sync9once_lock17OnceLock$LT$T$GT$3get17h32338bae33592086E', symObjAddr: 0xD68, symBinAddr: 0x3CAD0, symSize: 0x64 }
  - { offset: 0x12383E, size: 0x8, addend: 0x0, symName: '__ZN4core5slice4iter13Iter$LT$T$GT$3new17h36f91a8b8849ac0dE', symObjAddr: 0x1AA8, symBinAddr: 0x3D1F4, symSize: 0x58 }
  - { offset: 0x1239EE, size: 0x8, addend: 0x0, symName: '__ZN4core5slice4iter13Iter$LT$T$GT$3new17hb1807535df164adaE', symObjAddr: 0x1B50, symBinAddr: 0x3D24C, symSize: 0x50 }
  - { offset: 0x124398, size: 0x8, addend: 0x0, symName: __ZN9hashbrown7control5group4neon5Group10match_full17ha6fc936b1edcc1a3E, symObjAddr: 0x42EC, symBinAddr: 0x3E1A0, symSize: 0x68 }
  - { offset: 0x1243D0, size: 0x8, addend: 0x0, symName: __ZN9hashbrown7control5group4neon5Group22match_empty_or_deleted17hf452c9cef92772e9E, symObjAddr: 0x4354, symBinAddr: 0x3E208, symSize: 0x68 }
  - { offset: 0x124408, size: 0x8, addend: 0x0, symName: __ZN9hashbrown7control5group4neon5Group44convert_special_to_empty_and_full_to_deleted17hdec2ca7b9062038dE, symObjAddr: 0x43BC, symBinAddr: 0x3E270, symSize: 0x88 }
  - { offset: 0x124440, size: 0x8, addend: 0x0, symName: __ZN9hashbrown7control5group4neon5Group9match_tag17ha902de838cb266d9E, symObjAddr: 0x4444, symBinAddr: 0x3E2F8, symSize: 0x7C }
  - { offset: 0x1247E9, size: 0x8, addend: 0x0, symName: __ZN3std6thread6thread6Thread6unpark17h716e848acf008950E, symObjAddr: 0x0, symBinAddr: 0x3E374, symSize: 0x38 }
  - { offset: 0x1248F9, size: 0x8, addend: 0x0, symName: __ZN4core4sync6atomic11atomic_load17h064465304e560d13E, symObjAddr: 0x324, symBinAddr: 0x3E5F4, symSize: 0xF8 }
  - { offset: 0x12493F, size: 0x8, addend: 0x0, symName: __ZN4core4sync6atomic11atomic_load17h6a79d13004a6f4ecE, symObjAddr: 0x41C, symBinAddr: 0x3E6EC, symSize: 0xF8 }
  - { offset: 0x124985, size: 0x8, addend: 0x0, symName: __ZN4core4sync6atomic12atomic_store17hd739d0afe6325a35E, symObjAddr: 0x514, symBinAddr: 0x3E7E4, symSize: 0xFC }
  - { offset: 0x124AB3, size: 0x8, addend: 0x0, symName: __ZN4core4sync6atomic23atomic_compare_exchange17h6394199e65d5d861E, symObjAddr: 0x744, symBinAddr: 0x3EA14, symSize: 0x4B4 }
  - { offset: 0x124B4E, size: 0x8, addend: 0x0, symName: __ZN4core4sync6atomic5fence17hf6b2e966307ff623E, symObjAddr: 0xBF8, symBinAddr: 0x3EEC8, symSize: 0xB0 }
  - { offset: 0x124C4E, size: 0x8, addend: 0x0, symName: '__ZN4core3ptr100drop_in_place$LT$core..cell..Cell$LT$core..option..Option$LT$std..thread..thread..Thread$GT$$GT$$GT$17h50c0e49158ae2a44E', symObjAddr: 0xF8, symBinAddr: 0x3E3E0, symSize: 0x24 }
  - { offset: 0x124C7D, size: 0x8, addend: 0x0, symName: '__ZN4core3ptr106drop_in_place$LT$core..cell..UnsafeCell$LT$core..option..Option$LT$std..thread..thread..Thread$GT$$GT$$GT$17h623d2933031849d3E', symObjAddr: 0x11C, symBinAddr: 0x3E404, symSize: 0x24 }
  - { offset: 0x124CAC, size: 0x8, addend: 0x0, symName: '__ZN4core3ptr114drop_in_place$LT$core..pin..Pin$LT$alloc..sync..Arc$LT$std..thread..thread..Inner$C$std..alloc..System$GT$$GT$$GT$17h186b92dda9c2c02cE', symObjAddr: 0x140, symBinAddr: 0x3E428, symSize: 0x24 }
  - { offset: 0x124CDB, size: 0x8, addend: 0x0, symName: '__ZN4core3ptr42drop_in_place$LT$once_cell..imp..Guard$GT$17hadf6d56d127fa7e2E', symObjAddr: 0x164, symBinAddr: 0x3E44C, symSize: 0x24 }
  - { offset: 0x124D0A, size: 0x8, addend: 0x0, symName: '__ZN4core3ptr43drop_in_place$LT$once_cell..imp..Waiter$GT$17hb9ff9fdcbb27ac60E', symObjAddr: 0x188, symBinAddr: 0x3E470, symSize: 0x24 }
  - { offset: 0x124D39, size: 0x8, addend: 0x0, symName: '__ZN4core3ptr48drop_in_place$LT$std..thread..thread..Thread$GT$17hc9d6805ff6c3bf04E', symObjAddr: 0x1AC, symBinAddr: 0x3E494, symSize: 0x24 }
  - { offset: 0x124D68, size: 0x8, addend: 0x0, symName: '__ZN4core3ptr76drop_in_place$LT$core..option..Option$LT$std..thread..thread..Thread$GT$$GT$17h3d693a040a349219E', symObjAddr: 0x1D0, symBinAddr: 0x3E4B8, symSize: 0x44 }
  - { offset: 0x124DDE, size: 0x8, addend: 0x0, symName: '__ZN4core3ptr7mut_ptr31_$LT$impl$u20$$BP$mut$u20$T$GT$7is_null17h2e6b6fd07cc7115eE', symObjAddr: 0x214, symBinAddr: 0x3E4FC, symSize: 0x18 }
  - { offset: 0x124E72, size: 0x8, addend: 0x0, symName: '__ZN4core3ptr92drop_in_place$LT$alloc..sync..Arc$LT$std..thread..thread..Inner$C$std..alloc..System$GT$$GT$17hae33d30e4d2131f9E', symObjAddr: 0x22C, symBinAddr: 0x3E514, symSize: 0x24 }
  - { offset: 0x124F92, size: 0x8, addend: 0x0, symName: '__ZN72_$LT$core..option..Option$LT$T$GT$$u20$as$u20$core..default..Default$GT$7default17hee0f1d5d5f1ebec2E', symObjAddr: 0xF88, symBinAddr: 0x3F258, symSize: 0x8 }
  - { offset: 0x125324, size: 0x8, addend: 0x0, symName: '__ZN4core3ops8function5impls79_$LT$impl$u20$core..ops..function..FnMut$LT$A$GT$$u20$for$u20$$RF$mut$u20$F$GT$8call_mut17he5647495c81495cdE', symObjAddr: 0xC4, symBinAddr: 0x3E3AC, symSize: 0x34 }
  - { offset: 0x125508, size: 0x8, addend: 0x0, symName: '__ZN71_$LT$alloc..sync..Arc$LT$T$C$A$GT$$u20$as$u20$core..ops..drop..Drop$GT$4drop17h3f1fdc44ed452f14E', symObjAddr: 0xF0C, symBinAddr: 0x3F1DC, symSize: 0x7C }
  - { offset: 0x125856, size: 0x8, addend: 0x0, symName: __ZN3std6thread6thread6Thread6unpark17h716e848acf008950E, symObjAddr: 0x0, symBinAddr: 0x3E374, symSize: 0x38 }
  - { offset: 0x1259BD, size: 0x8, addend: 0x0, symName: '__ZN63_$LT$once_cell..imp..Guard$u20$as$u20$core..ops..drop..Drop$GT$4drop17hcbdda16b69c87cf5E', symObjAddr: 0xCA8, symBinAddr: 0x3EF78, symSize: 0x250 }
  - { offset: 0x125ABD, size: 0x8, addend: 0x0, symName: '__ZN63_$LT$once_cell..imp..Guard$u20$as$u20$core..ops..drop..Drop$GT$4drop28_$u7b$$u7b$closure$u7d$$u7d$17h8c3d85fc3265fc42E', symObjAddr: 0xEF8, symBinAddr: 0x3F1C8, symSize: 0x14 }
  - { offset: 0x125AFC, size: 0x8, addend: 0x0, symName: __ZN9once_cell3imp18initialize_or_wait17hc55ab468c583d791E, symObjAddr: 0xF90, symBinAddr: 0x3F260, symSize: 0x18C }
  - { offset: 0x125BBE, size: 0x8, addend: 0x0, symName: '__ZN9once_cell3imp18initialize_or_wait28_$u7b$$u7b$closure$u7d$$u7d$17h33b966da47e267daE', symObjAddr: 0x111C, symBinAddr: 0x3F3EC, symSize: 0x18 }
  - { offset: 0x125BFC, size: 0x8, addend: 0x0, symName: __ZN9once_cell3imp4wait17hbc3832dd97b379beE, symObjAddr: 0x1134, symBinAddr: 0x3F404, symSize: 0x1EC }
  - { offset: 0x125CA3, size: 0x8, addend: 0x0, symName: '__ZN9once_cell3imp4wait28_$u7b$$u7b$closure$u7d$$u7d$17h11b51a738e0ecbc1E', symObjAddr: 0x1320, symBinAddr: 0x3F5F0, symSize: 0x20 }
  - { offset: 0x125CDF, size: 0x8, addend: 0x0, symName: '__ZN9once_cell3imp4wait28_$u7b$$u7b$closure$u7d$$u7d$17h7265b630b3d80ed9E', symObjAddr: 0x1340, symBinAddr: 0x3F610, symSize: 0x14 }
  - { offset: 0x125D35, size: 0x8, addend: 0x0, symName: __ZN9once_cell3imp6strict4addr17h1b642aa0c409628cE, symObjAddr: 0x1354, symBinAddr: 0x3F624, symSize: 0x10 }
  - { offset: 0x125D6A, size: 0x8, addend: 0x0, symName: __ZN9once_cell3imp6strict8map_addr17h211073f8f1265d41E, symObjAddr: 0x1364, symBinAddr: 0x3F634, symSize: 0x88 }
  - { offset: 0x125DB9, size: 0x8, addend: 0x0, symName: __ZN9once_cell3imp6strict8map_addr17h3f945c3c873f5aeaE, symObjAddr: 0x13EC, symBinAddr: 0x3F6BC, symSize: 0x88 }
  - { offset: 0x125E08, size: 0x8, addend: 0x0, symName: __ZN9once_cell3imp6strict8map_addr17h4e5d34c3af6b5d4cE, symObjAddr: 0x1474, symBinAddr: 0x3F744, symSize: 0x94 }
  - { offset: 0x125E57, size: 0x8, addend: 0x0, symName: __ZN9once_cell3imp6strict8map_addr17hdd626b44e2cf7766E, symObjAddr: 0x1508, symBinAddr: 0x3F7D8, symSize: 0x88 }
  - { offset: 0x125EA6, size: 0x8, addend: 0x0, symName: __ZN9once_cell3imp6strict9with_addr17h86d215eb24540eb3E, symObjAddr: 0x1590, symBinAddr: 0x3F860, symSize: 0x64 }
  - { offset: 0x125FC3, size: 0x8, addend: 0x0, symName: '__ZN4core4cell13Cell$LT$T$GT$3new17h88c1f4608251314bE', symObjAddr: 0x268, symBinAddr: 0x3E538, symSize: 0x14 }
  - { offset: 0x126024, size: 0x8, addend: 0x0, symName: '__ZN4core4cell13Cell$LT$T$GT$4take17h3cadf0db359491c2E', symObjAddr: 0x27C, symBinAddr: 0x3E54C, symSize: 0x3C }
  - { offset: 0x12608B, size: 0x8, addend: 0x0, symName: __ZN4core4sync6atomic10AtomicBool3new17h5949badb23d53435E, symObjAddr: 0x2B8, symBinAddr: 0x3E588, symSize: 0x18 }
  - { offset: 0x1260BB, size: 0x8, addend: 0x0, symName: __ZN4core4sync6atomic10AtomicBool4load17h306ed92fb46eb364E, symObjAddr: 0x2D0, symBinAddr: 0x3E5A0, symSize: 0x2C }
  - { offset: 0x1260ED, size: 0x8, addend: 0x0, symName: __ZN4core4sync6atomic10AtomicBool5store17h1a971754f386d5f0E, symObjAddr: 0x2FC, symBinAddr: 0x3E5CC, symSize: 0x28 }
  - { offset: 0x12613B, size: 0x8, addend: 0x0, symName: '__ZN4core4sync6atomic18AtomicPtr$LT$T$GT$16compare_exchange17ha3e0e413783c0ce1E', symObjAddr: 0x610, symBinAddr: 0x3E8E0, symSize: 0x38 }
  - { offset: 0x1261A3, size: 0x8, addend: 0x0, symName: '__ZN4core4sync6atomic18AtomicPtr$LT$T$GT$4load17hfc204ab176f794afE', symObjAddr: 0x648, symBinAddr: 0x3E918, symSize: 0x24 }
  - { offset: 0x126214, size: 0x8, addend: 0x0, symName: '__ZN4core4sync6atomic18AtomicPtr$LT$T$GT$4swap17hb0eeefa3488ef888E', symObjAddr: 0x66C, symBinAddr: 0x3E93C, symSize: 0xD8 }
  - { offset: 0x1265C3, size: 0x8, addend: 0x0, symName: __ZN4core4sync6atomic11atomic_load17h1fd8dbea684f6c92E, symObjAddr: 0x9D8, symBinAddr: 0x3F900, symSize: 0xF8 }
  - { offset: 0x1269D6, size: 0x8, addend: 0x0, symName: __ZN8pyo3_ffi32_cstr_from_utf8_with_nul_checked17h2356559afd9f4269E, symObjAddr: 0x1000, symBinAddr: 0x3F9F8, symSize: 0x74 }
  - { offset: 0x126BD4, size: 0x8, addend: 0x0, symName: __ZN4core3fmt9Arguments3new17h8faac1158c035a8eE, symObjAddr: 0x728, symBinAddr: 0x3F8C4, symSize: 0x1C }
  - { offset: 0x126C06, size: 0x8, addend: 0x0, symName: __ZN4core3fmt9Arguments8from_str17h3445c3ee568a98d8E, symObjAddr: 0x744, symBinAddr: 0x3F8E0, symSize: 0x20 }
  - { offset: 0x1273AF, size: 0x8, addend: 0x0, symName: '__ZN4core3ptr46drop_in_place$LT$alloc..vec..Vec$LT$u8$GT$$GT$17hbef552011bf837e8E', symObjAddr: 0x8C8, symBinAddr: 0x3FA9C, symSize: 0x5C }
  - { offset: 0x1273DE, size: 0x8, addend: 0x0, symName: '__ZN4core3ptr53drop_in_place$LT$alloc..raw_vec..RawVec$LT$u8$GT$$GT$17hd6c23f640282088bE', symObjAddr: 0x948, symBinAddr: 0x3FAF8, symSize: 0x24 }
  - { offset: 0x127417, size: 0x8, addend: 0x0, symName: '__ZN4core3ptr9const_ptr33_$LT$impl$u20$$BP$const$u20$T$GT$13is_aligned_to17h31efead64db2942aE', symObjAddr: 0x9E8, symBinAddr: 0x3FB1C, symSize: 0x88 }
  - { offset: 0x1275C1, size: 0x8, addend: 0x0, symName: '__ZN66_$LT$core..option..Option$LT$T$GT$$u20$as$u20$core..fmt..Debug$GT$3fmt17hae4d787945424de9E', symObjAddr: 0x1CC8, symBinAddr: 0x3FCEC, symSize: 0x98 }
  - { offset: 0x127631, size: 0x8, addend: 0x0, symName: '__ZN42_$LT$$RF$T$u20$as$u20$core..fmt..Debug$GT$3fmt17h11dfbceff1976423E', symObjAddr: 0x5F0, symBinAddr: 0x3FA6C, symSize: 0x30 }
  - { offset: 0x127705, size: 0x8, addend: 0x0, symName: __ZN4core4hint16assert_unchecked18precondition_check17h368707f71adb78bbE, symObjAddr: 0xAD0, symBinAddr: 0x3FBA4, symSize: 0x58 }
  - { offset: 0x127A0D, size: 0x8, addend: 0x0, symName: '__ZN5alloc7raw_vec20RawVecInner$LT$A$GT$16with_capacity_in17ha0d996b4365e37cbE', symObjAddr: 0x18EC, symBinAddr: 0x3FBFC, symSize: 0xF0 }
  - { offset: 0x127B8A, size: 0x8, addend: 0x0, symName: __RNvCsdBezzDwma51_7___rustc10rust_panic, symObjAddr: 0x0, symBinAddr: 0x7162C, symSize: 0x48 }
  - { offset: 0x127BA1, size: 0x8, addend: 0x0, symName: __RNvCsdBezzDwma51_7___rustc10rust_panic, symObjAddr: 0x0, symBinAddr: 0x7162C, symSize: 0x48 }
  - { offset: 0x127BBB, size: 0x8, addend: 0x0, symName: __RNvCsdBezzDwma51_7___rustc17___rust_drop_panic, symObjAddr: 0x174, symBinAddr: 0x3FEA4, symSize: 0x118 }
  - { offset: 0x127E89, size: 0x8, addend: 0x0, symName: __RNvCsdBezzDwma51_7___rustc17rust_begin_unwind, symObjAddr: 0x28C, symBinAddr: 0x3FFBC, symSize: 0x20 }
  - { offset: 0x127EB9, size: 0x8, addend: 0x0, symName: __RNvCsdBezzDwma51_7___rustc24___rust_foreign_exception, symObjAddr: 0x33C, symBinAddr: 0x4006C, symSize: 0x118 }
  - { offset: 0x1281F8, size: 0x8, addend: 0x0, symName: __ZN3std9panicking11panic_count17is_zero_slow_path17h055803fbeed74640E, symObjAddr: 0x21950, symBinAddr: 0x71EE4, symSize: 0x2C }
  - { offset: 0x1282A7, size: 0x8, addend: 0x0, symName: __ZN3std9panicking11panic_count8increase17hd554d387b728ef7eE, symObjAddr: 0x219E0, symBinAddr: 0x49B84, symSize: 0x64 }
  - { offset: 0x1282BE, size: 0x8, addend: 0x0, symName: __ZN3std9panicking11panic_count8increase17hd554d387b728ef7eE, symObjAddr: 0x219E0, symBinAddr: 0x49B84, symSize: 0x64 }
  - { offset: 0x1282D3, size: 0x8, addend: 0x0, symName: __ZN3std9panicking11panic_count8increase17hd554d387b728ef7eE, symObjAddr: 0x219E0, symBinAddr: 0x49B84, symSize: 0x64 }
  - { offset: 0x1283F1, size: 0x8, addend: 0x0, symName: __ZN3std9panicking12catch_unwind7cleanup17h11de3f5386a52d13E, symObjAddr: 0x21A68, symBinAddr: 0x71F10, symSize: 0x40 }
  - { offset: 0x12851B, size: 0x8, addend: 0x0, symName: '__ZN3std9panicking12default_hook28_$u7b$$u7b$closure$u7d$$u7d$17h49a8add86c9a65d5E', symObjAddr: 0x21BE4, symBinAddr: 0x49D24, symSize: 0x134 }
  - { offset: 0x12864B, size: 0x8, addend: 0x0, symName: __ZN3std9panicking12default_hook17h5bd341aa6d010dc8E, symObjAddr: 0x21AA8, symBinAddr: 0x49BE8, symSize: 0x13C }
  - { offset: 0x1287D4, size: 0x8, addend: 0x0, symName: '__ZN3std9panicking13panic_handler28_$u7b$$u7b$closure$u7d$$u7d$17h24ca9bac65f2240fE', symObjAddr: 0x21D18, symBinAddr: 0x49E58, symSize: 0x9C }
  - { offset: 0x128921, size: 0x8, addend: 0x0, symName: '__ZN86_$LT$std..panicking..panic_handler..StaticStrPayload$u20$as$u20$core..fmt..Display$GT$3fmt17he1332fafabac81a7E', symObjAddr: 0x49E20, symBinAddr: 0x5D70C, symSize: 0x10 }
  - { offset: 0x128942, size: 0x8, addend: 0x0, symName: '__ZN89_$LT$std..panicking..panic_handler..FormatStringPayload$u20$as$u20$core..fmt..Display$GT$3fmt17h238e17cda5f171a0E', symObjAddr: 0x4A1BC, symBinAddr: 0x5D744, symSize: 0x34 }
  - { offset: 0x128A3D, size: 0x8, addend: 0x0, symName: '__ZN93_$LT$std..panicking..panic_handler..StaticStrPayload$u20$as$u20$core..panic..PanicPayload$GT$3get17hdd14423573586069E', symObjAddr: 0x4A80C, symBinAddr: 0x5D7E0, symSize: 0xC }
  - { offset: 0x128A58, size: 0x8, addend: 0x0, symName: '__ZN93_$LT$std..panicking..panic_handler..StaticStrPayload$u20$as$u20$core..panic..PanicPayload$GT$6as_str17h95f0ff5da331c4b0E', symObjAddr: 0x4A818, symBinAddr: 0x5D7EC, symSize: 0xC }
  - { offset: 0x128A73, size: 0x8, addend: 0x0, symName: '__ZN93_$LT$std..panicking..panic_handler..StaticStrPayload$u20$as$u20$core..panic..PanicPayload$GT$8take_box17h47921ac048705752E', symObjAddr: 0x4A824, symBinAddr: 0x5D7F8, symSize: 0x48 }
  - { offset: 0x128B1E, size: 0x8, addend: 0x0, symName: '__ZN96_$LT$std..panicking..panic_handler..FormatStringPayload$u20$as$u20$core..panic..PanicPayload$GT$3get17hb78add4c84867b32E', symObjAddr: 0x4AF48, symBinAddr: 0x5DC5C, symSize: 0xA0 }
  - { offset: 0x128C4F, size: 0x8, addend: 0x0, symName: '__ZN96_$LT$std..panicking..panic_handler..FormatStringPayload$u20$as$u20$core..panic..PanicPayload$GT$8take_box17hc3a6df41a7d29947E', symObjAddr: 0x4AFE8, symBinAddr: 0x5DCFC, symSize: 0x108 }
  - { offset: 0x128ECB, size: 0x8, addend: 0x0, symName: __ZN3std9panicking13resume_unwind17h50bc2e992d3275c5E, symObjAddr: 0x21DB4, symBinAddr: 0x71F50, symSize: 0xB8 }
  - { offset: 0x1290E4, size: 0x8, addend: 0x0, symName: __ZN3std9panicking14payload_as_str17h1b931930ac25cd0dE, symObjAddr: 0x21E6C, symBinAddr: 0x49EF4, symSize: 0xC8 }
  - { offset: 0x129228, size: 0x8, addend: 0x0, symName: __ZN3std9panicking15panic_with_hook17hbf4b5b50eb72ae21E, symObjAddr: 0x21F34, symBinAddr: 0x49FBC, symSize: 0x388 }
  - { offset: 0x129964, size: 0x8, addend: 0x0, symName: '__ZN79_$LT$std..panicking..resume_unwind..RewrapBox$u20$as$u20$core..fmt..Display$GT$3fmt17h1c919633bd46ec07E', symObjAddr: 0x48674, symBinAddr: 0x5CEA4, symSize: 0x14 }
  - { offset: 0x129985, size: 0x8, addend: 0x0, symName: '__ZN86_$LT$std..panicking..resume_unwind..RewrapBox$u20$as$u20$core..panic..PanicPayload$GT$3get17h7639b71ce921cf7dE', symObjAddr: 0x49E30, symBinAddr: 0x5D71C, symSize: 0xC }
  - { offset: 0x1299A0, size: 0x8, addend: 0x0, symName: '__ZN86_$LT$std..panicking..resume_unwind..RewrapBox$u20$as$u20$core..panic..PanicPayload$GT$8take_box17h704c87e13c4b8aa9E', symObjAddr: 0x49E3C, symBinAddr: 0x5D728, symSize: 0x1C }
  - { offset: 0x1299BE, size: 0x8, addend: 0x0, symName: '__ZN86_$LT$std..panicking..resume_unwind..RewrapBox$u20$as$u20$core..panic..PanicPayload$GT$8take_box17h704c87e13c4b8aa9E', symObjAddr: 0x49E3C, symBinAddr: 0x5D728, symSize: 0x1C }
  - { offset: 0x129AC5, size: 0x8, addend: 0x0, symName: '__ZN64_$LT$std..sys..stdio..unix..Stderr$u20$as$u20$std..io..Write$GT$14write_vectored17h355e3dd8523d0f99E', symObjAddr: 0x445D0, symBinAddr: 0x5C104, symSize: 0x54 }
  - { offset: 0x129B9B, size: 0x8, addend: 0x0, symName: '__ZN64_$LT$std..sys..stdio..unix..Stderr$u20$as$u20$std..io..Write$GT$17is_write_vectored17h4923529113eaf90bE', symObjAddr: 0x44624, symBinAddr: 0x5C158, symSize: 0x8 }
  - { offset: 0x129BB5, size: 0x8, addend: 0x0, symName: '__ZN64_$LT$std..sys..stdio..unix..Stderr$u20$as$u20$std..io..Write$GT$5flush17hc9aac70165715c2cE', symObjAddr: 0x4462C, symBinAddr: 0x5C160, symSize: 0x8 }
  - { offset: 0x129BCF, size: 0x8, addend: 0x0, symName: '__ZN64_$LT$std..sys..stdio..unix..Stderr$u20$as$u20$std..io..Write$GT$5write17hef687bf526171f29E', symObjAddr: 0x44634, symBinAddr: 0x5C168, symSize: 0x54 }
  - { offset: 0x129D38, size: 0x8, addend: 0x0, symName: __ZN3std3sys3pal4unix4sync5mutex5Mutex4init17h0b384dce647cc8dbE, symObjAddr: 0x164A0, symBinAddr: 0x48140, symSize: 0x168 }
  - { offset: 0x129DD0, size: 0x8, addend: 0x0, symName: __ZN3std3sys3pal4unix4sync5mutex5Mutex4lock17h3548d2db0de37829E, symObjAddr: 0x16608, symBinAddr: 0x482A8, symSize: 0x1C }
  - { offset: 0x129DE4, size: 0x8, addend: 0x0, symName: __ZN3std3sys3pal4unix4sync5mutex5Mutex6unlock17h5e6d0b50222d57d0E, symObjAddr: 0x166F8, symBinAddr: 0x482C4, symSize: 0x4 }
  - { offset: 0x129E30, size: 0x8, addend: 0x0, symName: __ZN3std3sys3pal4unix4sync5mutex5Mutex4lock4fail17h4772a0c4b10c89f0E, symObjAddr: 0x16624, symBinAddr: 0x71698, symSize: 0xD4 }
  - { offset: 0x12A075, size: 0x8, addend: 0x0, symName: '__ZN81_$LT$std..sys..pal..unix..sync..mutex..Mutex$u20$as$u20$core..ops..drop..Drop$GT$4drop17h1bd1e496a25ad1caE', symObjAddr: 0x49310, symBinAddr: 0x5D458, symSize: 0x4 }
  - { offset: 0x12A09A, size: 0x8, addend: 0x0, symName: __ZN3std3sys3pal4unix14abort_internal17h707d9553a3137251E, symObjAddr: 0x1490C, symBinAddr: 0x7168C, symSize: 0xC }
  - { offset: 0x12A0B5, size: 0x8, addend: 0x0, symName: __ZN3std3sys3pal4unix17decode_error_kind17h305da3761b9c486aE, symObjAddr: 0x15E2C, symBinAddr: 0x47FF0, symSize: 0x150 }
  - { offset: 0x12A150, size: 0x8, addend: 0x0, symName: __ZN3std3sys3pal6common14small_c_string24run_with_cstr_allocating17h517d0df79bce7c82E, symObjAddr: 0x169C8, symBinAddr: 0x7176C, symSize: 0xB4 }
  - { offset: 0x12A319, size: 0x8, addend: 0x0, symName: __ZN3std3sys3pal6common14small_c_string24run_with_cstr_allocating17hc5aae680db08e17aE, symObjAddr: 0x16CC4, symBinAddr: 0x71820, symSize: 0xA4 }
  - { offset: 0x12A470, size: 0x8, addend: 0x0, symName: __ZN3std3sys3pal6common14small_c_string24run_with_cstr_allocating17hd14389ec86b7af9aE, symObjAddr: 0x16D68, symBinAddr: 0x718C4, symSize: 0xC0 }
  - { offset: 0x12A692, size: 0x8, addend: 0x0, symName: __ZN3std3sys12thread_local6native5eager7destroy17hf0b622ceec581984E, symObjAddr: 0xF180, symBinAddr: 0x47948, symSize: 0x2C }
  - { offset: 0x12A835, size: 0x8, addend: 0x0, symName: __ZN3std3sys12thread_local5guard5apple6enable9run_dtors17ha3d86244ee51b7a1E, symObjAddr: 0xF00C, symBinAddr: 0x47858, symSize: 0xF0 }
  - { offset: 0x12ACC7, size: 0x8, addend: 0x0, symName: __ZN3std3sys12thread_local11destructors4list8register17ha8fd7daf7e0c62b0E, symObjAddr: 0xEF10, symBinAddr: 0x4775C, symSize: 0xFC }
  - { offset: 0x12AFCC, size: 0x8, addend: 0x0, symName: __ZN3std3sys3env4unix13env_read_lock17h770211332f5c1f90E, symObjAddr: 0x1342C, symBinAddr: 0x47C90, symSize: 0x230 }
  - { offset: 0x12B696, size: 0x8, addend: 0x0, symName: '__ZN3std3sys3env4unix6getenv28_$u7b$$u7b$closure$u7d$$u7d$17h365d1156fb2dc6deE', symObjAddr: 0x1365C, symBinAddr: 0x47EC0, symSize: 0x130 }
  - { offset: 0x12B8CC, size: 0x8, addend: 0x0, symName: __ZN3std3sys2fs4unix4File6open_c17h5ff052daf914d327E, symObjAddr: 0x11CA0, symBinAddr: 0x47974, symSize: 0x1A0 }
  - { offset: 0x12BA4C, size: 0x8, addend: 0x0, symName: '__ZN65_$LT$std..sys..fs..unix..Dir$u20$as$u20$core..ops..drop..Drop$GT$4drop17h8572b46c72788d26E', symObjAddr: 0x44938, symBinAddr: 0x5C1BC, symSize: 0xB4 }
  - { offset: 0x12BB15, size: 0x8, addend: 0x0, symName: __ZN3std3sys2fs8read_dir17h3de3d951fc53246fE, symObjAddr: 0x12CD0, symBinAddr: 0x47B14, symSize: 0x17C }
  - { offset: 0x12BECF, size: 0x8, addend: 0x0, symName: '__ZN3std3sys4sync8once_box16OnceBox$LT$T$GT$10initialize17h2d3ea3e1220dcd25E', symObjAddr: 0x17E78, symBinAddr: 0x71C04, symSize: 0xE4 }
  - { offset: 0x12C14B, size: 0x8, addend: 0x0, symName: '__ZN79_$LT$std..sys..sync..mutex..pthread..Mutex$u20$as$u20$core..ops..drop..Drop$GT$4drop17h4a62678093d20887E', symObjAddr: 0x486DC, symBinAddr: 0x5CEB8, symSize: 0x58 }
  - { offset: 0x12C270, size: 0x8, addend: 0x0, symName: __ZN3std3sys4sync4once5queue4Once4call17he10dbfaffbd7533fE, symObjAddr: 0x1728C, symBinAddr: 0x71984, symSize: 0x200 }
  - { offset: 0x12C51F, size: 0x8, addend: 0x0, symName: '__ZN82_$LT$std..sys..sync..once..queue..WaiterQueue$u20$as$u20$core..ops..drop..Drop$GT$4drop17h51c752d78792aec3E', symObjAddr: 0x49778, symBinAddr: 0x5D45C, symSize: 0xDC }
  - { offset: 0x12C713, size: 0x8, addend: 0x0, symName: __ZN3std3sys4sync4once5queue4wait17hfafedca398bbd05dE, symObjAddr: 0x17658, symBinAddr: 0x482E8, symSize: 0x184 }
  - { offset: 0x12CC8B, size: 0x8, addend: 0x0, symName: __ZN3std3sys4sync6rwlock5queue6RwLock12unlock_queue17h522a295efac16365E, symObjAddr: 0x177F0, symBinAddr: 0x4846C, symSize: 0x1BC }
  - { offset: 0x12D2E6, size: 0x8, addend: 0x0, symName: __ZN3std3sys4sync6rwlock5queue6RwLock16unlock_contended17h117fcd6c712bcaf8E, symObjAddr: 0x17CA8, symBinAddr: 0x71B84, symSize: 0x40 }
  - { offset: 0x12D3AD, size: 0x8, addend: 0x0, symName: __ZN3std3sys4sync6rwlock5queue6RwLock21read_unlock_contended17hc3e48bc1f626a445E, symObjAddr: 0x17CE8, symBinAddr: 0x71BC4, symSize: 0x40 }
  - { offset: 0x12D3CB, size: 0x8, addend: 0x0, symName: __ZN3std3sys4sync6rwlock5queue6RwLock21read_unlock_contended17hc3e48bc1f626a445E, symObjAddr: 0x17CE8, symBinAddr: 0x71BC4, symSize: 0x40 }
  - { offset: 0x12D3E0, size: 0x8, addend: 0x0, symName: __ZN3std3sys4sync6rwlock5queue6RwLock21read_unlock_contended17hc3e48bc1f626a445E, symObjAddr: 0x17CE8, symBinAddr: 0x71BC4, symSize: 0x40 }
  - { offset: 0x12D609, size: 0x8, addend: 0x0, symName: '__ZN83_$LT$std..sys..sync..rwlock..queue..PanicGuard$u20$as$u20$core..ops..drop..Drop$GT$4drop17h131cbf3bf14a35b6E', symObjAddr: 0x499F4, symBinAddr: 0x75384, symSize: 0x30 }
  - { offset: 0x12D643, size: 0x8, addend: 0x0, symName: __ZN3std3sys4sync14thread_parking6darwin6Parker6unpark17h756125e364fb4228E, symObjAddr: 0x1726C, symBinAddr: 0x482C8, symSize: 0x20 }
  - { offset: 0x12D65A, size: 0x8, addend: 0x0, symName: __ZN3std3sys4sync14thread_parking6darwin6Parker6unpark17h756125e364fb4228E, symObjAddr: 0x1726C, symBinAddr: 0x482C8, symSize: 0x20 }
  - { offset: 0x12D66E, size: 0x8, addend: 0x0, symName: __ZN3std3sys4sync14thread_parking6darwin6Parker6unpark17h756125e364fb4228E, symObjAddr: 0x1726C, symBinAddr: 0x482C8, symSize: 0x20 }
  - { offset: 0x12D6F1, size: 0x8, addend: 0x0, symName: '__ZN3std3sys11personality3gcc14find_eh_action28_$u7b$$u7b$closure$u7d$$u7d$17h15e9bfdfb8d32c4cE', symObjAddr: 0xEDB0, symBinAddr: 0x475FC, symSize: 0xC }
  - { offset: 0x12D705, size: 0x8, addend: 0x0, symName: '__ZN3std3sys11personality3gcc14find_eh_action28_$u7b$$u7b$closure$u7d$$u7d$17h6de2dcea55f7170aE', symObjAddr: 0xEDBC, symBinAddr: 0x47608, symSize: 0xC }
  - { offset: 0x12D751, size: 0x8, addend: 0x0, symName: _rust_eh_personality, symObjAddr: 0x4DC6C, symBinAddr: 0x606A8, symSize: 0x378 }
  - { offset: 0x12DA86, size: 0x8, addend: 0x0, symName: __ZN3std3sys11personality5dwarf2eh19read_encoded_offset17h553e09e5c9283001E, symObjAddr: 0xEDC8, symBinAddr: 0x47614, symSize: 0x148 }
  - { offset: 0x12DBEA, size: 0x8, addend: 0x0, symName: __ZN3std3sys6random19hashmap_random_keys17h29b3be0077be9613E, symObjAddr: 0x181D0, symBinAddr: 0x48628, symSize: 0x5C }
  - { offset: 0x12DC5D, size: 0x8, addend: 0x0, symName: '__ZN3std3sys9backtrace10_print_fmt28_$u7b$$u7b$closure$u7d$$u7d$17h1229ac298eac8201E', symObjAddr: 0x1AF10, symBinAddr: 0x48684, symSize: 0x134 }
  - { offset: 0x12DD59, size: 0x8, addend: 0x0, symName: '__ZN3std3sys9backtrace10_print_fmt28_$u7b$$u7b$closure$u7d$$u7d$17h41cce550886d7ff2E', symObjAddr: 0x1B044, symBinAddr: 0x487B8, symSize: 0x24 }
  - { offset: 0x12DD9A, size: 0x8, addend: 0x0, symName: '__ZN3std3sys9backtrace10_print_fmt28_$u7b$$u7b$closure$u7d$$u7d$28_$u7b$$u7b$closure$u7d$$u7d$17hfd76f87ab96b5b3cE', symObjAddr: 0x1B068, symBinAddr: 0x487DC, symSize: 0x244 }
  - { offset: 0x12DFC0, size: 0x8, addend: 0x0, symName: __ZN3std3sys9backtrace15output_filename17hd59cc3354dbf6ec1E, symObjAddr: 0x1B2AC, symBinAddr: 0x48A20, symSize: 0xE0 }
  - { offset: 0x12E100, size: 0x8, addend: 0x0, symName: __ZN3std3sys9backtrace26__rust_end_short_backtrace17h5d9167d60b96dcbaE, symObjAddr: 0x1B38C, symBinAddr: 0x71CE8, symSize: 0xC }
  - { offset: 0x12E11A, size: 0x8, addend: 0x0, symName: __ZN3std3sys9backtrace26__rust_end_short_backtrace17hf48afbd2b4eb8a2dE, symObjAddr: 0x1B398, symBinAddr: 0x48B00, symSize: 0xC }
  - { offset: 0x12E134, size: 0x8, addend: 0x0, symName: __ZN3std3sys9backtrace4lock17hdc95d3964857931eE, symObjAddr: 0x1B3B0, symBinAddr: 0x48B0C, symSize: 0x70 }
  - { offset: 0x12E2B3, size: 0x8, addend: 0x0, symName: '__ZN98_$LT$std..sys..backtrace..BacktraceLock..print..DisplayBacktrace$u20$as$u20$core..fmt..Display$GT$3fmt17h10dcb5e2ebe8f0acE', symObjAddr: 0x4B2BC, symBinAddr: 0x5DE04, symSize: 0x210 }
  - { offset: 0x12E7A5, size: 0x8, addend: 0x0, symName: __RNvCsdBezzDwma51_7___rustc11___rdl_alloc, symObjAddr: 0x48, symBinAddr: 0x3FD84, symSize: 0x6C }
  - { offset: 0x12E823, size: 0x8, addend: 0x0, symName: __RNvCsdBezzDwma51_7___rustc13___rdl_dealloc, symObjAddr: 0xC0, symBinAddr: 0x3FDF0, symSize: 0x4 }
  - { offset: 0x12E841, size: 0x8, addend: 0x0, symName: __RNvCsdBezzDwma51_7___rustc13___rdl_dealloc, symObjAddr: 0xC0, symBinAddr: 0x3FDF0, symSize: 0x4 }
  - { offset: 0x12E854, size: 0x8, addend: 0x0, symName: __RNvCsdBezzDwma51_7___rustc13___rdl_realloc, symObjAddr: 0xC4, symBinAddr: 0x3FDF4, symSize: 0xB0 }
  - { offset: 0x12E928, size: 0x8, addend: 0x0, symName: __RNvCsdBezzDwma51_7___rustc18___rdl_alloc_zeroed, symObjAddr: 0x2AC, symBinAddr: 0x3FFDC, symSize: 0x90 }
  - { offset: 0x12E9CC, size: 0x8, addend: 0x0, symName: __RNvCsdBezzDwma51_7___rustc26___rust_alloc_error_handler, symObjAddr: 0x454, symBinAddr: 0x71674, symSize: 0x18 }
  - { offset: 0x12EA15, size: 0x8, addend: 0x0, symName: __ZN3std5alloc24default_alloc_error_hook17hb8dcfa6a978f0c65E, symObjAddr: 0x1F008, symBinAddr: 0x49330, symSize: 0x134 }
  - { offset: 0x12EA85, size: 0x8, addend: 0x0, symName: __ZN3std5alloc8rust_oom17h7cbaa14c87bcea7dE, symObjAddr: 0x1F13C, symBinAddr: 0x71CF4, symSize: 0x18 }
  - { offset: 0x12EAA5, size: 0x8, addend: 0x0, symName: '__ZN3std5alloc8rust_oom28_$u7b$$u7b$closure$u7d$$u7d$17h09636b79a495f04bE', symObjAddr: 0x1F154, symBinAddr: 0x71D0C, symSize: 0x34 }
  - { offset: 0x12EB5A, size: 0x8, addend: 0x0, symName: __ZN3std2io5Write18write_all_vectored17h489d2ea4db2a469eE, symObjAddr: 0x9118, symBinAddr: 0x4614C, symSize: 0x184 }
  - { offset: 0x12ED5F, size: 0x8, addend: 0x0, symName: __ZN3std2io5Write9write_all17h0678c082825d8dbbE, symObjAddr: 0x929C, symBinAddr: 0x462D0, symSize: 0xAC }
  - { offset: 0x12EE23, size: 0x8, addend: 0x0, symName: __ZN3std2io5Write9write_fmt17h7c97e47276bac25eE, symObjAddr: 0x9348, symBinAddr: 0x4637C, symSize: 0x118 }
  - { offset: 0x12F050, size: 0x8, addend: 0x0, symName: __ZN3std2io5Write9write_fmt17had1ef9c8d87ad3dfE, symObjAddr: 0x9460, symBinAddr: 0x46494, symSize: 0x118 }
  - { offset: 0x12F284, size: 0x8, addend: 0x0, symName: __ZN3std2io5Write9write_fmt17hcbf4af37746a8c5cE, symObjAddr: 0x9578, symBinAddr: 0x465AC, symSize: 0x118 }
  - { offset: 0x12F4FB, size: 0x8, addend: 0x0, symName: __ZN3std2io5error5Error3new17he891c9ab93678831E, symObjAddr: 0x9768, symBinAddr: 0x466C4, symSize: 0x110 }
  - { offset: 0x12F917, size: 0x8, addend: 0x0, symName: '__ZN3std2io5error83_$LT$impl$u20$core..fmt..Debug$u20$for$u20$std..io..error..repr_bitpacked..Repr$GT$3fmt17h35e80d9003397ce2E', symObjAddr: 0x98F4, symBinAddr: 0x467D4, symSize: 0x280 }
  - { offset: 0x12FB5B, size: 0x8, addend: 0x0, symName: '__ZN58_$LT$std..io..error..Error$u20$as$u20$core..fmt..Debug$GT$3fmt17haaca707828e07d35E', symObjAddr: 0x33508, symBinAddr: 0x54408, symSize: 0x4 }
  - { offset: 0x12FB75, size: 0x8, addend: 0x0, symName: '__ZN60_$LT$std..io..error..Error$u20$as$u20$core..fmt..Display$GT$3fmt17h4de023fd3e8f99d7E', symObjAddr: 0x40728, symBinAddr: 0x5BA80, symSize: 0x1A8 }
  - { offset: 0x12FD96, size: 0x8, addend: 0x0, symName: '__ZN62_$LT$std..io..error..ErrorKind$u20$as$u20$core..fmt..Debug$GT$3fmt17h8590ad9eb6fd0099E', symObjAddr: 0x43378, symBinAddr: 0x5BFE4, symSize: 0x28 }
  - { offset: 0x12FDF2, size: 0x8, addend: 0x0, symName: __ZN3std2io5stdio22try_set_output_capture17h772b2b40ffe2512dE, symObjAddr: 0xA084, symBinAddr: 0x46E60, symSize: 0xEC }
  - { offset: 0x1300A7, size: 0x8, addend: 0x0, symName: __ZN3std2io5stdio31print_to_buffer_if_capture_used17h9de984b03e8422edE, symObjAddr: 0xA24C, symBinAddr: 0x46F4C, symSize: 0x214 }
  - { offset: 0x130781, size: 0x8, addend: 0x0, symName: __ZN3std2io5stdio6Stderr4lock17h47438e4da0b6d2d9E, symObjAddr: 0xA6C4, symBinAddr: 0x47160, symSize: 0xE4 }
  - { offset: 0x130A2A, size: 0x8, addend: 0x0, symName: __ZN3std2io5stdio7_eprint17h48b52fc02d938655E, symObjAddr: 0xA8B8, symBinAddr: 0x47244, symSize: 0xC0 }
  - { offset: 0x130A6E, size: 0x8, addend: 0x0, symName: '__ZN61_$LT$$RF$std..io..stdio..Stderr$u20$as$u20$std..io..Write$GT$9write_fmt17h80c852178c8750cfE', symObjAddr: 0x417CC, symBinAddr: 0x5BC28, symSize: 0x184 }
  - { offset: 0x130E4C, size: 0x8, addend: 0x0, symName: '__ZN61_$LT$std..io..stdio..StderrLock$u20$as$u20$std..io..Write$GT$9write_all17h10fea06ccad60e6bE', symObjAddr: 0x420E0, symBinAddr: 0x5BDAC, symSize: 0x104 }
  - { offset: 0x131105, size: 0x8, addend: 0x0, symName: '__ZN3std2io5impls74_$LT$impl$u20$std..io..Write$u20$for$u20$alloc..vec..Vec$LT$u8$C$A$GT$$GT$14write_vectored17h64026a8ebfb22455E', symObjAddr: 0x9B74, symBinAddr: 0x46A54, symSize: 0x184 }
  - { offset: 0x131354, size: 0x8, addend: 0x0, symName: '__ZN3std2io5impls74_$LT$impl$u20$std..io..Write$u20$for$u20$alloc..vec..Vec$LT$u8$C$A$GT$$GT$17is_write_vectored17h613ad89fd2cd9d26E', symObjAddr: 0x9CF8, symBinAddr: 0x46BD8, symSize: 0x8 }
  - { offset: 0x13137D, size: 0x8, addend: 0x0, symName: '__ZN3std2io5impls74_$LT$impl$u20$std..io..Write$u20$for$u20$alloc..vec..Vec$LT$u8$C$A$GT$$GT$18write_all_vectored17h3cd287fc89525367E', symObjAddr: 0x9D00, symBinAddr: 0x46BE0, symSize: 0x174 }
  - { offset: 0x13139B, size: 0x8, addend: 0x0, symName: '__ZN3std2io5impls74_$LT$impl$u20$std..io..Write$u20$for$u20$alloc..vec..Vec$LT$u8$C$A$GT$$GT$18write_all_vectored17h3cd287fc89525367E', symObjAddr: 0x9D00, symBinAddr: 0x46BE0, symSize: 0x174 }
  - { offset: 0x1313B0, size: 0x8, addend: 0x0, symName: '__ZN3std2io5impls74_$LT$impl$u20$std..io..Write$u20$for$u20$alloc..vec..Vec$LT$u8$C$A$GT$$GT$18write_all_vectored17h3cd287fc89525367E', symObjAddr: 0x9D00, symBinAddr: 0x46BE0, symSize: 0x174 }
  - { offset: 0x1313C5, size: 0x8, addend: 0x0, symName: '__ZN3std2io5impls74_$LT$impl$u20$std..io..Write$u20$for$u20$alloc..vec..Vec$LT$u8$C$A$GT$$GT$18write_all_vectored17h3cd287fc89525367E', symObjAddr: 0x9D00, symBinAddr: 0x46BE0, symSize: 0x174 }
  - { offset: 0x1313DA, size: 0x8, addend: 0x0, symName: '__ZN3std2io5impls74_$LT$impl$u20$std..io..Write$u20$for$u20$alloc..vec..Vec$LT$u8$C$A$GT$$GT$18write_all_vectored17h3cd287fc89525367E', symObjAddr: 0x9D00, symBinAddr: 0x46BE0, symSize: 0x174 }
  - { offset: 0x1313EE, size: 0x8, addend: 0x0, symName: '__ZN3std2io5impls74_$LT$impl$u20$std..io..Write$u20$for$u20$alloc..vec..Vec$LT$u8$C$A$GT$$GT$18write_all_vectored17h3cd287fc89525367E', symObjAddr: 0x9D00, symBinAddr: 0x46BE0, symSize: 0x174 }
  - { offset: 0x131621, size: 0x8, addend: 0x0, symName: '__ZN3std2io5impls74_$LT$impl$u20$std..io..Write$u20$for$u20$alloc..vec..Vec$LT$u8$C$A$GT$$GT$5flush17h77b3b5d4a4c0d3f9E', symObjAddr: 0x9E74, symBinAddr: 0x46D54, symSize: 0x8 }
  - { offset: 0x13163C, size: 0x8, addend: 0x0, symName: '__ZN3std2io5impls74_$LT$impl$u20$std..io..Write$u20$for$u20$alloc..vec..Vec$LT$u8$C$A$GT$$GT$5write17h2a42bcad807468a7E', symObjAddr: 0x9E7C, symBinAddr: 0x46D5C, symSize: 0x84 }
  - { offset: 0x131781, size: 0x8, addend: 0x0, symName: '__ZN3std2io5impls74_$LT$impl$u20$std..io..Write$u20$for$u20$alloc..vec..Vec$LT$u8$C$A$GT$$GT$9write_all17h38875b01f6132df7E', symObjAddr: 0x9F00, symBinAddr: 0x46DE0, symSize: 0x80 }
  - { offset: 0x1319E9, size: 0x8, addend: 0x0, symName: '__ZN81_$LT$std..io..default_write_fmt..Adapter$LT$T$GT$$u20$as$u20$core..fmt..Write$GT$9write_str17h0fdfa89fa6b96769E', symObjAddr: 0x48C90, symBinAddr: 0x5D210, symSize: 0xA0 }
  - { offset: 0x131B0A, size: 0x8, addend: 0x0, symName: '__ZN81_$LT$std..io..default_write_fmt..Adapter$LT$T$GT$$u20$as$u20$core..fmt..Write$GT$9write_str17h5a57ca2e2bda2957E', symObjAddr: 0x48D30, symBinAddr: 0x5D2B0, symSize: 0xD8 }
  - { offset: 0x131BF1, size: 0x8, addend: 0x0, symName: '__ZN81_$LT$std..io..default_write_fmt..Adapter$LT$T$GT$$u20$as$u20$core..fmt..Write$GT$9write_str17h7d3bb3b8b22db187E', symObjAddr: 0x48E08, symBinAddr: 0x5D388, symSize: 0x80 }
  - { offset: 0x131D3D, size: 0x8, addend: 0x0, symName: '__ZN81_$LT$std..io..default_write_fmt..Adapter$LT$T$GT$$u20$as$u20$core..fmt..Write$GT$9write_str17hafe58cfc54716cdaE', symObjAddr: 0x48F60, symBinAddr: 0x5D408, symSize: 0x50 }
  - { offset: 0x131E62, size: 0x8, addend: 0x0, symName: __ZN3std4path4Path13_strip_prefix17h04550551e63b8316E, symObjAddr: 0x1C220, symBinAddr: 0x48F18, symSize: 0x21C }
  - { offset: 0x131F71, size: 0x8, addend: 0x0, symName: __ZN3std4path4Path5_join17h44fb22321377b570E, symObjAddr: 0x1CAF0, symBinAddr: 0x49134, symSize: 0x184 }
  - { offset: 0x132516, size: 0x8, addend: 0x0, symName: __ZN3std4path10Components25parse_next_component_back17hb17688d6680321abE, symObjAddr: 0x1B420, symBinAddr: 0x48B7C, symSize: 0x164 }
  - { offset: 0x132664, size: 0x8, addend: 0x0, symName: __ZN3std4path10Components7as_path17h3e350950a52c1903E, symObjAddr: 0x1B584, symBinAddr: 0x48CE0, symSize: 0x238 }
  - { offset: 0x132879, size: 0x8, addend: 0x0, symName: '__ZN61_$LT$std..path..Component$u20$as$u20$core..cmp..PartialEq$GT$2eq17h8ba3651115d2bdf8E', symObjAddr: 0x429C0, symBinAddr: 0x5BEB0, symSize: 0x134 }
  - { offset: 0x1329D3, size: 0x8, addend: 0x0, symName: '__ZN80_$LT$std..path..Components$u20$as$u20$core..iter..traits..iterator..Iterator$GT$4next17h8790bf342c5f8d2eE', symObjAddr: 0x48734, symBinAddr: 0x5CF10, symSize: 0x300 }
  - { offset: 0x132ADE, size: 0x8, addend: 0x0, symName: '__ZN95_$LT$std..path..Components$u20$as$u20$core..iter..traits..double_ended..DoubleEndedIterator$GT$9next_back17h6ff29d18b7e4e6bcE', symObjAddr: 0x4AAF0, symBinAddr: 0x5D840, symSize: 0x41C }
  - { offset: 0x132C64, size: 0x8, addend: 0x0, symName: __ZN3std7process5abort17h930ef94b52b61edbE, symObjAddr: 0x20BA4, symBinAddr: 0x71ED8, symSize: 0xC }
  - { offset: 0x132C94, size: 0x8, addend: 0x0, symName: '__ZN126_$LT$std..thread..thread..thread_name_string..ThreadNameString$u20$as$u20$core..convert..From$LT$alloc..string..String$GT$$GT$4from17hb8c85e6773372204E', symObjAddr: 0xB2C, symBinAddr: 0x40184, symSize: 0x128 }
  - { offset: 0x132EAE, size: 0x8, addend: 0x0, symName: __ZN3std6thread6thread6Thread3new17h7b25d1ddb970d059E, symObjAddr: 0x1F470, symBinAddr: 0x49580, symSize: 0x18C }
  - { offset: 0x1332A8, size: 0x8, addend: 0x0, symName: __ZN3std6thread5local18panic_access_error17haef69abfd251b313E, symObjAddr: 0x1F324, symBinAddr: 0x71D6C, symSize: 0x30 }
  - { offset: 0x1332C8, size: 0x8, addend: 0x0, symName: '__ZN68_$LT$std..thread..local..AccessError$u20$as$u20$core..fmt..Debug$GT$3fmt17ha1c69d586d8eb069E', symObjAddr: 0x45374, symBinAddr: 0x5C270, symSize: 0x38 }
  - { offset: 0x133304, size: 0x8, addend: 0x0, symName: __ZN3std6thread9functions4park17h356909209060f5ffE, symObjAddr: 0x1FF38, symBinAddr: 0x49ABC, symSize: 0xC8 }
  - { offset: 0x133538, size: 0x8, addend: 0x0, symName: '__ZN76_$LT$std..thread..functions..PanicGuard$u20$as$u20$core..ops..drop..Drop$GT$4drop17hafde931041bb4f31E', symObjAddr: 0x47104, symBinAddr: 0x75354, symSize: 0x30 }
  - { offset: 0x133642, size: 0x8, addend: 0x0, symName: '__ZN3std6thread7current17with_current_name28_$u7b$$u7b$closure$u7d$$u7d$17h837370ffba488ff1E', symObjAddr: 0x1F84C, symBinAddr: 0x4970C, symSize: 0x368 }
  - { offset: 0x133DDF, size: 0x8, addend: 0x0, symName: __ZN3std6thread7current12init_current17h819d8bebffd78f67E, symObjAddr: 0x1F710, symBinAddr: 0x71D9C, symSize: 0x13C }
  - { offset: 0x1340B1, size: 0x8, addend: 0x0, symName: __ZN3std6thread7current7current17h681e47afc2c62b56E, symObjAddr: 0x1FC70, symBinAddr: 0x49A74, symSize: 0x48 }
  - { offset: 0x1341E6, size: 0x8, addend: 0x0, symName: __ZN3std6thread2id8ThreadId3new9exhausted17h932119ca76059478E, symObjAddr: 0x1F304, symBinAddr: 0x71D4C, symSize: 0x20 }
  - { offset: 0x134241, size: 0x8, addend: 0x0, symName: __ZN3std12backtrace_rs5print17BacktraceFrameFmt21print_raw_with_column17h62526ec87c27043bE, symObjAddr: 0xCD4, symBinAddr: 0x402E8, symSize: 0x378 }
  - { offset: 0x134462, size: 0x8, addend: 0x0, symName: __ZN3std12backtrace_rs9backtrace9libunwind5trace8trace_fn17he251f898cb32f58eE, symObjAddr: 0x104C, symBinAddr: 0x40660, symSize: 0x48 }
  - { offset: 0x13451D, size: 0x8, addend: 0x0, symName: __ZN3std12backtrace_rs9symbolize5gimli4mmap17hbb66f8d2ae0cb51fE, symObjAddr: 0x1094, symBinAddr: 0x406A8, symSize: 0x1EC }
  - { offset: 0x134A2C, size: 0x8, addend: 0x0, symName: __ZN3std12backtrace_rs9symbolize5gimli5macho11find_header17h3d43391121c17b32E, symObjAddr: 0x1280, symBinAddr: 0x40894, symSize: 0x1D4 }
  - { offset: 0x134A49, size: 0x8, addend: 0x0, symName: __ZN3std12backtrace_rs9symbolize5gimli5macho11find_header17h3d43391121c17b32E, symObjAddr: 0x1280, symBinAddr: 0x40894, symSize: 0x1D4 }
  - { offset: 0x134A5D, size: 0x8, addend: 0x0, symName: __ZN3std12backtrace_rs9symbolize5gimli5macho11find_header17h3d43391121c17b32E, symObjAddr: 0x1280, symBinAddr: 0x40894, symSize: 0x1D4 }
  - { offset: 0x134A71, size: 0x8, addend: 0x0, symName: __ZN3std12backtrace_rs9symbolize5gimli5macho11find_header17h3d43391121c17b32E, symObjAddr: 0x1280, symBinAddr: 0x40894, symSize: 0x1D4 }
  - { offset: 0x134A85, size: 0x8, addend: 0x0, symName: __ZN3std12backtrace_rs9symbolize5gimli5macho11find_header17h3d43391121c17b32E, symObjAddr: 0x1280, symBinAddr: 0x40894, symSize: 0x1D4 }
  - { offset: 0x134A9A, size: 0x8, addend: 0x0, symName: __ZN3std12backtrace_rs9symbolize5gimli5macho11find_header17h3d43391121c17b32E, symObjAddr: 0x1280, symBinAddr: 0x40894, symSize: 0x1D4 }
  - { offset: 0x134AAF, size: 0x8, addend: 0x0, symName: __ZN3std12backtrace_rs9symbolize5gimli5macho11find_header17h3d43391121c17b32E, symObjAddr: 0x1280, symBinAddr: 0x40894, symSize: 0x1D4 }
  - { offset: 0x13519A, size: 0x8, addend: 0x0, symName: __ZN3std12backtrace_rs9symbolize5gimli5macho6Object5parse17hac0b2e4cb8c0dcfeE, symObjAddr: 0x1454, symBinAddr: 0x40A68, symSize: 0xC9C }
  - { offset: 0x136E46, size: 0x8, addend: 0x0, symName: __ZN3std12backtrace_rs9symbolize5gimli5macho6Object7section17h7974e662f4f835dbE, symObjAddr: 0x20F0, symBinAddr: 0x41704, symSize: 0x154 }
  - { offset: 0x137231, size: 0x8, addend: 0x0, symName: __ZN3std12backtrace_rs9symbolize5gimli7Context11find_frames17h1c52b97b2ce18abdE, symObjAddr: 0x2244, symBinAddr: 0x41858, symSize: 0x394 }
  - { offset: 0x137662, size: 0x8, addend: 0x0, symName: __ZN3std12backtrace_rs9symbolize5gimli7Context3new17hbedbc783f9e8e071E, symObjAddr: 0x25D8, symBinAddr: 0x41BEC, symSize: 0x1F0C }
  - { offset: 0x13B8A7, size: 0x8, addend: 0x0, symName: __ZN3std12backtrace_rs9symbolize5gimli7resolve17h321e38bc8c935241E, symObjAddr: 0x44E4, symBinAddr: 0x43AF8, symSize: 0x2580 }
  - { offset: 0x140E30, size: 0x8, addend: 0x0, symName: __ZN3std12backtrace_rs9symbolize6Symbol4name17h82e55e552f960b26E, symObjAddr: 0x6A9C, symBinAddr: 0x46078, symSize: 0xD4 }
  - { offset: 0x140FA1, size: 0x8, addend: 0x0, symName: '__ZN79_$LT$std..backtrace_rs..symbolize..SymbolName$u20$as$u20$core..fmt..Display$GT$3fmt17hf127978ebd842dafE', symObjAddr: 0x47F2C, symBinAddr: 0x5CDA0, symSize: 0x104 }
  - { offset: 0x1410EB, size: 0x8, addend: 0x0, symName: '__ZN75_$LT$std..fs..ReadDir$u20$as$u20$core..iter..traits..iterator..Iterator$GT$4next17h8142713fd293396eE', symObjAddr: 0x46918, symBinAddr: 0x5CC14, symSize: 0x18C }
  - { offset: 0x141530, size: 0x8, addend: 0x0, symName: '__ZN64_$LT$std..ffi..os_str..Display$u20$as$u20$core..fmt..Display$GT$3fmt17h1b043e796b8fb58fE', symObjAddr: 0x442B8, symBinAddr: 0x5C058, symSize: 0xAC }
  - { offset: 0x1415B5, size: 0x8, addend: 0x0, symName: '__ZN3std4sync6poison5mutex14Mutex$LT$T$GT$4lock17h74113ff14063048fE', symObjAddr: 0x1E5B8, symBinAddr: 0x492B8, symSize: 0x78 }
  - { offset: 0x1418B0, size: 0x8, addend: 0x0, symName: __ZN3std5panic13resume_unwind17h69aec4648a6b8cddE, symObjAddr: 0x1F188, symBinAddr: 0x71D40, symSize: 0xC }
  - { offset: 0x1418DF, size: 0x8, addend: 0x0, symName: __ZN3std5panic19get_backtrace_style17hdc9455832ca078bdE, symObjAddr: 0x1F194, symBinAddr: 0x49464, symSize: 0x11C }
  - { offset: 0x1418FD, size: 0x8, addend: 0x0, symName: __ZN3std5panic19get_backtrace_style17hdc9455832ca078bdE, symObjAddr: 0x1F194, symBinAddr: 0x49464, symSize: 0x11C }
  - { offset: 0x141912, size: 0x8, addend: 0x0, symName: __ZN3std5panic19get_backtrace_style17hdc9455832ca078bdE, symObjAddr: 0x1F194, symBinAddr: 0x49464, symSize: 0x11C }
  - { offset: 0x141D79, size: 0x8, addend: 0x0, symName: __ZN3std3env11current_dir17h6a7d2dfefdf11cfeE, symObjAddr: 0xC66C, symBinAddr: 0x47304, symSize: 0x18C }
  - { offset: 0x142128, size: 0x8, addend: 0x0, symName: __ZN3std3env7_var_os17h289066a7989eb522E, symObjAddr: 0xC964, symBinAddr: 0x47490, symSize: 0x16C }
